
FilamentBoxBoard.elf:     file format elf32-avr

Sections:
Idx Name          Size      VMA       LMA       File off  Algn
  0 .data         00000594  00800200  000056ec  00005780  2**0
                  CONTENTS, ALLOC, LOAD, DATA
  1 .text         000056ec  00000000  00000000  00000094  2**1
                  CONTENTS, ALLOC, LOAD, READONLY, CODE
  2 .bss          000003dc  00800794  00800794  00005d14  2**0
                  ALLOC
  3 .comment      00000030  00000000  00000000  00005d14  2**0
                  CONTENTS, READONLY
  4 .note.gnu.avr.deviceinfo 00000040  00000000  00000000  00005d44  2**2
                  CONTENTS, READONLY
  5 .debug_aranges 00000248  00000000  00000000  00005d84  2**0
                  CONTENTS, READONLY, DEBUGGING
  6 .debug_info   00002e4e  00000000  00000000  00005fcc  2**0
                  CONTENTS, READONLY, DEBUGGING
  7 .debug_abbrev 00000a2f  00000000  00000000  00008e1a  2**0
                  CONTENTS, READONLY, DEBUGGING
  8 .debug_line   00002ab8  00000000  00000000  00009849  2**0
                  CONTENTS, READONLY, DEBUGGING
  9 .debug_frame  00000984  00000000  00000000  0000c304  2**2
                  CONTENTS, READONLY, DEBUGGING
 10 .debug_str    00000c79  00000000  00000000  0000cc88  2**0
                  CONTENTS, READONLY, DEBUGGING
 11 .debug_loc    0000141c  00000000  00000000  0000d901  2**0
                  CONTENTS, READONLY, DEBUGGING
 12 .debug_ranges 000001d8  00000000  00000000  0000ed1d  2**0
                  CONTENTS, READONLY, DEBUGGING

Disassembly of section .text:

00000000 <__vectors>:
       0:	81 c0       	rjmp	.+258    	; 0x104 <__ctors_end>
       2:	00 00       	nop
       4:	9f c0       	rjmp	.+318    	; 0x144 <__bad_interrupt>
       6:	00 00       	nop
       8:	9d c0       	rjmp	.+314    	; 0x144 <__bad_interrupt>
       a:	00 00       	nop
       c:	9b c0       	rjmp	.+310    	; 0x144 <__bad_interrupt>
       e:	00 00       	nop
      10:	99 c0       	rjmp	.+306    	; 0x144 <__bad_interrupt>
      12:	00 00       	nop
      14:	97 c0       	rjmp	.+302    	; 0x144 <__bad_interrupt>
      16:	00 00       	nop
      18:	95 c0       	rjmp	.+298    	; 0x144 <__bad_interrupt>
      1a:	00 00       	nop
      1c:	93 c0       	rjmp	.+294    	; 0x144 <__bad_interrupt>
      1e:	00 00       	nop
      20:	91 c0       	rjmp	.+290    	; 0x144 <__bad_interrupt>
      22:	00 00       	nop
      24:	8f c0       	rjmp	.+286    	; 0x144 <__bad_interrupt>
      26:	00 00       	nop
      28:	8d c0       	rjmp	.+282    	; 0x144 <__bad_interrupt>
      2a:	00 00       	nop
      2c:	8b c0       	rjmp	.+278    	; 0x144 <__bad_interrupt>
      2e:	00 00       	nop
      30:	89 c0       	rjmp	.+274    	; 0x144 <__bad_interrupt>
      32:	00 00       	nop
      34:	87 c0       	rjmp	.+270    	; 0x144 <__bad_interrupt>
      36:	00 00       	nop
      38:	85 c0       	rjmp	.+266    	; 0x144 <__bad_interrupt>
      3a:	00 00       	nop
      3c:	83 c0       	rjmp	.+262    	; 0x144 <__bad_interrupt>
      3e:	00 00       	nop
      40:	81 c0       	rjmp	.+258    	; 0x144 <__bad_interrupt>
      42:	00 00       	nop
      44:	8d c1       	rjmp	.+794    	; 0x360 <__vector_17>
      46:	00 00       	nop
      48:	7d c0       	rjmp	.+250    	; 0x144 <__bad_interrupt>
      4a:	00 00       	nop
      4c:	7b c0       	rjmp	.+246    	; 0x144 <__bad_interrupt>
      4e:	00 00       	nop
      50:	79 c0       	rjmp	.+242    	; 0x144 <__bad_interrupt>
      52:	00 00       	nop
      54:	f5 c1       	rjmp	.+1002   	; 0x440 <__vector_21>
      56:	00 00       	nop
      58:	75 c0       	rjmp	.+234    	; 0x144 <__bad_interrupt>
      5a:	00 00       	nop
      5c:	73 c0       	rjmp	.+230    	; 0x144 <__bad_interrupt>
      5e:	00 00       	nop
      60:	71 c0       	rjmp	.+226    	; 0x144 <__bad_interrupt>
      62:	00 00       	nop
      64:	6f c0       	rjmp	.+222    	; 0x144 <__bad_interrupt>
      66:	00 00       	nop
      68:	6d c0       	rjmp	.+218    	; 0x144 <__bad_interrupt>
      6a:	00 00       	nop
      6c:	6b c0       	rjmp	.+214    	; 0x144 <__bad_interrupt>
      6e:	00 00       	nop
      70:	69 c0       	rjmp	.+210    	; 0x144 <__bad_interrupt>
      72:	00 00       	nop
      74:	45 c3       	rjmp	.+1674   	; 0x700 <__vector_29>
      76:	00 00       	nop
      78:	65 c0       	rjmp	.+202    	; 0x144 <__bad_interrupt>
      7a:	00 00       	nop
      7c:	63 c0       	rjmp	.+198    	; 0x144 <__bad_interrupt>
      7e:	00 00       	nop
      80:	61 c0       	rjmp	.+194    	; 0x144 <__bad_interrupt>
      82:	00 00       	nop
      84:	5f c0       	rjmp	.+190    	; 0x144 <__bad_interrupt>
      86:	00 00       	nop
      88:	5d c0       	rjmp	.+186    	; 0x144 <__bad_interrupt>
      8a:	00 00       	nop
      8c:	5b c0       	rjmp	.+182    	; 0x144 <__bad_interrupt>
      8e:	00 00       	nop
      90:	59 c0       	rjmp	.+178    	; 0x144 <__bad_interrupt>
      92:	00 00       	nop
      94:	57 c0       	rjmp	.+174    	; 0x144 <__bad_interrupt>
      96:	00 00       	nop
      98:	55 c0       	rjmp	.+170    	; 0x144 <__bad_interrupt>
      9a:	00 00       	nop
      9c:	53 c0       	rjmp	.+166    	; 0x144 <__bad_interrupt>
      9e:	00 00       	nop
      a0:	51 c0       	rjmp	.+162    	; 0x144 <__bad_interrupt>
      a2:	00 00       	nop
      a4:	4f c0       	rjmp	.+158    	; 0x144 <__bad_interrupt>
      a6:	00 00       	nop
      a8:	4d c0       	rjmp	.+154    	; 0x144 <__bad_interrupt>
      aa:	00 00       	nop
      ac:	4b c0       	rjmp	.+150    	; 0x144 <__bad_interrupt>
      ae:	00 00       	nop
      b0:	49 c0       	rjmp	.+146    	; 0x144 <__bad_interrupt>
      b2:	00 00       	nop
      b4:	47 c0       	rjmp	.+142    	; 0x144 <__bad_interrupt>
      b6:	00 00       	nop
      b8:	45 c0       	rjmp	.+138    	; 0x144 <__bad_interrupt>
      ba:	00 00       	nop
      bc:	43 c0       	rjmp	.+134    	; 0x144 <__bad_interrupt>
      be:	00 00       	nop
      c0:	41 c0       	rjmp	.+130    	; 0x144 <__bad_interrupt>
      c2:	00 00       	nop
      c4:	3f c0       	rjmp	.+126    	; 0x144 <__bad_interrupt>
      c6:	00 00       	nop
      c8:	3d c0       	rjmp	.+122    	; 0x144 <__bad_interrupt>
      ca:	00 00       	nop
      cc:	c9 c5       	rjmp	.+2962   	; 0xc60 <__vector_51>
      ce:	00 00       	nop
      d0:	fa c4       	rjmp	.+2548   	; 0xac6 <__vector_52>
      d2:	00 00       	nop
      d4:	37 c0       	rjmp	.+110    	; 0x144 <__bad_interrupt>
      d6:	00 00       	nop
      d8:	35 c0       	rjmp	.+106    	; 0x144 <__bad_interrupt>
      da:	00 00       	nop
      dc:	33 c0       	rjmp	.+102    	; 0x144 <__bad_interrupt>
      de:	00 00       	nop
      e0:	31 c0       	rjmp	.+98     	; 0x144 <__bad_interrupt>
      e2:	00 00       	nop
      e4:	1f 1b       	sub	r17, r31
      e6:	1f 1b       	sub	r17, r31
      e8:	0b 1b       	sub	r16, r27
      ea:	10 1b       	sub	r17, r16
      ec:	1f 1b       	sub	r17, r31
      ee:	15 1b       	sub	r17, r21
      f0:	1f 1b       	sub	r17, r31
      f2:	1f 1b       	sub	r17, r31
      f4:	1f 1b       	sub	r17, r31
      f6:	1f 1b       	sub	r17, r31
      f8:	1f 1b       	sub	r17, r31
      fa:	1f 1b       	sub	r17, r31
      fc:	1f 1b       	sub	r17, r31
      fe:	1f 1b       	sub	r17, r31
     100:	1f 1b       	sub	r17, r31
     102:	1a 1b       	sub	r17, r26

00000104 <__ctors_end>:
     104:	11 24       	eor	r1, r1
     106:	1f be       	out	0x3f, r1	; 63
     108:	cf ef       	ldi	r28, 0xFF	; 255
     10a:	d1 e2       	ldi	r29, 0x21	; 33
     10c:	de bf       	out	0x3e, r29	; 62
     10e:	cd bf       	out	0x3d, r28	; 61
     110:	00 e0       	ldi	r16, 0x00	; 0
     112:	0c bf       	out	0x3c, r16	; 60

00000114 <__do_copy_data>:
     114:	17 e0       	ldi	r17, 0x07	; 7
     116:	a0 e0       	ldi	r26, 0x00	; 0
     118:	b2 e0       	ldi	r27, 0x02	; 2
     11a:	ec ee       	ldi	r30, 0xEC	; 236
     11c:	f6 e5       	ldi	r31, 0x56	; 86
     11e:	00 e0       	ldi	r16, 0x00	; 0
     120:	0b bf       	out	0x3b, r16	; 59
     122:	02 c0       	rjmp	.+4      	; 0x128 <__do_copy_data+0x14>
     124:	07 90       	elpm	r0, Z+
     126:	0d 92       	st	X+, r0
     128:	a4 39       	cpi	r26, 0x94	; 148
     12a:	b1 07       	cpc	r27, r17
     12c:	d9 f7       	brne	.-10     	; 0x124 <__do_copy_data+0x10>

0000012e <__do_clear_bss>:
     12e:	2b e0       	ldi	r18, 0x0B	; 11
     130:	a4 e9       	ldi	r26, 0x94	; 148
     132:	b7 e0       	ldi	r27, 0x07	; 7
     134:	01 c0       	rjmp	.+2      	; 0x138 <.do_clear_bss_start>

00000136 <.do_clear_bss_loop>:
     136:	1d 92       	st	X+, r1

00000138 <.do_clear_bss_start>:
     138:	a0 37       	cpi	r26, 0x70	; 112
     13a:	b2 07       	cpc	r27, r18
     13c:	e1 f7       	brne	.-8      	; 0x136 <.do_clear_bss_loop>
     13e:	bb d3       	rcall	.+1910   	; 0x8b6 <main>
     140:	0c 94 74 2b 	jmp	0x56e8	; 0x56e8 <_exit>

00000144 <__bad_interrupt>:
     144:	5d cf       	rjmp	.-326    	; 0x0 <__vectors>

00000146 <init>:
//extern struct TemperatureController tempController[ANALOG_INPUTS];
//extern struct Fan fan[NUM_EXTRUDER];



void init(){
     146:	cf 93       	push	r28
     148:	df 93       	push	r29
     14a:	cd b7       	in	r28, 0x3d	; 61
     14c:	de b7       	in	r29, 0x3e	; 62
	
//***************************************
//	Init hardware
//***************************************
	//restoreEEPROMSettingsFromConfiguration();
	set_default_pins();
     14e:	1b d0       	rcall	.+54     	; 0x186 <set_default_pins>
	Pin_init();
     150:	13 d0       	rcall	.+38     	; 0x178 <Pin_init>
	Timer0_init();
     152:	ba d0       	rcall	.+372    	; 0x2c8 <Timer0_init>
	Timer1_init();
     154:	e0 d0       	rcall	.+448    	; 0x316 <Timer1_init>
//	readDataFromEEPROM();
	
	//initBaudrate();
	USARTX_Init(baudrate);
     156:	80 91 00 02 	lds	r24, 0x0200	; 0x800200 <__data_start>
     15a:	90 91 01 02 	lds	r25, 0x0201	; 0x800201 <__data_start+0x1>
     15e:	a0 91 02 02 	lds	r26, 0x0202	; 0x800202 <__data_start+0x2>
     162:	b0 91 03 02 	lds	r27, 0x0203	; 0x800203 <__data_start+0x3>
     166:	bc 01       	movw	r22, r24
     168:	cd 01       	movw	r24, r26
     16a:	3f d4       	rcall	.+2174   	; 0x9ea <USARTX_Init>
	initTensometer();
     16c:	0e 94 36 1e 	call	0x3c6c	; 0x3c6c <initTensometer>
	sei();
     170:	78 94       	sei


	
 
	 
}
     172:	df 91       	pop	r29
     174:	cf 91       	pop	r28
     176:	08 95       	ret

00000178 <Pin_init>:
	#if defined(DISABLE_DIGITAL_IO_FUNCTIONS_8_15)
		DIDR1 |= DISABLE_DIGITAL_IO_FUNCTIONS_8_15; //wylaczamy funkcje cyfrowe pinów wykorzystywanych do pomiarów adc
	#endif
	ADCSRA |= (1<<ADSC); //start pomiaru ADC
#endif
}
     178:	cf 93       	push	r28
     17a:	df 93       	push	r29
     17c:	cd b7       	in	r28, 0x3d	; 61
     17e:	de b7       	in	r29, 0x3e	; 62
     180:	df 91       	pop	r29
     182:	cf 91       	pop	r28
     184:	08 95       	ret

00000186 <set_default_pins>:
     186:	cf 93       	push	r28
     188:	df 93       	push	r29
     18a:	cd b7       	in	r28, 0x3d	; 61
     18c:	de b7       	in	r29, 0x3e	; 62
     18e:	81 e2       	ldi	r24, 0x21	; 33
     190:	90 e0       	ldi	r25, 0x00	; 0
     192:	fc 01       	movw	r30, r24
     194:	80 81       	ld	r24, Z
     196:	81 e2       	ldi	r24, 0x21	; 33
     198:	90 e0       	ldi	r25, 0x00	; 0
     19a:	2f ef       	ldi	r18, 0xFF	; 255
     19c:	fc 01       	movw	r30, r24
     19e:	20 83       	st	Z, r18
     1a0:	82 e2       	ldi	r24, 0x22	; 34
     1a2:	90 e0       	ldi	r25, 0x00	; 0
     1a4:	fc 01       	movw	r30, r24
     1a6:	80 81       	ld	r24, Z
     1a8:	82 e2       	ldi	r24, 0x22	; 34
     1aa:	90 e0       	ldi	r25, 0x00	; 0
     1ac:	fc 01       	movw	r30, r24
     1ae:	10 82       	st	Z, r1
     1b0:	84 e2       	ldi	r24, 0x24	; 36
     1b2:	90 e0       	ldi	r25, 0x00	; 0
     1b4:	24 e2       	ldi	r18, 0x24	; 36
     1b6:	30 e0       	ldi	r19, 0x00	; 0
     1b8:	f9 01       	movw	r30, r18
     1ba:	20 81       	ld	r18, Z
     1bc:	21 6f       	ori	r18, 0xF1	; 241
     1be:	fc 01       	movw	r30, r24
     1c0:	20 83       	st	Z, r18
     1c2:	85 e2       	ldi	r24, 0x25	; 37
     1c4:	90 e0       	ldi	r25, 0x00	; 0
     1c6:	25 e2       	ldi	r18, 0x25	; 37
     1c8:	30 e0       	ldi	r19, 0x00	; 0
     1ca:	f9 01       	movw	r30, r18
     1cc:	20 81       	ld	r18, Z
     1ce:	2e 70       	andi	r18, 0x0E	; 14
     1d0:	fc 01       	movw	r30, r24
     1d2:	20 83       	st	Z, r18
     1d4:	87 e2       	ldi	r24, 0x27	; 39
     1d6:	90 e0       	ldi	r25, 0x00	; 0
     1d8:	fc 01       	movw	r30, r24
     1da:	80 81       	ld	r24, Z
     1dc:	87 e2       	ldi	r24, 0x27	; 39
     1de:	90 e0       	ldi	r25, 0x00	; 0
     1e0:	2f ef       	ldi	r18, 0xFF	; 255
     1e2:	fc 01       	movw	r30, r24
     1e4:	20 83       	st	Z, r18
     1e6:	88 e2       	ldi	r24, 0x28	; 40
     1e8:	90 e0       	ldi	r25, 0x00	; 0
     1ea:	fc 01       	movw	r30, r24
     1ec:	80 81       	ld	r24, Z
     1ee:	88 e2       	ldi	r24, 0x28	; 40
     1f0:	90 e0       	ldi	r25, 0x00	; 0
     1f2:	fc 01       	movw	r30, r24
     1f4:	10 82       	st	Z, r1
     1f6:	8a e2       	ldi	r24, 0x2A	; 42
     1f8:	90 e0       	ldi	r25, 0x00	; 0
     1fa:	fc 01       	movw	r30, r24
     1fc:	80 81       	ld	r24, Z
     1fe:	8a e2       	ldi	r24, 0x2A	; 42
     200:	90 e0       	ldi	r25, 0x00	; 0
     202:	2f ef       	ldi	r18, 0xFF	; 255
     204:	fc 01       	movw	r30, r24
     206:	20 83       	st	Z, r18
     208:	8b e2       	ldi	r24, 0x2B	; 43
     20a:	90 e0       	ldi	r25, 0x00	; 0
     20c:	fc 01       	movw	r30, r24
     20e:	80 81       	ld	r24, Z
     210:	8b e2       	ldi	r24, 0x2B	; 43
     212:	90 e0       	ldi	r25, 0x00	; 0
     214:	fc 01       	movw	r30, r24
     216:	10 82       	st	Z, r1
     218:	8d e2       	ldi	r24, 0x2D	; 45
     21a:	90 e0       	ldi	r25, 0x00	; 0
     21c:	fc 01       	movw	r30, r24
     21e:	80 81       	ld	r24, Z
     220:	8d e2       	ldi	r24, 0x2D	; 45
     222:	90 e0       	ldi	r25, 0x00	; 0
     224:	2f ef       	ldi	r18, 0xFF	; 255
     226:	fc 01       	movw	r30, r24
     228:	20 83       	st	Z, r18
     22a:	8e e2       	ldi	r24, 0x2E	; 46
     22c:	90 e0       	ldi	r25, 0x00	; 0
     22e:	fc 01       	movw	r30, r24
     230:	80 81       	ld	r24, Z
     232:	8e e2       	ldi	r24, 0x2E	; 46
     234:	90 e0       	ldi	r25, 0x00	; 0
     236:	fc 01       	movw	r30, r24
     238:	10 82       	st	Z, r1
     23a:	83 e3       	ldi	r24, 0x33	; 51
     23c:	90 e0       	ldi	r25, 0x00	; 0
     23e:	fc 01       	movw	r30, r24
     240:	80 81       	ld	r24, Z
     242:	83 e3       	ldi	r24, 0x33	; 51
     244:	90 e0       	ldi	r25, 0x00	; 0
     246:	2f ef       	ldi	r18, 0xFF	; 255
     248:	fc 01       	movw	r30, r24
     24a:	20 83       	st	Z, r18
     24c:	84 e3       	ldi	r24, 0x34	; 52
     24e:	90 e0       	ldi	r25, 0x00	; 0
     250:	fc 01       	movw	r30, r24
     252:	80 81       	ld	r24, Z
     254:	84 e3       	ldi	r24, 0x34	; 52
     256:	90 e0       	ldi	r25, 0x00	; 0
     258:	fc 01       	movw	r30, r24
     25a:	10 82       	st	Z, r1
     25c:	81 e0       	ldi	r24, 0x01	; 1
     25e:	91 e0       	ldi	r25, 0x01	; 1
     260:	fc 01       	movw	r30, r24
     262:	80 81       	ld	r24, Z
     264:	81 e0       	ldi	r24, 0x01	; 1
     266:	91 e0       	ldi	r25, 0x01	; 1
     268:	2f ef       	ldi	r18, 0xFF	; 255
     26a:	fc 01       	movw	r30, r24
     26c:	20 83       	st	Z, r18
     26e:	82 e0       	ldi	r24, 0x02	; 2
     270:	91 e0       	ldi	r25, 0x01	; 1
     272:	fc 01       	movw	r30, r24
     274:	80 81       	ld	r24, Z
     276:	82 e0       	ldi	r24, 0x02	; 2
     278:	91 e0       	ldi	r25, 0x01	; 1
     27a:	fc 01       	movw	r30, r24
     27c:	10 82       	st	Z, r1
     27e:	84 e0       	ldi	r24, 0x04	; 4
     280:	91 e0       	ldi	r25, 0x01	; 1
     282:	fc 01       	movw	r30, r24
     284:	80 81       	ld	r24, Z
     286:	84 e0       	ldi	r24, 0x04	; 4
     288:	91 e0       	ldi	r25, 0x01	; 1
     28a:	2f ef       	ldi	r18, 0xFF	; 255
     28c:	fc 01       	movw	r30, r24
     28e:	20 83       	st	Z, r18
     290:	85 e0       	ldi	r24, 0x05	; 5
     292:	91 e0       	ldi	r25, 0x01	; 1
     294:	fc 01       	movw	r30, r24
     296:	80 81       	ld	r24, Z
     298:	85 e0       	ldi	r24, 0x05	; 5
     29a:	91 e0       	ldi	r25, 0x01	; 1
     29c:	fc 01       	movw	r30, r24
     29e:	10 82       	st	Z, r1
     2a0:	8a e0       	ldi	r24, 0x0A	; 10
     2a2:	91 e0       	ldi	r25, 0x01	; 1
     2a4:	fc 01       	movw	r30, r24
     2a6:	80 81       	ld	r24, Z
     2a8:	8a e0       	ldi	r24, 0x0A	; 10
     2aa:	91 e0       	ldi	r25, 0x01	; 1
     2ac:	2f ef       	ldi	r18, 0xFF	; 255
     2ae:	fc 01       	movw	r30, r24
     2b0:	20 83       	st	Z, r18
     2b2:	8b e0       	ldi	r24, 0x0B	; 11
     2b4:	91 e0       	ldi	r25, 0x01	; 1
     2b6:	fc 01       	movw	r30, r24
     2b8:	80 81       	ld	r24, Z
     2ba:	8b e0       	ldi	r24, 0x0B	; 11
     2bc:	91 e0       	ldi	r25, 0x01	; 1
     2be:	fc 01       	movw	r30, r24
     2c0:	10 82       	st	Z, r1
     2c2:	df 91       	pop	r29
     2c4:	cf 91       	pop	r28
     2c6:	08 95       	ret

000002c8 <Timer0_init>:
     2c8:	cf 93       	push	r28
     2ca:	df 93       	push	r29
     2cc:	cd b7       	in	r28, 0x3d	; 61
     2ce:	de b7       	in	r29, 0x3e	; 62
     2d0:	84 e4       	ldi	r24, 0x44	; 68
     2d2:	90 e0       	ldi	r25, 0x00	; 0
     2d4:	24 e4       	ldi	r18, 0x44	; 68
     2d6:	30 e0       	ldi	r19, 0x00	; 0
     2d8:	f9 01       	movw	r30, r18
     2da:	20 81       	ld	r18, Z
     2dc:	22 60       	ori	r18, 0x02	; 2
     2de:	fc 01       	movw	r30, r24
     2e0:	20 83       	st	Z, r18
     2e2:	85 e4       	ldi	r24, 0x45	; 69
     2e4:	90 e0       	ldi	r25, 0x00	; 0
     2e6:	25 e4       	ldi	r18, 0x45	; 69
     2e8:	30 e0       	ldi	r19, 0x00	; 0
     2ea:	f9 01       	movw	r30, r18
     2ec:	20 81       	ld	r18, Z
     2ee:	23 60       	ori	r18, 0x03	; 3
     2f0:	fc 01       	movw	r30, r24
     2f2:	20 83       	st	Z, r18
     2f4:	87 e4       	ldi	r24, 0x47	; 71
     2f6:	90 e0       	ldi	r25, 0x00	; 0
     2f8:	20 e4       	ldi	r18, 0x40	; 64
     2fa:	fc 01       	movw	r30, r24
     2fc:	20 83       	st	Z, r18
     2fe:	8e e6       	ldi	r24, 0x6E	; 110
     300:	90 e0       	ldi	r25, 0x00	; 0
     302:	2e e6       	ldi	r18, 0x6E	; 110
     304:	30 e0       	ldi	r19, 0x00	; 0
     306:	f9 01       	movw	r30, r18
     308:	20 81       	ld	r18, Z
     30a:	22 60       	ori	r18, 0x02	; 2
     30c:	fc 01       	movw	r30, r24
     30e:	20 83       	st	Z, r18
     310:	df 91       	pop	r29
     312:	cf 91       	pop	r28
     314:	08 95       	ret

00000316 <Timer1_init>:
     316:	cf 93       	push	r28
     318:	df 93       	push	r29
     31a:	cd b7       	in	r28, 0x3d	; 61
     31c:	de b7       	in	r29, 0x3e	; 62
     31e:	81 e8       	ldi	r24, 0x81	; 129
     320:	90 e0       	ldi	r25, 0x00	; 0
     322:	21 e8       	ldi	r18, 0x81	; 129
     324:	30 e0       	ldi	r19, 0x00	; 0
     326:	f9 01       	movw	r30, r18
     328:	20 81       	ld	r18, Z
     32a:	28 60       	ori	r18, 0x08	; 8
     32c:	fc 01       	movw	r30, r24
     32e:	20 83       	st	Z, r18
     330:	81 e8       	ldi	r24, 0x81	; 129
     332:	90 e0       	ldi	r25, 0x00	; 0
     334:	21 e8       	ldi	r18, 0x81	; 129
     336:	30 e0       	ldi	r19, 0x00	; 0
     338:	f9 01       	movw	r30, r18
     33a:	20 81       	ld	r18, Z
     33c:	23 60       	ori	r18, 0x03	; 3
     33e:	fc 01       	movw	r30, r24
     340:	20 83       	st	Z, r18
     342:	88 e8       	ldi	r24, 0x88	; 136
     344:	90 e0       	ldi	r25, 0x00	; 0
     346:	29 ef       	ldi	r18, 0xF9	; 249
     348:	30 e0       	ldi	r19, 0x00	; 0
     34a:	fc 01       	movw	r30, r24
     34c:	31 83       	std	Z+1, r19	; 0x01
     34e:	20 83       	st	Z, r18
     350:	8f e6       	ldi	r24, 0x6F	; 111
     352:	90 e0       	ldi	r25, 0x00	; 0
     354:	22 e0       	ldi	r18, 0x02	; 2
     356:	fc 01       	movw	r30, r24
     358:	20 83       	st	Z, r18
     35a:	df 91       	pop	r29
     35c:	cf 91       	pop	r28
     35e:	08 95       	ret

00000360 <__vector_17>:
     360:	1f 92       	push	r1
     362:	0f 92       	push	r0
     364:	00 90 5f 00 	lds	r0, 0x005F	; 0x80005f <__TEXT_REGION_LENGTH__+0x70005f>
     368:	0f 92       	push	r0
     36a:	11 24       	eor	r1, r1
     36c:	8f 93       	push	r24
     36e:	9f 93       	push	r25
     370:	af 93       	push	r26
     372:	bf 93       	push	r27
     374:	cf 93       	push	r28
     376:	df 93       	push	r29
     378:	1f 92       	push	r1
     37a:	1f 92       	push	r1
     37c:	cd b7       	in	r28, 0x3d	; 61
     37e:	de b7       	in	r29, 0x3e	; 62
     380:	80 91 94 07 	lds	r24, 0x0794	; 0x800794 <__data_end>
     384:	90 91 95 07 	lds	r25, 0x0795	; 0x800795 <__data_end+0x1>
     388:	a0 91 96 07 	lds	r26, 0x0796	; 0x800796 <__data_end+0x2>
     38c:	b0 91 97 07 	lds	r27, 0x0797	; 0x800797 <__data_end+0x3>
     390:	01 96       	adiw	r24, 0x01	; 1
     392:	a1 1d       	adc	r26, r1
     394:	b1 1d       	adc	r27, r1
     396:	80 93 94 07 	sts	0x0794, r24	; 0x800794 <__data_end>
     39a:	90 93 95 07 	sts	0x0795, r25	; 0x800795 <__data_end+0x1>
     39e:	a0 93 96 07 	sts	0x0796, r26	; 0x800796 <__data_end+0x2>
     3a2:	b0 93 97 07 	sts	0x0797, r27	; 0x800797 <__data_end+0x3>
     3a6:	80 91 98 07 	lds	r24, 0x0798	; 0x800798 <Door_move_timer>
     3aa:	90 91 99 07 	lds	r25, 0x0799	; 0x800799 <Door_move_timer+0x1>
     3ae:	9a 83       	std	Y+2, r25	; 0x02
     3b0:	89 83       	std	Y+1, r24	; 0x01
     3b2:	89 81       	ldd	r24, Y+1	; 0x01
     3b4:	9a 81       	ldd	r25, Y+2	; 0x02
     3b6:	89 2b       	or	r24, r25
     3b8:	59 f0       	breq	.+22     	; 0x3d0 <__vector_17+0x70>
     3ba:	89 81       	ldd	r24, Y+1	; 0x01
     3bc:	9a 81       	ldd	r25, Y+2	; 0x02
     3be:	01 97       	sbiw	r24, 0x01	; 1
     3c0:	9a 83       	std	Y+2, r25	; 0x02
     3c2:	89 83       	std	Y+1, r24	; 0x01
     3c4:	89 81       	ldd	r24, Y+1	; 0x01
     3c6:	9a 81       	ldd	r25, Y+2	; 0x02
     3c8:	90 93 99 07 	sts	0x0799, r25	; 0x800799 <Door_move_timer+0x1>
     3cc:	80 93 98 07 	sts	0x0798, r24	; 0x800798 <Door_move_timer>
     3d0:	80 91 9a 07 	lds	r24, 0x079A	; 0x80079a <Door_delay_timer>
     3d4:	90 91 9b 07 	lds	r25, 0x079B	; 0x80079b <Door_delay_timer+0x1>
     3d8:	9a 83       	std	Y+2, r25	; 0x02
     3da:	89 83       	std	Y+1, r24	; 0x01
     3dc:	89 81       	ldd	r24, Y+1	; 0x01
     3de:	9a 81       	ldd	r25, Y+2	; 0x02
     3e0:	89 2b       	or	r24, r25
     3e2:	59 f0       	breq	.+22     	; 0x3fa <__vector_17+0x9a>
     3e4:	89 81       	ldd	r24, Y+1	; 0x01
     3e6:	9a 81       	ldd	r25, Y+2	; 0x02
     3e8:	01 97       	sbiw	r24, 0x01	; 1
     3ea:	9a 83       	std	Y+2, r25	; 0x02
     3ec:	89 83       	std	Y+1, r24	; 0x01
     3ee:	89 81       	ldd	r24, Y+1	; 0x01
     3f0:	9a 81       	ldd	r25, Y+2	; 0x02
     3f2:	90 93 9b 07 	sts	0x079B, r25	; 0x80079b <Door_delay_timer+0x1>
     3f6:	80 93 9a 07 	sts	0x079A, r24	; 0x80079a <Door_delay_timer>
     3fa:	80 91 9c 07 	lds	r24, 0x079C	; 0x80079c <Filament_measure_timer>
     3fe:	90 91 9d 07 	lds	r25, 0x079D	; 0x80079d <Filament_measure_timer+0x1>
     402:	9a 83       	std	Y+2, r25	; 0x02
     404:	89 83       	std	Y+1, r24	; 0x01
     406:	89 81       	ldd	r24, Y+1	; 0x01
     408:	9a 81       	ldd	r25, Y+2	; 0x02
     40a:	89 2b       	or	r24, r25
     40c:	59 f0       	breq	.+22     	; 0x424 <__FUSE_REGION_LENGTH__+0x24>
     40e:	89 81       	ldd	r24, Y+1	; 0x01
     410:	9a 81       	ldd	r25, Y+2	; 0x02
     412:	01 97       	sbiw	r24, 0x01	; 1
     414:	9a 83       	std	Y+2, r25	; 0x02
     416:	89 83       	std	Y+1, r24	; 0x01
     418:	89 81       	ldd	r24, Y+1	; 0x01
     41a:	9a 81       	ldd	r25, Y+2	; 0x02
     41c:	90 93 9d 07 	sts	0x079D, r25	; 0x80079d <Filament_measure_timer+0x1>
     420:	80 93 9c 07 	sts	0x079C, r24	; 0x80079c <Filament_measure_timer>
     424:	0f 90       	pop	r0
     426:	0f 90       	pop	r0
     428:	df 91       	pop	r29
     42a:	cf 91       	pop	r28
     42c:	bf 91       	pop	r27
     42e:	af 91       	pop	r26
     430:	9f 91       	pop	r25
     432:	8f 91       	pop	r24
     434:	0f 90       	pop	r0
     436:	00 92 5f 00 	sts	0x005F, r0	; 0x80005f <__TEXT_REGION_LENGTH__+0x70005f>
     43a:	0f 90       	pop	r0
     43c:	1f 90       	pop	r1
     43e:	18 95       	reti

00000440 <__vector_21>:
     440:	1f 92       	push	r1
     442:	0f 92       	push	r0
     444:	00 90 5f 00 	lds	r0, 0x005F	; 0x80005f <__TEXT_REGION_LENGTH__+0x70005f>
     448:	0f 92       	push	r0
     44a:	11 24       	eor	r1, r1
     44c:	00 90 5b 00 	lds	r0, 0x005B	; 0x80005b <__TEXT_REGION_LENGTH__+0x70005b>
     450:	0f 92       	push	r0
     452:	2f 93       	push	r18
     454:	3f 93       	push	r19
     456:	8f 93       	push	r24
     458:	9f 93       	push	r25
     45a:	ef 93       	push	r30
     45c:	ff 93       	push	r31
     45e:	cf 93       	push	r28
     460:	df 93       	push	r29
     462:	cd b7       	in	r28, 0x3d	; 61
     464:	de b7       	in	r29, 0x3e	; 62
     466:	87 e4       	ldi	r24, 0x47	; 71
     468:	90 e0       	ldi	r25, 0x00	; 0
     46a:	27 e4       	ldi	r18, 0x47	; 71
     46c:	30 e0       	ldi	r19, 0x00	; 0
     46e:	f9 01       	movw	r30, r18
     470:	20 81       	ld	r18, Z
     472:	20 5c       	subi	r18, 0xC0	; 192
     474:	fc 01       	movw	r30, r24
     476:	20 83       	st	Z, r18
     478:	80 91 a0 07 	lds	r24, 0x07A0	; 0x8007a0 <pwm_count_heater.1739>
     47c:	88 23       	and	r24, r24
     47e:	09 f0       	breq	.+2      	; 0x482 <__vector_21+0x42>
     480:	66 c0       	rjmp	.+204    	; 0x54e <__vector_21+0x10e>
     482:	80 91 b2 07 	lds	r24, 0x07B2	; 0x8007b2 <pwm_pos>
     486:	80 93 a1 07 	sts	0x07A1, r24	; 0x8007a1 <pwm_pos_set.1740>
     48a:	80 91 a1 07 	lds	r24, 0x07A1	; 0x8007a1 <pwm_pos_set.1740>
     48e:	88 23       	and	r24, r24
     490:	49 f0       	breq	.+18     	; 0x4a4 <__vector_21+0x64>
     492:	8b e0       	ldi	r24, 0x0B	; 11
     494:	91 e0       	ldi	r25, 0x01	; 1
     496:	2b e0       	ldi	r18, 0x0B	; 11
     498:	31 e0       	ldi	r19, 0x01	; 1
     49a:	f9 01       	movw	r30, r18
     49c:	20 81       	ld	r18, Z
     49e:	20 61       	ori	r18, 0x10	; 16
     4a0:	fc 01       	movw	r30, r24
     4a2:	20 83       	st	Z, r18
     4a4:	80 91 b3 07 	lds	r24, 0x07B3	; 0x8007b3 <pwm_pos+0x1>
     4a8:	80 93 a2 07 	sts	0x07A2, r24	; 0x8007a2 <pwm_pos_set.1740+0x1>
     4ac:	80 91 a2 07 	lds	r24, 0x07A2	; 0x8007a2 <pwm_pos_set.1740+0x1>
     4b0:	88 23       	and	r24, r24
     4b2:	49 f0       	breq	.+18     	; 0x4c6 <__vector_21+0x86>
     4b4:	8b e0       	ldi	r24, 0x0B	; 11
     4b6:	91 e0       	ldi	r25, 0x01	; 1
     4b8:	2b e0       	ldi	r18, 0x0B	; 11
     4ba:	31 e0       	ldi	r19, 0x01	; 1
     4bc:	f9 01       	movw	r30, r18
     4be:	20 81       	ld	r18, Z
     4c0:	20 62       	ori	r18, 0x20	; 32
     4c2:	fc 01       	movw	r30, r24
     4c4:	20 83       	st	Z, r18
     4c6:	80 91 b4 07 	lds	r24, 0x07B4	; 0x8007b4 <pwm_pos+0x2>
     4ca:	80 93 a3 07 	sts	0x07A3, r24	; 0x8007a3 <pwm_pos_set.1740+0x2>
     4ce:	80 91 a3 07 	lds	r24, 0x07A3	; 0x8007a3 <pwm_pos_set.1740+0x2>
     4d2:	88 23       	and	r24, r24
     4d4:	49 f0       	breq	.+18     	; 0x4e8 <__vector_21+0xa8>
     4d6:	8e e2       	ldi	r24, 0x2E	; 46
     4d8:	90 e0       	ldi	r25, 0x00	; 0
     4da:	2e e2       	ldi	r18, 0x2E	; 46
     4dc:	30 e0       	ldi	r19, 0x00	; 0
     4de:	f9 01       	movw	r30, r18
     4e0:	20 81       	ld	r18, Z
     4e2:	20 61       	ori	r18, 0x10	; 16
     4e4:	fc 01       	movw	r30, r24
     4e6:	20 83       	st	Z, r18
     4e8:	80 91 b5 07 	lds	r24, 0x07B5	; 0x8007b5 <pwm_pos+0x3>
     4ec:	80 93 a4 07 	sts	0x07A4, r24	; 0x8007a4 <pwm_pos_set.1740+0x3>
     4f0:	80 91 a4 07 	lds	r24, 0x07A4	; 0x8007a4 <pwm_pos_set.1740+0x3>
     4f4:	88 23       	and	r24, r24
     4f6:	49 f0       	breq	.+18     	; 0x50a <__vector_21+0xca>
     4f8:	8e e2       	ldi	r24, 0x2E	; 46
     4fa:	90 e0       	ldi	r25, 0x00	; 0
     4fc:	2e e2       	ldi	r18, 0x2E	; 46
     4fe:	30 e0       	ldi	r19, 0x00	; 0
     500:	f9 01       	movw	r30, r18
     502:	20 81       	ld	r18, Z
     504:	28 60       	ori	r18, 0x08	; 8
     506:	fc 01       	movw	r30, r24
     508:	20 83       	st	Z, r18
     50a:	80 91 b6 07 	lds	r24, 0x07B6	; 0x8007b6 <pwm_pos+0x4>
     50e:	80 93 a5 07 	sts	0x07A5, r24	; 0x8007a5 <pwm_pos_set.1740+0x4>
     512:	80 91 a5 07 	lds	r24, 0x07A5	; 0x8007a5 <pwm_pos_set.1740+0x4>
     516:	88 23       	and	r24, r24
     518:	49 f0       	breq	.+18     	; 0x52c <__vector_21+0xec>
     51a:	84 e3       	ldi	r24, 0x34	; 52
     51c:	90 e0       	ldi	r25, 0x00	; 0
     51e:	24 e3       	ldi	r18, 0x34	; 52
     520:	30 e0       	ldi	r19, 0x00	; 0
     522:	f9 01       	movw	r30, r18
     524:	20 81       	ld	r18, Z
     526:	20 62       	ori	r18, 0x20	; 32
     528:	fc 01       	movw	r30, r24
     52a:	20 83       	st	Z, r18
     52c:	80 91 b7 07 	lds	r24, 0x07B7	; 0x8007b7 <pwm_pos+0x5>
     530:	80 93 a6 07 	sts	0x07A6, r24	; 0x8007a6 <pwm_pos_set.1740+0x5>
     534:	80 91 a6 07 	lds	r24, 0x07A6	; 0x8007a6 <pwm_pos_set.1740+0x5>
     538:	88 23       	and	r24, r24
     53a:	49 f0       	breq	.+18     	; 0x54e <__vector_21+0x10e>
     53c:	8b e0       	ldi	r24, 0x0B	; 11
     53e:	91 e0       	ldi	r25, 0x01	; 1
     540:	2b e0       	ldi	r18, 0x0B	; 11
     542:	31 e0       	ldi	r19, 0x01	; 1
     544:	f9 01       	movw	r30, r18
     546:	20 81       	ld	r18, Z
     548:	28 60       	ori	r18, 0x08	; 8
     54a:	fc 01       	movw	r30, r24
     54c:	20 83       	st	Z, r18
     54e:	80 91 a7 07 	lds	r24, 0x07A7	; 0x8007a7 <pwm_count_cooler.1738>
     552:	88 23       	and	r24, r24
     554:	11 f5       	brne	.+68     	; 0x59a <__vector_21+0x15a>
     556:	80 91 c2 0a 	lds	r24, 0x0AC2	; 0x800ac2 <fan+0x1>
     55a:	80 93 a8 07 	sts	0x07A8, r24	; 0x8007a8 <pwm_cooler_pos_set.1741>
     55e:	80 91 a8 07 	lds	r24, 0x07A8	; 0x8007a8 <pwm_cooler_pos_set.1741>
     562:	88 23       	and	r24, r24
     564:	49 f0       	breq	.+18     	; 0x578 <__vector_21+0x138>
     566:	85 e0       	ldi	r24, 0x05	; 5
     568:	91 e0       	ldi	r25, 0x01	; 1
     56a:	25 e0       	ldi	r18, 0x05	; 5
     56c:	31 e0       	ldi	r19, 0x01	; 1
     56e:	f9 01       	movw	r30, r18
     570:	20 81       	ld	r18, Z
     572:	20 68       	ori	r18, 0x80	; 128
     574:	fc 01       	movw	r30, r24
     576:	20 83       	st	Z, r18
     578:	80 91 c4 0a 	lds	r24, 0x0AC4	; 0x800ac4 <fan+0x3>
     57c:	80 93 a9 07 	sts	0x07A9, r24	; 0x8007a9 <pwm_cooler_pos_set.1741+0x1>
     580:	80 91 a9 07 	lds	r24, 0x07A9	; 0x8007a9 <pwm_cooler_pos_set.1741+0x1>
     584:	88 23       	and	r24, r24
     586:	49 f0       	breq	.+18     	; 0x59a <__vector_21+0x15a>
     588:	85 e2       	ldi	r24, 0x25	; 37
     58a:	90 e0       	ldi	r25, 0x00	; 0
     58c:	25 e2       	ldi	r18, 0x25	; 37
     58e:	30 e0       	ldi	r19, 0x00	; 0
     590:	f9 01       	movw	r30, r18
     592:	20 81       	ld	r18, Z
     594:	20 68       	ori	r18, 0x80	; 128
     596:	fc 01       	movw	r30, r24
     598:	20 83       	st	Z, r18
     59a:	90 91 a1 07 	lds	r25, 0x07A1	; 0x8007a1 <pwm_pos_set.1740>
     59e:	80 91 a0 07 	lds	r24, 0x07A0	; 0x8007a0 <pwm_count_heater.1739>
     5a2:	98 17       	cp	r25, r24
     5a4:	69 f4       	brne	.+26     	; 0x5c0 <__vector_21+0x180>
     5a6:	80 91 a1 07 	lds	r24, 0x07A1	; 0x8007a1 <pwm_pos_set.1740>
     5aa:	8f 3f       	cpi	r24, 0xFF	; 255
     5ac:	49 f0       	breq	.+18     	; 0x5c0 <__vector_21+0x180>
     5ae:	8b e0       	ldi	r24, 0x0B	; 11
     5b0:	91 e0       	ldi	r25, 0x01	; 1
     5b2:	2b e0       	ldi	r18, 0x0B	; 11
     5b4:	31 e0       	ldi	r19, 0x01	; 1
     5b6:	f9 01       	movw	r30, r18
     5b8:	20 81       	ld	r18, Z
     5ba:	2f 7e       	andi	r18, 0xEF	; 239
     5bc:	fc 01       	movw	r30, r24
     5be:	20 83       	st	Z, r18
     5c0:	90 91 a8 07 	lds	r25, 0x07A8	; 0x8007a8 <pwm_cooler_pos_set.1741>
     5c4:	80 91 a7 07 	lds	r24, 0x07A7	; 0x8007a7 <pwm_count_cooler.1738>
     5c8:	98 17       	cp	r25, r24
     5ca:	69 f4       	brne	.+26     	; 0x5e6 <__vector_21+0x1a6>
     5cc:	80 91 a8 07 	lds	r24, 0x07A8	; 0x8007a8 <pwm_cooler_pos_set.1741>
     5d0:	8f 3f       	cpi	r24, 0xFF	; 255
     5d2:	49 f0       	breq	.+18     	; 0x5e6 <__vector_21+0x1a6>
     5d4:	85 e0       	ldi	r24, 0x05	; 5
     5d6:	91 e0       	ldi	r25, 0x01	; 1
     5d8:	25 e0       	ldi	r18, 0x05	; 5
     5da:	31 e0       	ldi	r19, 0x01	; 1
     5dc:	f9 01       	movw	r30, r18
     5de:	20 81       	ld	r18, Z
     5e0:	2f 77       	andi	r18, 0x7F	; 127
     5e2:	fc 01       	movw	r30, r24
     5e4:	20 83       	st	Z, r18
     5e6:	90 91 a2 07 	lds	r25, 0x07A2	; 0x8007a2 <pwm_pos_set.1740+0x1>
     5ea:	80 91 a0 07 	lds	r24, 0x07A0	; 0x8007a0 <pwm_count_heater.1739>
     5ee:	98 17       	cp	r25, r24
     5f0:	69 f4       	brne	.+26     	; 0x60c <__vector_21+0x1cc>
     5f2:	80 91 a2 07 	lds	r24, 0x07A2	; 0x8007a2 <pwm_pos_set.1740+0x1>
     5f6:	8f 3f       	cpi	r24, 0xFF	; 255
     5f8:	49 f0       	breq	.+18     	; 0x60c <__vector_21+0x1cc>
     5fa:	8b e0       	ldi	r24, 0x0B	; 11
     5fc:	91 e0       	ldi	r25, 0x01	; 1
     5fe:	2b e0       	ldi	r18, 0x0B	; 11
     600:	31 e0       	ldi	r19, 0x01	; 1
     602:	f9 01       	movw	r30, r18
     604:	20 81       	ld	r18, Z
     606:	2f 7d       	andi	r18, 0xDF	; 223
     608:	fc 01       	movw	r30, r24
     60a:	20 83       	st	Z, r18
     60c:	90 91 a9 07 	lds	r25, 0x07A9	; 0x8007a9 <pwm_cooler_pos_set.1741+0x1>
     610:	80 91 a7 07 	lds	r24, 0x07A7	; 0x8007a7 <pwm_count_cooler.1738>
     614:	98 17       	cp	r25, r24
     616:	69 f4       	brne	.+26     	; 0x632 <__vector_21+0x1f2>
     618:	80 91 a9 07 	lds	r24, 0x07A9	; 0x8007a9 <pwm_cooler_pos_set.1741+0x1>
     61c:	8f 3f       	cpi	r24, 0xFF	; 255
     61e:	49 f0       	breq	.+18     	; 0x632 <__vector_21+0x1f2>
     620:	85 e2       	ldi	r24, 0x25	; 37
     622:	90 e0       	ldi	r25, 0x00	; 0
     624:	25 e2       	ldi	r18, 0x25	; 37
     626:	30 e0       	ldi	r19, 0x00	; 0
     628:	f9 01       	movw	r30, r18
     62a:	20 81       	ld	r18, Z
     62c:	2f 77       	andi	r18, 0x7F	; 127
     62e:	fc 01       	movw	r30, r24
     630:	20 83       	st	Z, r18
     632:	90 91 a3 07 	lds	r25, 0x07A3	; 0x8007a3 <pwm_pos_set.1740+0x2>
     636:	80 91 a0 07 	lds	r24, 0x07A0	; 0x8007a0 <pwm_count_heater.1739>
     63a:	98 17       	cp	r25, r24
     63c:	69 f4       	brne	.+26     	; 0x658 <__vector_21+0x218>
     63e:	80 91 a3 07 	lds	r24, 0x07A3	; 0x8007a3 <pwm_pos_set.1740+0x2>
     642:	8f 3f       	cpi	r24, 0xFF	; 255
     644:	49 f0       	breq	.+18     	; 0x658 <__vector_21+0x218>
     646:	8e e2       	ldi	r24, 0x2E	; 46
     648:	90 e0       	ldi	r25, 0x00	; 0
     64a:	2e e2       	ldi	r18, 0x2E	; 46
     64c:	30 e0       	ldi	r19, 0x00	; 0
     64e:	f9 01       	movw	r30, r18
     650:	20 81       	ld	r18, Z
     652:	2f 7e       	andi	r18, 0xEF	; 239
     654:	fc 01       	movw	r30, r24
     656:	20 83       	st	Z, r18
     658:	90 91 a4 07 	lds	r25, 0x07A4	; 0x8007a4 <pwm_pos_set.1740+0x3>
     65c:	80 91 a0 07 	lds	r24, 0x07A0	; 0x8007a0 <pwm_count_heater.1739>
     660:	98 17       	cp	r25, r24
     662:	69 f4       	brne	.+26     	; 0x67e <__vector_21+0x23e>
     664:	80 91 a4 07 	lds	r24, 0x07A4	; 0x8007a4 <pwm_pos_set.1740+0x3>
     668:	8f 3f       	cpi	r24, 0xFF	; 255
     66a:	49 f0       	breq	.+18     	; 0x67e <__vector_21+0x23e>
     66c:	8e e2       	ldi	r24, 0x2E	; 46
     66e:	90 e0       	ldi	r25, 0x00	; 0
     670:	2e e2       	ldi	r18, 0x2E	; 46
     672:	30 e0       	ldi	r19, 0x00	; 0
     674:	f9 01       	movw	r30, r18
     676:	20 81       	ld	r18, Z
     678:	27 7f       	andi	r18, 0xF7	; 247
     67a:	fc 01       	movw	r30, r24
     67c:	20 83       	st	Z, r18
     67e:	90 91 a5 07 	lds	r25, 0x07A5	; 0x8007a5 <pwm_pos_set.1740+0x4>
     682:	80 91 a0 07 	lds	r24, 0x07A0	; 0x8007a0 <pwm_count_heater.1739>
     686:	98 17       	cp	r25, r24
     688:	69 f4       	brne	.+26     	; 0x6a4 <__vector_21+0x264>
     68a:	80 91 a5 07 	lds	r24, 0x07A5	; 0x8007a5 <pwm_pos_set.1740+0x4>
     68e:	8f 3f       	cpi	r24, 0xFF	; 255
     690:	49 f0       	breq	.+18     	; 0x6a4 <__vector_21+0x264>
     692:	84 e3       	ldi	r24, 0x34	; 52
     694:	90 e0       	ldi	r25, 0x00	; 0
     696:	24 e3       	ldi	r18, 0x34	; 52
     698:	30 e0       	ldi	r19, 0x00	; 0
     69a:	f9 01       	movw	r30, r18
     69c:	20 81       	ld	r18, Z
     69e:	2f 7d       	andi	r18, 0xDF	; 223
     6a0:	fc 01       	movw	r30, r24
     6a2:	20 83       	st	Z, r18
     6a4:	90 91 a6 07 	lds	r25, 0x07A6	; 0x8007a6 <pwm_pos_set.1740+0x5>
     6a8:	80 91 a0 07 	lds	r24, 0x07A0	; 0x8007a0 <pwm_count_heater.1739>
     6ac:	98 17       	cp	r25, r24
     6ae:	69 f4       	brne	.+26     	; 0x6ca <__vector_21+0x28a>
     6b0:	80 91 a6 07 	lds	r24, 0x07A6	; 0x8007a6 <pwm_pos_set.1740+0x5>
     6b4:	8f 3f       	cpi	r24, 0xFF	; 255
     6b6:	49 f0       	breq	.+18     	; 0x6ca <__vector_21+0x28a>
     6b8:	8b e0       	ldi	r24, 0x0B	; 11
     6ba:	91 e0       	ldi	r25, 0x01	; 1
     6bc:	2b e0       	ldi	r18, 0x0B	; 11
     6be:	31 e0       	ldi	r19, 0x01	; 1
     6c0:	f9 01       	movw	r30, r18
     6c2:	20 81       	ld	r18, Z
     6c4:	27 7f       	andi	r18, 0xF7	; 247
     6c6:	fc 01       	movw	r30, r24
     6c8:	20 83       	st	Z, r18
     6ca:	80 91 a7 07 	lds	r24, 0x07A7	; 0x8007a7 <pwm_count_cooler.1738>
     6ce:	8f 5f       	subi	r24, 0xFF	; 255
     6d0:	80 93 a7 07 	sts	0x07A7, r24	; 0x8007a7 <pwm_count_cooler.1738>
     6d4:	80 91 a0 07 	lds	r24, 0x07A0	; 0x8007a0 <pwm_count_heater.1739>
     6d8:	8f 5f       	subi	r24, 0xFF	; 255
     6da:	80 93 a0 07 	sts	0x07A0, r24	; 0x8007a0 <pwm_count_heater.1739>
     6de:	df 91       	pop	r29
     6e0:	cf 91       	pop	r28
     6e2:	ff 91       	pop	r31
     6e4:	ef 91       	pop	r30
     6e6:	9f 91       	pop	r25
     6e8:	8f 91       	pop	r24
     6ea:	3f 91       	pop	r19
     6ec:	2f 91       	pop	r18
     6ee:	0f 90       	pop	r0
     6f0:	00 92 5b 00 	sts	0x005B, r0	; 0x80005b <__TEXT_REGION_LENGTH__+0x70005b>
     6f4:	0f 90       	pop	r0
     6f6:	00 92 5f 00 	sts	0x005F, r0	; 0x80005f <__TEXT_REGION_LENGTH__+0x70005f>
     6fa:	0f 90       	pop	r0
     6fc:	1f 90       	pop	r1
     6fe:	18 95       	reti

00000700 <__vector_29>:

#if ANALOG_INPUTS > 0
ISR(ADC_vect)
{
     700:	1f 92       	push	r1
     702:	0f 92       	push	r0
     704:	00 90 5f 00 	lds	r0, 0x005F	; 0x80005f <__TEXT_REGION_LENGTH__+0x70005f>
     708:	0f 92       	push	r0
     70a:	11 24       	eor	r1, r1
     70c:	00 90 5b 00 	lds	r0, 0x005B	; 0x80005b <__TEXT_REGION_LENGTH__+0x70005b>
     710:	0f 92       	push	r0
     712:	2f 93       	push	r18
     714:	3f 93       	push	r19
     716:	4f 93       	push	r20
     718:	5f 93       	push	r21
     71a:	8f 93       	push	r24
     71c:	9f 93       	push	r25
     71e:	ef 93       	push	r30
     720:	ff 93       	push	r31
     722:	cf 93       	push	r28
     724:	df 93       	push	r29
     726:	1f 92       	push	r1
     728:	1f 92       	push	r1
     72a:	cd b7       	in	r28, 0x3d	; 61
     72c:	de b7       	in	r29, 0x3e	; 62
	osAnalogInputBuildup[osAnalogInputPos] += ADCW;
     72e:	88 e7       	ldi	r24, 0x78	; 120
     730:	90 e0       	ldi	r25, 0x00	; 0
     732:	fc 01       	movw	r30, r24
     734:	20 81       	ld	r18, Z
     736:	31 81       	ldd	r19, Z+1	; 0x01
     738:	80 91 9f 07 	lds	r24, 0x079F	; 0x80079f <osAnalogInputPos>
     73c:	88 2f       	mov	r24, r24
     73e:	90 e0       	ldi	r25, 0x00	; 0
     740:	40 91 9f 07 	lds	r20, 0x079F	; 0x80079f <osAnalogInputPos>
     744:	44 2f       	mov	r20, r20
     746:	50 e0       	ldi	r21, 0x00	; 0
     748:	44 0f       	add	r20, r20
     74a:	55 1f       	adc	r21, r21
     74c:	42 53       	subi	r20, 0x32	; 50
     74e:	58 4f       	sbci	r21, 0xF8	; 248
     750:	fa 01       	movw	r30, r20
     752:	40 81       	ld	r20, Z
     754:	51 81       	ldd	r21, Z+1	; 0x01
     756:	24 0f       	add	r18, r20
     758:	35 1f       	adc	r19, r21
     75a:	88 0f       	add	r24, r24
     75c:	99 1f       	adc	r25, r25
     75e:	82 53       	subi	r24, 0x32	; 50
     760:	98 4f       	sbci	r25, 0xF8	; 248
     762:	fc 01       	movw	r30, r24
     764:	31 83       	std	Z+1, r19	; 0x01
     766:	20 83       	st	Z, r18
	if(++osAnalogInputCounter[osAnalogInputPos] >= (1<<ANALOG_INPUT_SAMPLE))
     768:	80 91 9f 07 	lds	r24, 0x079F	; 0x80079f <osAnalogInputPos>
     76c:	88 2f       	mov	r24, r24
     76e:	90 e0       	ldi	r25, 0x00	; 0
     770:	9c 01       	movw	r18, r24
     772:	27 54       	subi	r18, 0x47	; 71
     774:	38 4f       	sbci	r19, 0xF8	; 248
     776:	f9 01       	movw	r30, r18
     778:	20 81       	ld	r18, Z
     77a:	41 e0       	ldi	r20, 0x01	; 1
     77c:	42 0f       	add	r20, r18
     77e:	9c 01       	movw	r18, r24
     780:	27 54       	subi	r18, 0x47	; 71
     782:	38 4f       	sbci	r19, 0xF8	; 248
     784:	f9 01       	movw	r30, r18
     786:	40 83       	st	Z, r20
     788:	87 54       	subi	r24, 0x47	; 71
     78a:	98 4f       	sbci	r25, 0xF8	; 248
     78c:	fc 01       	movw	r30, r24
     78e:	80 81       	ld	r24, Z
     790:	80 32       	cpi	r24, 0x20	; 32
     792:	08 f4       	brcc	.+2      	; 0x796 <__vector_29+0x96>
     794:	72 c0       	rjmp	.+228    	; 0x87a <__vector_29+0x17a>
	{
		#if ANALOG_INPUT_BITS + ANALOG_INPUT_SAMPLE < 12
			osAnalogInputValues[osAnalogInputPos] = osAnalogInputBuildup[osAnalogInputPos] << (12 - ANALOG_INPUT_BITS - ANALOG_INPUT_SAMPLE);
		#endif
		#if ANALOG_INPUT_BITS + ANALOG_INPUT_SAMPLE > 12
			osAnalogInputValues[osAnalogInputPos] = osAnalogInputBuildup[osAnalogInputPos] >> (ANALOG_INPUT_BITS + ANALOG_INPUT_SAMPLE - 12);
     796:	80 91 9f 07 	lds	r24, 0x079F	; 0x80079f <osAnalogInputPos>
     79a:	88 2f       	mov	r24, r24
     79c:	90 e0       	ldi	r25, 0x00	; 0
     79e:	20 91 9f 07 	lds	r18, 0x079F	; 0x80079f <osAnalogInputPos>
     7a2:	22 2f       	mov	r18, r18
     7a4:	30 e0       	ldi	r19, 0x00	; 0
     7a6:	22 0f       	add	r18, r18
     7a8:	33 1f       	adc	r19, r19
     7aa:	22 53       	subi	r18, 0x32	; 50
     7ac:	38 4f       	sbci	r19, 0xF8	; 248
     7ae:	f9 01       	movw	r30, r18
     7b0:	20 81       	ld	r18, Z
     7b2:	31 81       	ldd	r19, Z+1	; 0x01
     7b4:	36 95       	lsr	r19
     7b6:	27 95       	ror	r18
     7b8:	36 95       	lsr	r19
     7ba:	27 95       	ror	r18
     7bc:	36 95       	lsr	r19
     7be:	27 95       	ror	r18
     7c0:	88 0f       	add	r24, r24
     7c2:	99 1f       	adc	r25, r25
     7c4:	80 54       	subi	r24, 0x40	; 64
     7c6:	98 4f       	sbci	r25, 0xF8	; 248
     7c8:	fc 01       	movw	r30, r24
     7ca:	31 83       	std	Z+1, r19	; 0x01
     7cc:	20 83       	st	Z, r18
		#endif
		#if ANALOG_INPUT_BITS + ANALOG_INPUT_SAMPLE == 12
			osAnalogInputValues[osAnalogInputPos] = osAnalogInputBuildup[osAnalogInputPos];
		#endif
		osAnalogInputBuildup[osAnalogInputPos] = 0;
     7ce:	80 91 9f 07 	lds	r24, 0x079F	; 0x80079f <osAnalogInputPos>
     7d2:	88 2f       	mov	r24, r24
     7d4:	90 e0       	ldi	r25, 0x00	; 0
     7d6:	88 0f       	add	r24, r24
     7d8:	99 1f       	adc	r25, r25
     7da:	82 53       	subi	r24, 0x32	; 50
     7dc:	98 4f       	sbci	r25, 0xF8	; 248
     7de:	fc 01       	movw	r30, r24
     7e0:	11 82       	std	Z+1, r1	; 0x01
     7e2:	10 82       	st	Z, r1
		osAnalogInputCounter[osAnalogInputPos] = 0;
     7e4:	80 91 9f 07 	lds	r24, 0x079F	; 0x80079f <osAnalogInputPos>
     7e8:	88 2f       	mov	r24, r24
     7ea:	90 e0       	ldi	r25, 0x00	; 0
     7ec:	87 54       	subi	r24, 0x47	; 71
     7ee:	98 4f       	sbci	r25, 0xF8	; 248
     7f0:	fc 01       	movw	r30, r24
     7f2:	10 82       	st	Z, r1
		// Start next conversion
		if(++osAnalogInputPos >= ANALOG_INPUTS) {
     7f4:	80 91 9f 07 	lds	r24, 0x079F	; 0x80079f <osAnalogInputPos>
     7f8:	8f 5f       	subi	r24, 0xFF	; 255
     7fa:	80 93 9f 07 	sts	0x079F, r24	; 0x80079f <osAnalogInputPos>
     7fe:	80 91 9f 07 	lds	r24, 0x079F	; 0x80079f <osAnalogInputPos>
     802:	87 30       	cpi	r24, 0x07	; 7
     804:	10 f0       	brcs	.+4      	; 0x80a <__vector_29+0x10a>
			osAnalogInputPos = 0;
     806:	10 92 9f 07 	sts	0x079F, r1	; 0x80079f <osAnalogInputPos>
		}
		//uint8_t channel = pgm_read_uint8_t(&osAnalogInputChannels[osAnalogInputPos]);
		uint8_t channel = tempController[osAnalogInputPos].sensorPin;
     80a:	80 91 9f 07 	lds	r24, 0x079F	; 0x80079f <osAnalogInputPos>
     80e:	28 2f       	mov	r18, r24
     810:	30 e0       	ldi	r19, 0x00	; 0
     812:	42 e4       	ldi	r20, 0x42	; 66
     814:	42 9f       	mul	r20, r18
     816:	c0 01       	movw	r24, r0
     818:	43 9f       	mul	r20, r19
     81a:	90 0d       	add	r25, r0
     81c:	11 24       	eor	r1, r1
     81e:	8a 50       	subi	r24, 0x0A	; 10
     820:	97 4f       	sbci	r25, 0xF7	; 247
     822:	fc 01       	movw	r30, r24
     824:	80 81       	ld	r24, Z
     826:	89 83       	std	Y+1, r24	; 0x01
		#if defined(ADCSRB) && defined(MUX5)
			if(channel & 8)  // Reading channel 0-7 or 8-15?
     828:	89 81       	ldd	r24, Y+1	; 0x01
     82a:	88 2f       	mov	r24, r24
     82c:	90 e0       	ldi	r25, 0x00	; 0
     82e:	88 70       	andi	r24, 0x08	; 8
     830:	99 27       	eor	r25, r25
     832:	89 2b       	or	r24, r25
     834:	51 f0       	breq	.+20     	; 0x84a <__vector_29+0x14a>
				ADCSRB |= (1<<MUX5);
     836:	8b e7       	ldi	r24, 0x7B	; 123
     838:	90 e0       	ldi	r25, 0x00	; 0
     83a:	2b e7       	ldi	r18, 0x7B	; 123
     83c:	30 e0       	ldi	r19, 0x00	; 0
     83e:	f9 01       	movw	r30, r18
     840:	20 81       	ld	r18, Z
     842:	28 60       	ori	r18, 0x08	; 8
     844:	fc 01       	movw	r30, r24
     846:	20 83       	st	Z, r18
     848:	09 c0       	rjmp	.+18     	; 0x85c <__vector_29+0x15c>
			else
				ADCSRB &= ~(1<<MUX5);
     84a:	8b e7       	ldi	r24, 0x7B	; 123
     84c:	90 e0       	ldi	r25, 0x00	; 0
     84e:	2b e7       	ldi	r18, 0x7B	; 123
     850:	30 e0       	ldi	r19, 0x00	; 0
     852:	f9 01       	movw	r30, r18
     854:	20 81       	ld	r18, Z
     856:	27 7f       	andi	r18, 0xF7	; 247
     858:	fc 01       	movw	r30, r24
     85a:	20 83       	st	Z, r18
		#endif
		uint8_t test = (ADMUX & ~(0x1F)) | (channel & 7);
     85c:	8c e7       	ldi	r24, 0x7C	; 124
     85e:	90 e0       	ldi	r25, 0x00	; 0
     860:	fc 01       	movw	r30, r24
     862:	80 81       	ld	r24, Z
     864:	98 2f       	mov	r25, r24
     866:	90 7e       	andi	r25, 0xE0	; 224
     868:	89 81       	ldd	r24, Y+1	; 0x01
     86a:	87 70       	andi	r24, 0x07	; 7
     86c:	89 2b       	or	r24, r25
     86e:	8a 83       	std	Y+2, r24	; 0x02
		//ADMUX = (ADMUX & ~(0x1F)) | (channel & 7);
		ADMUX = test;
     870:	8c e7       	ldi	r24, 0x7C	; 124
     872:	90 e0       	ldi	r25, 0x00	; 0
     874:	2a 81       	ldd	r18, Y+2	; 0x02
     876:	fc 01       	movw	r30, r24
     878:	20 83       	st	Z, r18
	}
	ADCSRA |= (1<<ADSC);  // start next conversion
     87a:	8a e7       	ldi	r24, 0x7A	; 122
     87c:	90 e0       	ldi	r25, 0x00	; 0
     87e:	2a e7       	ldi	r18, 0x7A	; 122
     880:	30 e0       	ldi	r19, 0x00	; 0
     882:	f9 01       	movw	r30, r18
     884:	20 81       	ld	r18, Z
     886:	20 64       	ori	r18, 0x40	; 64
     888:	fc 01       	movw	r30, r24
     88a:	20 83       	st	Z, r18
}
     88c:	0f 90       	pop	r0
     88e:	0f 90       	pop	r0
     890:	df 91       	pop	r29
     892:	cf 91       	pop	r28
     894:	ff 91       	pop	r31
     896:	ef 91       	pop	r30
     898:	9f 91       	pop	r25
     89a:	8f 91       	pop	r24
     89c:	5f 91       	pop	r21
     89e:	4f 91       	pop	r20
     8a0:	3f 91       	pop	r19
     8a2:	2f 91       	pop	r18
     8a4:	0f 90       	pop	r0
     8a6:	00 92 5b 00 	sts	0x005B, r0	; 0x80005b <__TEXT_REGION_LENGTH__+0x70005b>
     8aa:	0f 90       	pop	r0
     8ac:	00 92 5f 00 	sts	0x005F, r0	; 0x80005f <__TEXT_REGION_LENGTH__+0x70005f>
     8b0:	0f 90       	pop	r0
     8b2:	1f 90       	pop	r1
     8b4:	18 95       	reti

000008b6 <main>:
//extern struct TemperatureController tempController[ANALOG_INPUTS];

// uint8_t SelfTestBuffer[64];
// void handleRFID(uint8_t byte, uint8_t *str);
int main(void)
{
     8b6:	cf 93       	push	r28
     8b8:	df 93       	push	r29
     8ba:	cd b7       	in	r28, 0x3d	; 61
     8bc:	de b7       	in	r29, 0x3e	; 62
	
	
	uint32_t tempData;
	register_uart_str_rx_event_callback( parse_uart_data );
     8be:	81 ec       	ldi	r24, 0xC1	; 193
     8c0:	9a e1       	ldi	r25, 0x1A	; 26
     8c2:	1d d0       	rcall	.+58     	; 0x8fe <register_uart_str_rx_event_callback>
	//register_manage_temperature_event_callback( manageTemperatures );
	
	init();
     8c4:	40 dc       	rcall	.-1920   	; 0x146 <init>
	/*
	spi_init();
	PCD_Init();
	
	*/
	offset_calibration();
     8c6:	0e 94 70 1f 	call	0x3ee0	; 0x3ee0 <offset_calibration>
    Filament_measure_timer = 1000;
     8ca:	88 ee       	ldi	r24, 0xE8	; 232
     8cc:	93 e0       	ldi	r25, 0x03	; 3
     8ce:	90 93 9d 07 	sts	0x079D, r25	; 0x80079d <Filament_measure_timer+0x1>
     8d2:	80 93 9c 07 	sts	0x079C, r24	; 0x80079c <Filament_measure_timer>
		if (PICC_ReadCardSerial()){
			Filament_measure_timer;
		}*/
		
		
		UART_RX_STR_EVENT(bufor) ;	// zdarzenie odbiorcze MODBUS UART3
     8d6:	83 eb       	ldi	r24, 0xB3	; 179
     8d8:	98 e0       	ldi	r25, 0x08	; 8
     8da:	24 d0       	rcall	.+72     	; 0x924 <UART_RX_STR_EVENT>
		MANAGE_TEMPETATURE_EVENT();
     8dc:	0e 94 25 1b 	call	0x364a	; 0x364a <MANAGE_TEMPETATURE_EVENT>
		
		if (!Filament_measure_timer)	// wstawic Filament_measure_timer
     8e0:	80 91 9c 07 	lds	r24, 0x079C	; 0x80079c <Filament_measure_timer>
     8e4:	90 91 9d 07 	lds	r25, 0x079D	; 0x80079d <Filament_measure_timer+0x1>
     8e8:	89 2b       	or	r24, r25
     8ea:	41 f4       	brne	.+16     	; 0x8fc <main+0x46>
		{
			
			
			make_tensometer_measure();
     8ec:	0e 94 6c 22 	call	0x44d8	; 0x44d8 <make_tensometer_measure>
			Filament_measure_timer = TENSOMETER_MEASURE_INTERVAL;
     8f0:	88 ee       	ldi	r24, 0xE8	; 232
     8f2:	93 e0       	ldi	r25, 0x03	; 3
     8f4:	90 93 9d 07 	sts	0x079D, r25	; 0x80079d <Filament_measure_timer+0x1>
     8f8:	80 93 9c 07 	sts	0x079C, r24	; 0x80079c <Filament_measure_timer>
				}
				
			}
		}
		*/
    }
     8fc:	ec cf       	rjmp	.-40     	; 0x8d6 <main+0x20>

000008fe <register_uart_str_rx_event_callback>:
				uart_putc(sec);
		  }

	  }
	  return 1;
}
     8fe:	cf 93       	push	r28
     900:	df 93       	push	r29
     902:	1f 92       	push	r1
     904:	1f 92       	push	r1
     906:	cd b7       	in	r28, 0x3d	; 61
     908:	de b7       	in	r29, 0x3e	; 62
     90a:	9a 83       	std	Y+2, r25	; 0x02
     90c:	89 83       	std	Y+1, r24	; 0x01
     90e:	89 81       	ldd	r24, Y+1	; 0x01
     910:	9a 81       	ldd	r25, Y+2	; 0x02
     912:	90 93 ab 07 	sts	0x07AB, r25	; 0x8007ab <uart_rx_str_event_callback+0x1>
     916:	80 93 aa 07 	sts	0x07AA, r24	; 0x8007aa <uart_rx_str_event_callback>
     91a:	0f 90       	pop	r0
     91c:	0f 90       	pop	r0
     91e:	df 91       	pop	r29
     920:	cf 91       	pop	r28
     922:	08 95       	ret

00000924 <UART_RX_STR_EVENT>:
     924:	cf 93       	push	r28
     926:	df 93       	push	r29
     928:	1f 92       	push	r1
     92a:	1f 92       	push	r1
     92c:	cd b7       	in	r28, 0x3d	; 61
     92e:	de b7       	in	r29, 0x3e	; 62
     930:	9a 83       	std	Y+2, r25	; 0x02
     932:	89 83       	std	Y+1, r24	; 0x01
     934:	80 91 dd 07 	lds	r24, 0x07DD	; 0x8007dd <new_line>
     938:	88 23       	and	r24, r24
     93a:	b1 f0       	breq	.+44     	; 0x968 <UART_RX_STR_EVENT+0x44>
     93c:	80 91 aa 07 	lds	r24, 0x07AA	; 0x8007aa <uart_rx_str_event_callback>
     940:	90 91 ab 07 	lds	r25, 0x07AB	; 0x8007ab <uart_rx_str_event_callback+0x1>
     944:	89 2b       	or	r24, r25
     946:	61 f0       	breq	.+24     	; 0x960 <UART_RX_STR_EVENT+0x3c>
     948:	89 81       	ldd	r24, Y+1	; 0x01
     94a:	9a 81       	ldd	r25, Y+2	; 0x02
     94c:	22 d1       	rcall	.+580    	; 0xb92 <uart_get_str>
     94e:	20 91 aa 07 	lds	r18, 0x07AA	; 0x8007aa <uart_rx_str_event_callback>
     952:	30 91 ab 07 	lds	r19, 0x07AB	; 0x8007ab <uart_rx_str_event_callback+0x1>
     956:	89 81       	ldd	r24, Y+1	; 0x01
     958:	9a 81       	ldd	r25, Y+2	; 0x02
     95a:	f9 01       	movw	r30, r18
     95c:	19 95       	eicall
     95e:	04 c0       	rjmp	.+8      	; 0x968 <UART_RX_STR_EVENT+0x44>
     960:	80 91 72 08 	lds	r24, 0x0872	; 0x800872 <UART_RxTail>
     964:	80 93 71 08 	sts	0x0871, r24	; 0x800871 <UART_RxHead>
     968:	0f 90       	pop	r0
     96a:	0f 90       	pop	r0
     96c:	df 91       	pop	r29
     96e:	cf 91       	pop	r28
     970:	08 95       	ret

00000972 <ascii_to_int>:
     972:	cf 93       	push	r28
     974:	df 93       	push	r29
     976:	1f 92       	push	r1
     978:	1f 92       	push	r1
     97a:	cd b7       	in	r28, 0x3d	; 61
     97c:	de b7       	in	r29, 0x3e	; 62
     97e:	8a 83       	std	Y+2, r24	; 0x02
     980:	19 82       	std	Y+1, r1	; 0x01
     982:	8a 81       	ldd	r24, Y+2	; 0x02
     984:	80 33       	cpi	r24, 0x30	; 48
     986:	38 f0       	brcs	.+14     	; 0x996 <ascii_to_int+0x24>
     988:	8a 81       	ldd	r24, Y+2	; 0x02
     98a:	8a 33       	cpi	r24, 0x3A	; 58
     98c:	20 f4       	brcc	.+8      	; 0x996 <ascii_to_int+0x24>
     98e:	8a 81       	ldd	r24, Y+2	; 0x02
     990:	80 53       	subi	r24, 0x30	; 48
     992:	89 83       	std	Y+1, r24	; 0x01
     994:	09 c0       	rjmp	.+18     	; 0x9a8 <ascii_to_int+0x36>
     996:	8a 81       	ldd	r24, Y+2	; 0x02
     998:	81 34       	cpi	r24, 0x41	; 65
     99a:	30 f0       	brcs	.+12     	; 0x9a8 <ascii_to_int+0x36>
     99c:	8a 81       	ldd	r24, Y+2	; 0x02
     99e:	87 34       	cpi	r24, 0x47	; 71
     9a0:	18 f4       	brcc	.+6      	; 0x9a8 <ascii_to_int+0x36>
     9a2:	8a 81       	ldd	r24, Y+2	; 0x02
     9a4:	87 53       	subi	r24, 0x37	; 55
     9a6:	89 83       	std	Y+1, r24	; 0x01
     9a8:	89 81       	ldd	r24, Y+1	; 0x01
     9aa:	0f 90       	pop	r0
     9ac:	0f 90       	pop	r0
     9ae:	df 91       	pop	r29
     9b0:	cf 91       	pop	r28
     9b2:	08 95       	ret

000009b4 <int_to_ascii>:
     9b4:	cf 93       	push	r28
     9b6:	df 93       	push	r29
     9b8:	1f 92       	push	r1
     9ba:	cd b7       	in	r28, 0x3d	; 61
     9bc:	de b7       	in	r29, 0x3e	; 62
     9be:	89 83       	std	Y+1, r24	; 0x01
     9c0:	89 81       	ldd	r24, Y+1	; 0x01
     9c2:	8a 30       	cpi	r24, 0x0A	; 10
     9c4:	20 f4       	brcc	.+8      	; 0x9ce <int_to_ascii+0x1a>
     9c6:	89 81       	ldd	r24, Y+1	; 0x01
     9c8:	80 5d       	subi	r24, 0xD0	; 208
     9ca:	89 83       	std	Y+1, r24	; 0x01
     9cc:	09 c0       	rjmp	.+18     	; 0x9e0 <int_to_ascii+0x2c>
     9ce:	89 81       	ldd	r24, Y+1	; 0x01
     9d0:	8a 30       	cpi	r24, 0x0A	; 10
     9d2:	30 f0       	brcs	.+12     	; 0x9e0 <int_to_ascii+0x2c>
     9d4:	89 81       	ldd	r24, Y+1	; 0x01
     9d6:	80 31       	cpi	r24, 0x10	; 16
     9d8:	18 f4       	brcc	.+6      	; 0x9e0 <int_to_ascii+0x2c>
     9da:	89 81       	ldd	r24, Y+1	; 0x01
     9dc:	89 5c       	subi	r24, 0xC9	; 201
     9de:	89 83       	std	Y+1, r24	; 0x01
     9e0:	89 81       	ldd	r24, Y+1	; 0x01
     9e2:	0f 90       	pop	r0
     9e4:	df 91       	pop	r29
     9e6:	cf 91       	pop	r28
     9e8:	08 95       	ret

000009ea <USARTX_Init>:
     9ea:	cf 93       	push	r28
     9ec:	df 93       	push	r29
     9ee:	cd b7       	in	r28, 0x3d	; 61
     9f0:	de b7       	in	r29, 0x3e	; 62
     9f2:	2a 97       	sbiw	r28, 0x0a	; 10
     9f4:	0f b6       	in	r0, 0x3f	; 63
     9f6:	f8 94       	cli
     9f8:	de bf       	out	0x3e, r29	; 62
     9fa:	0f be       	out	0x3f, r0	; 63
     9fc:	cd bf       	out	0x3d, r28	; 61
     9fe:	6b 83       	std	Y+3, r22	; 0x03
     a00:	7c 83       	std	Y+4, r23	; 0x04
     a02:	8d 83       	std	Y+5, r24	; 0x05
     a04:	9e 83       	std	Y+6, r25	; 0x06
     a06:	80 e4       	ldi	r24, 0x40	; 64
     a08:	92 e4       	ldi	r25, 0x42	; 66
     a0a:	af e0       	ldi	r26, 0x0F	; 15
     a0c:	b0 e0       	ldi	r27, 0x00	; 0
     a0e:	2b 81       	ldd	r18, Y+3	; 0x03
     a10:	3c 81       	ldd	r19, Y+4	; 0x04
     a12:	4d 81       	ldd	r20, Y+5	; 0x05
     a14:	5e 81       	ldd	r21, Y+6	; 0x06
     a16:	bc 01       	movw	r22, r24
     a18:	cd 01       	movw	r24, r26
     a1a:	0e 94 15 2b 	call	0x562a	; 0x562a <__udivmodsi4>
     a1e:	da 01       	movw	r26, r20
     a20:	c9 01       	movw	r24, r18
     a22:	01 97       	sbiw	r24, 0x01	; 1
     a24:	9a 83       	std	Y+2, r25	; 0x02
     a26:	89 83       	std	Y+1, r24	; 0x01
     a28:	85 ed       	ldi	r24, 0xD5	; 213
     a2a:	90 e0       	ldi	r25, 0x00	; 0
     a2c:	29 81       	ldd	r18, Y+1	; 0x01
     a2e:	3a 81       	ldd	r19, Y+2	; 0x02
     a30:	23 2f       	mov	r18, r19
     a32:	33 27       	eor	r19, r19
     a34:	fc 01       	movw	r30, r24
     a36:	20 83       	st	Z, r18
     a38:	84 ed       	ldi	r24, 0xD4	; 212
     a3a:	90 e0       	ldi	r25, 0x00	; 0
     a3c:	29 81       	ldd	r18, Y+1	; 0x01
     a3e:	fc 01       	movw	r30, r24
     a40:	20 83       	st	Z, r18
     a42:	81 ed       	ldi	r24, 0xD1	; 209
     a44:	90 e0       	ldi	r25, 0x00	; 0
     a46:	21 ed       	ldi	r18, 0xD1	; 209
     a48:	30 e0       	ldi	r19, 0x00	; 0
     a4a:	f9 01       	movw	r30, r18
     a4c:	20 81       	ld	r18, Z
     a4e:	28 69       	ori	r18, 0x98	; 152
     a50:	fc 01       	movw	r30, r24
     a52:	20 83       	st	Z, r18
     a54:	82 ed       	ldi	r24, 0xD2	; 210
     a56:	90 e0       	ldi	r25, 0x00	; 0
     a58:	26 e0       	ldi	r18, 0x06	; 6
     a5a:	fc 01       	movw	r30, r24
     a5c:	20 83       	st	Z, r18
     a5e:	2a 96       	adiw	r28, 0x0a	; 10
     a60:	0f b6       	in	r0, 0x3f	; 63
     a62:	f8 94       	cli
     a64:	de bf       	out	0x3e, r29	; 62
     a66:	0f be       	out	0x3f, r0	; 63
     a68:	cd bf       	out	0x3d, r28	; 61
     a6a:	df 91       	pop	r29
     a6c:	cf 91       	pop	r28
     a6e:	08 95       	ret

00000a70 <uart_putc>:
     a70:	cf 93       	push	r28
     a72:	df 93       	push	r29
     a74:	1f 92       	push	r1
     a76:	1f 92       	push	r1
     a78:	cd b7       	in	r28, 0x3d	; 61
     a7a:	de b7       	in	r29, 0x3e	; 62
     a7c:	8a 83       	std	Y+2, r24	; 0x02
     a7e:	80 91 dc 07 	lds	r24, 0x07DC	; 0x8007dc <UART_TxHead>
     a82:	8f 5f       	subi	r24, 0xFF	; 255
     a84:	8f 77       	andi	r24, 0x7F	; 127
     a86:	89 83       	std	Y+1, r24	; 0x01
     a88:	00 00       	nop
     a8a:	80 91 f0 07 	lds	r24, 0x07F0	; 0x8007f0 <UART_TxTail>
     a8e:	99 81       	ldd	r25, Y+1	; 0x01
     a90:	98 17       	cp	r25, r24
     a92:	d9 f3       	breq	.-10     	; 0xa8a <uart_putc+0x1a>
     a94:	89 81       	ldd	r24, Y+1	; 0x01
     a96:	88 2f       	mov	r24, r24
     a98:	90 e0       	ldi	r25, 0x00	; 0
     a9a:	8f 50       	subi	r24, 0x0F	; 15
     a9c:	98 4f       	sbci	r25, 0xF8	; 248
     a9e:	2a 81       	ldd	r18, Y+2	; 0x02
     aa0:	fc 01       	movw	r30, r24
     aa2:	20 83       	st	Z, r18
     aa4:	89 81       	ldd	r24, Y+1	; 0x01
     aa6:	80 93 dc 07 	sts	0x07DC, r24	; 0x8007dc <UART_TxHead>
     aaa:	81 ed       	ldi	r24, 0xD1	; 209
     aac:	90 e0       	ldi	r25, 0x00	; 0
     aae:	21 ed       	ldi	r18, 0xD1	; 209
     ab0:	30 e0       	ldi	r19, 0x00	; 0
     ab2:	f9 01       	movw	r30, r18
     ab4:	20 81       	ld	r18, Z
     ab6:	20 62       	ori	r18, 0x20	; 32
     ab8:	fc 01       	movw	r30, r24
     aba:	20 83       	st	Z, r18
     abc:	0f 90       	pop	r0
     abe:	0f 90       	pop	r0
     ac0:	df 91       	pop	r29
     ac2:	cf 91       	pop	r28
     ac4:	08 95       	ret

00000ac6 <__vector_52>:


// definiujemy procedurê obs³ugi przerwania nadawczego, pobieraj¹c¹ dane z bufora cyklicznego
// i wysylajacego na UART0

ISR( DEF_USARTX_UDRE_VECT)  {
     ac6:	1f 92       	push	r1
     ac8:	0f 92       	push	r0
     aca:	00 90 5f 00 	lds	r0, 0x005F	; 0x80005f <__TEXT_REGION_LENGTH__+0x70005f>
     ace:	0f 92       	push	r0
     ad0:	11 24       	eor	r1, r1
     ad2:	00 90 5b 00 	lds	r0, 0x005B	; 0x80005b <__TEXT_REGION_LENGTH__+0x70005b>
     ad6:	0f 92       	push	r0
     ad8:	2f 93       	push	r18
     ada:	3f 93       	push	r19
     adc:	8f 93       	push	r24
     ade:	9f 93       	push	r25
     ae0:	ef 93       	push	r30
     ae2:	ff 93       	push	r31
     ae4:	cf 93       	push	r28
     ae6:	df 93       	push	r29
     ae8:	cd b7       	in	r28, 0x3d	; 61
     aea:	de b7       	in	r29, 0x3e	; 62
    // sprawdzamy czy indeksy s¹ ró¿ne
    if ( UART_TxHead != UART_TxTail ) {
     aec:	90 91 dc 07 	lds	r25, 0x07DC	; 0x8007dc <UART_TxHead>
     af0:	80 91 f0 07 	lds	r24, 0x07F0	; 0x8007f0 <UART_TxTail>
     af4:	98 17       	cp	r25, r24
     af6:	99 f0       	breq	.+38     	; 0xb1e <__vector_52+0x58>
    	// obliczamy i zapamiêtujemy nowy indeks ogona wê¿a (mo¿e siê zrównaæ z g³ow¹)
    	UART_TxTail = (UART_TxTail + 1) & UART_TX_BUF_MASK;
     af8:	80 91 f0 07 	lds	r24, 0x07F0	; 0x8007f0 <UART_TxTail>
     afc:	8f 5f       	subi	r24, 0xFF	; 255
     afe:	8f 77       	andi	r24, 0x7F	; 127
     b00:	80 93 f0 07 	sts	0x07F0, r24	; 0x8007f0 <UART_TxTail>
    	// zwracamy bajt pobrany z bufora  jako rezultat funkcji
    	DEF_UDRX = UART_TxBuf[UART_TxTail];
     b04:	86 ed       	ldi	r24, 0xD6	; 214
     b06:	90 e0       	ldi	r25, 0x00	; 0
     b08:	20 91 f0 07 	lds	r18, 0x07F0	; 0x8007f0 <UART_TxTail>
     b0c:	22 2f       	mov	r18, r18
     b0e:	30 e0       	ldi	r19, 0x00	; 0
     b10:	2f 50       	subi	r18, 0x0F	; 15
     b12:	38 4f       	sbci	r19, 0xF8	; 248
     b14:	f9 01       	movw	r30, r18
     b16:	20 81       	ld	r18, Z
     b18:	fc 01       	movw	r30, r24
     b1a:	20 83       	st	Z, r18
     b1c:	09 c0       	rjmp	.+18     	; 0xb30 <__vector_52+0x6a>
    } else {
	// zerujemy flagê przerwania wystêpuj¹cego gdy bufor pusty
	DEF_UCSRXB &= ~(1<<DEF_UDRIEX);
     b1e:	81 ed       	ldi	r24, 0xD1	; 209
     b20:	90 e0       	ldi	r25, 0x00	; 0
     b22:	21 ed       	ldi	r18, 0xD1	; 209
     b24:	30 e0       	ldi	r19, 0x00	; 0
     b26:	f9 01       	movw	r30, r18
     b28:	20 81       	ld	r18, Z
     b2a:	2f 7d       	andi	r18, 0xDF	; 223
     b2c:	fc 01       	movw	r30, r24
     b2e:	20 83       	st	Z, r18
    }
}
     b30:	df 91       	pop	r29
     b32:	cf 91       	pop	r28
     b34:	ff 91       	pop	r31
     b36:	ef 91       	pop	r30
     b38:	9f 91       	pop	r25
     b3a:	8f 91       	pop	r24
     b3c:	3f 91       	pop	r19
     b3e:	2f 91       	pop	r18
     b40:	0f 90       	pop	r0
     b42:	00 92 5b 00 	sts	0x005B, r0	; 0x80005b <__TEXT_REGION_LENGTH__+0x70005b>
     b46:	0f 90       	pop	r0
     b48:	00 92 5f 00 	sts	0x005F, r0	; 0x80005f <__TEXT_REGION_LENGTH__+0x70005f>
     b4c:	0f 90       	pop	r0
     b4e:	1f 90       	pop	r1
     b50:	18 95       	reti

00000b52 <uart_getc>:
// ******************************************************************************************
// ************ Funkcje odbieraj¹ca z UART0 do bufora ***************************************
// ******************************************************************************************

// definiujemy funkcjê pobieraj¹c¹ jeden bajt z bufora cyklicznego
int uart_getc(void) {
     b52:	cf 93       	push	r28
     b54:	df 93       	push	r29
     b56:	cd b7       	in	r28, 0x3d	; 61
     b58:	de b7       	in	r29, 0x3e	; 62
	// sprawdzamy czy indeksy s¹ równe
	if ( UART_RxHead == UART_RxTail ) return -1;
     b5a:	90 91 71 08 	lds	r25, 0x0871	; 0x800871 <UART_RxHead>
     b5e:	80 91 72 08 	lds	r24, 0x0872	; 0x800872 <UART_RxTail>
     b62:	98 17       	cp	r25, r24
     b64:	19 f4       	brne	.+6      	; 0xb6c <uart_getc+0x1a>
     b66:	8f ef       	ldi	r24, 0xFF	; 255
     b68:	9f ef       	ldi	r25, 0xFF	; 255
     b6a:	10 c0       	rjmp	.+32     	; 0xb8c <uart_getc+0x3a>

	// obliczamy i zapamiêtujemy nowy indeks ogona wê¿a (mo¿e siê zrównaæ z g³ow¹)
	UART_RxTail = (UART_RxTail + 1) & UART_RX_BUF_MASK;
     b6c:	80 91 72 08 	lds	r24, 0x0872	; 0x800872 <UART_RxTail>
     b70:	8f 5f       	subi	r24, 0xFF	; 255
     b72:	8f 73       	andi	r24, 0x3F	; 63
     b74:	80 93 72 08 	sts	0x0872, r24	; 0x800872 <UART_RxTail>
	// zwracamy bajt pobrany z bufora  jako rezultat funkcji
	return UART_RxBuf[UART_RxTail];
     b78:	80 91 72 08 	lds	r24, 0x0872	; 0x800872 <UART_RxTail>
     b7c:	88 2f       	mov	r24, r24
     b7e:	90 e0       	ldi	r25, 0x00	; 0
     b80:	8d 58       	subi	r24, 0x8D	; 141
     b82:	97 4f       	sbci	r25, 0xF7	; 247
     b84:	fc 01       	movw	r30, r24
     b86:	80 81       	ld	r24, Z
     b88:	88 2f       	mov	r24, r24
     b8a:	90 e0       	ldi	r25, 0x00	; 0
}
     b8c:	df 91       	pop	r29
     b8e:	cf 91       	pop	r28
     b90:	08 95       	ret

00000b92 <uart_get_str>:

char * uart_get_str(char *buf) {
     b92:	ff 92       	push	r15
     b94:	0f 93       	push	r16
     b96:	1f 93       	push	r17
     b98:	cf 93       	push	r28
     b9a:	df 93       	push	r29
     b9c:	cd b7       	in	r28, 0x3d	; 61
     b9e:	de b7       	in	r29, 0x3e	; 62
     ba0:	28 97       	sbiw	r28, 0x08	; 8
     ba2:	0f b6       	in	r0, 0x3f	; 63
     ba4:	f8 94       	cli
     ba6:	de bf       	out	0x3e, r29	; 62
     ba8:	0f be       	out	0x3f, r0	; 63
     baa:	cd bf       	out	0x3d, r28	; 61
     bac:	98 87       	std	Y+8, r25	; 0x08
     bae:	8f 83       	std	Y+7, r24	; 0x07
	char c;
	char * wsk = buf;
     bb0:	8f 81       	ldd	r24, Y+7	; 0x07
     bb2:	98 85       	ldd	r25, Y+8	; 0x08
     bb4:	9d 83       	std	Y+5, r25	; 0x05
     bb6:	8c 83       	std	Y+4, r24	; 0x04
	uint8_t parse_data = 0;
     bb8:	19 82       	std	Y+1, r1	; 0x01
	char data_pair = 0;
     bba:	1a 82       	std	Y+2, r1	; 0x02
	uint8_t buff_index = 0;
     bbc:	1b 82       	std	Y+3, r1	; 0x03
	
	*buf++; //zwiekszamy adres wskaznika na bufor tak aby w pierwszej komorce na koniec wpisac ilosc danych odebranych
     bbe:	8f 81       	ldd	r24, Y+7	; 0x07
     bc0:	98 85       	ldd	r25, Y+8	; 0x08
     bc2:	01 96       	adiw	r24, 0x01	; 1
     bc4:	98 87       	std	Y+8, r25	; 0x08
     bc6:	8f 83       	std	Y+7, r24	; 0x07
	
	if( new_line ) {
     bc8:	80 91 dd 07 	lds	r24, 0x07DD	; 0x8007dd <new_line>
     bcc:	88 23       	and	r24, r24
     bce:	d1 f1       	breq	.+116    	; 0xc44 <uart_get_str+0xb2>
		while( (c = uart_getc()) ) {
     bd0:	2a c0       	rjmp	.+84     	; 0xc26 <uart_get_str+0x94>
			if( (13 == c) || (c < 0) ) break;
     bd2:	8e 81       	ldd	r24, Y+6	; 0x06
     bd4:	8d 30       	cpi	r24, 0x0D	; 13
     bd6:	09 f4       	brne	.+2      	; 0xbda <uart_get_str+0x48>
     bd8:	2b c0       	rjmp	.+86     	; 0xc30 <uart_get_str+0x9e>
			if (parse_data)
     bda:	89 81       	ldd	r24, Y+1	; 0x01
     bdc:	88 23       	and	r24, r24
     bde:	e9 f0       	breq	.+58     	; 0xc1a <uart_get_str+0x88>
			{
				if (data_pair)
     be0:	8a 81       	ldd	r24, Y+2	; 0x02
     be2:	88 23       	and	r24, r24
     be4:	b9 f0       	breq	.+46     	; 0xc14 <uart_get_str+0x82>
				{
					buff_index++;
     be6:	8b 81       	ldd	r24, Y+3	; 0x03
     be8:	8f 5f       	subi	r24, 0xFF	; 255
     bea:	8b 83       	std	Y+3, r24	; 0x03
					*buf++ = (ascii_to_int(data_pair) * 16) + ascii_to_int(c);	//sklejenie pierwszego i drugiego znaku oraz na zakonczenie zwiekszenie wskaznika o 1 wskazujacego na bofor wyjsciowy	
     bec:	0f 81       	ldd	r16, Y+7	; 0x07
     bee:	18 85       	ldd	r17, Y+8	; 0x08
     bf0:	c8 01       	movw	r24, r16
     bf2:	01 96       	adiw	r24, 0x01	; 1
     bf4:	98 87       	std	Y+8, r25	; 0x08
     bf6:	8f 83       	std	Y+7, r24	; 0x07
     bf8:	8a 81       	ldd	r24, Y+2	; 0x02
     bfa:	bb de       	rcall	.-650    	; 0x972 <ascii_to_int>
     bfc:	f8 2e       	mov	r15, r24
     bfe:	ff 0c       	add	r15, r15
     c00:	ff 0c       	add	r15, r15
     c02:	ff 0c       	add	r15, r15
     c04:	ff 0c       	add	r15, r15
     c06:	8e 81       	ldd	r24, Y+6	; 0x06
     c08:	b4 de       	rcall	.-664    	; 0x972 <ascii_to_int>
     c0a:	8f 0d       	add	r24, r15
     c0c:	f8 01       	movw	r30, r16
     c0e:	80 83       	st	Z, r24
					data_pair = 0;				
     c10:	1a 82       	std	Y+2, r1	; 0x02
     c12:	09 c0       	rjmp	.+18     	; 0xc26 <uart_get_str+0x94>
									
				}else{
					data_pair = c;			//pierwszy znak 
     c14:	8e 81       	ldd	r24, Y+6	; 0x06
     c16:	8a 83       	std	Y+2, r24	; 0x02
     c18:	06 c0       	rjmp	.+12     	; 0xc26 <uart_get_str+0x94>
				}			
			}else if (c == FRAME_START) // gdy wykryjemy znak ":" - czyli poczatek ramki rozpoczynamy sklejanie dwoch znakow ascii w jedna wartosc  
     c1a:	8e 81       	ldd	r24, Y+6	; 0x06
     c1c:	8a 33       	cpi	r24, 0x3A	; 58
     c1e:	19 f4       	brne	.+6      	; 0xc26 <uart_get_str+0x94>
			{
				parse_data = 1;
     c20:	81 e0       	ldi	r24, 0x01	; 1
     c22:	89 83       	std	Y+1, r24	; 0x01
				data_pair = 0;
     c24:	1a 82       	std	Y+2, r1	; 0x02
	uint8_t buff_index = 0;
	
	*buf++; //zwiekszamy adres wskaznika na bufor tak aby w pierwszej komorce na koniec wpisac ilosc danych odebranych
	
	if( new_line ) {
		while( (c = uart_getc()) ) {
     c26:	95 df       	rcall	.-214    	; 0xb52 <uart_getc>
     c28:	8e 83       	std	Y+6, r24	; 0x06
     c2a:	8e 81       	ldd	r24, Y+6	; 0x06
     c2c:	88 23       	and	r24, r24
     c2e:	89 f6       	brne	.-94     	; 0xbd2 <uart_get_str+0x40>
				data_pair = 0;
			}
		}
		//gdy skonczylismy obrobke danych to w pierwszej komorce bufora wyjsciowego wpisujemy ilosc danych odebranych 
		//gdy w buforze kolowym nie bylo zadnych danych to wtedy w pierwszej komorce bedzie wpisane 0
		*wsk = buff_index; 
     c30:	8c 81       	ldd	r24, Y+4	; 0x04
     c32:	9d 81       	ldd	r25, Y+5	; 0x05
     c34:	2b 81       	ldd	r18, Y+3	; 0x03
     c36:	fc 01       	movw	r30, r24
     c38:	20 83       	st	Z, r18
		//*buf=0;
		new_line--;
     c3a:	80 91 dd 07 	lds	r24, 0x07DD	; 0x8007dd <new_line>
     c3e:	81 50       	subi	r24, 0x01	; 1
     c40:	80 93 dd 07 	sts	0x07DD, r24	; 0x8007dd <new_line>
	}

	return wsk;
     c44:	8c 81       	ldd	r24, Y+4	; 0x04
     c46:	9d 81       	ldd	r25, Y+5	; 0x05
}
     c48:	28 96       	adiw	r28, 0x08	; 8
     c4a:	0f b6       	in	r0, 0x3f	; 63
     c4c:	f8 94       	cli
     c4e:	de bf       	out	0x3e, r29	; 62
     c50:	0f be       	out	0x3f, r0	; 63
     c52:	cd bf       	out	0x3d, r28	; 61
     c54:	df 91       	pop	r29
     c56:	cf 91       	pop	r28
     c58:	1f 91       	pop	r17
     c5a:	0f 91       	pop	r16
     c5c:	ff 90       	pop	r15
     c5e:	08 95       	ret

00000c60 <__vector_51>:


// definiujemy procedurê obs³ugi przerwania odbiorczego z UART0

ISR( DEF_USARTX_RX_VECT ) {
     c60:	1f 92       	push	r1
     c62:	0f 92       	push	r0
     c64:	00 90 5f 00 	lds	r0, 0x005F	; 0x80005f <__TEXT_REGION_LENGTH__+0x70005f>
     c68:	0f 92       	push	r0
     c6a:	11 24       	eor	r1, r1
     c6c:	00 90 5b 00 	lds	r0, 0x005B	; 0x80005b <__TEXT_REGION_LENGTH__+0x70005b>
     c70:	0f 92       	push	r0
     c72:	0f 93       	push	r16
     c74:	1f 93       	push	r17
     c76:	8f 93       	push	r24
     c78:	9f 93       	push	r25
     c7a:	ef 93       	push	r30
     c7c:	ff 93       	push	r31
     c7e:	cf 93       	push	r28
     c80:	df 93       	push	r29
     c82:	cd b7       	in	r28, 0x3d	; 61
     c84:	de b7       	in	r29, 0x3e	; 62
    register uint8_t tmp_head;
    register char data;
	//static uint8_t buff;
	//static uint8_t bitstart;
	
    data = DEF_UDRX; //pobieramy natychmiast bajt danych z bufora sprzêtowego
     c86:	86 ed       	ldi	r24, 0xD6	; 214
     c88:	90 e0       	ldi	r25, 0x00	; 0
     c8a:	fc 01       	movw	r30, r24
     c8c:	00 81       	ld	r16, Z

    // obliczamy nowy indeks g³owy wê¿a
    tmp_head = ( UART_RxHead + 1) & UART_RX_BUF_MASK;
     c8e:	80 91 71 08 	lds	r24, 0x0871	; 0x800871 <UART_RxHead>
     c92:	8f 5f       	subi	r24, 0xFF	; 255
     c94:	18 2f       	mov	r17, r24
     c96:	1f 73       	andi	r17, 0x3F	; 63

    // sprawdzamy, czy w¹¿ nie zacznie zjadaæ w³asnego ogona
    if ( tmp_head == UART_RxTail ) {
     c98:	80 91 72 08 	lds	r24, 0x0872	; 0x800872 <UART_RxTail>
     c9c:	18 17       	cp	r17, r24
     c9e:	29 f4       	brne	.+10     	; 0xcaa <__vector_51+0x4a>
	    // tutaj mo¿emy w jaki wygodny dla nas sposób obs³u¿yæ  b³¹d spowodowany
	    // prób¹ nadpisania danych w buforze, mog³oby dojæ do sytuacji gdzie
	    // nasz w¹¿ zacz¹³by zjadaæ w³asny ogon
	    UART_RxHead = UART_RxTail;
     ca0:	80 91 72 08 	lds	r24, 0x0872	; 0x800872 <UART_RxTail>
     ca4:	80 93 71 08 	sts	0x0871, r24	; 0x800871 <UART_RxHead>
     ca8:	1a c0       	rjmp	.+52     	; 0xcde <__vector_51+0x7e>
	} else {
   		switch( data ) {
     caa:	80 2f       	mov	r24, r16
     cac:	90 e0       	ldi	r25, 0x00	; 0
     cae:	8a 30       	cpi	r24, 0x0A	; 10
     cb0:	91 05       	cpc	r25, r1
     cb2:	a1 f0       	breq	.+40     	; 0xcdc <__vector_51+0x7c>
     cb4:	8d 30       	cpi	r24, 0x0D	; 13
     cb6:	91 05       	cpc	r25, r1
     cb8:	19 f0       	breq	.+6      	; 0xcc0 <__vector_51+0x60>
     cba:	89 2b       	or	r24, r25
     cbc:	79 f0       	breq	.+30     	; 0xcdc <__vector_51+0x7c>
     cbe:	05 c0       	rjmp	.+10     	; 0xcca <__vector_51+0x6a>
    			case 0:					// ignorujemy bajt = 0
    			case 10: break;			// ignorujemy znak LF
    			case 13: new_line++;	// sygnalizujemy obecnoæ kolejnej linii w buforze
     cc0:	80 91 dd 07 	lds	r24, 0x07DD	; 0x8007dd <new_line>
     cc4:	8f 5f       	subi	r24, 0xFF	; 255
     cc6:	80 93 dd 07 	sts	0x07DD, r24	; 0x8007dd <new_line>
    			default : UART_RxHead = tmp_head; UART_RxBuf[tmp_head] = data;
     cca:	10 93 71 08 	sts	0x0871, r17	; 0x800871 <UART_RxHead>
     cce:	81 2f       	mov	r24, r17
     cd0:	90 e0       	ldi	r25, 0x00	; 0
     cd2:	8d 58       	subi	r24, 0x8D	; 141
     cd4:	97 4f       	sbci	r25, 0xF7	; 247
     cd6:	fc 01       	movw	r30, r24
     cd8:	00 83       	st	Z, r16
     cda:	01 c0       	rjmp	.+2      	; 0xcde <__vector_51+0x7e>
	    // nasz w¹¿ zacz¹³by zjadaæ w³asny ogon
	    UART_RxHead = UART_RxTail;
	} else {
   		switch( data ) {
    			case 0:					// ignorujemy bajt = 0
    			case 10: break;			// ignorujemy znak LF
     cdc:	00 00       	nop
    			case 13: new_line++;	// sygnalizujemy obecnoæ kolejnej linii w buforze
    			default : UART_RxHead = tmp_head; UART_RxBuf[tmp_head] = data;
    		}
    }	
}
     cde:	df 91       	pop	r29
     ce0:	cf 91       	pop	r28
     ce2:	ff 91       	pop	r31
     ce4:	ef 91       	pop	r30
     ce6:	9f 91       	pop	r25
     ce8:	8f 91       	pop	r24
     cea:	1f 91       	pop	r17
     cec:	0f 91       	pop	r16
     cee:	0f 90       	pop	r0
     cf0:	00 92 5b 00 	sts	0x005B, r0	; 0x80005b <__TEXT_REGION_LENGTH__+0x70005b>
     cf4:	0f 90       	pop	r0
     cf6:	00 92 5f 00 	sts	0x005F, r0	; 0x80005f <__TEXT_REGION_LENGTH__+0x70005f>
     cfa:	0f 90       	pop	r0
     cfc:	1f 90       	pop	r1
     cfe:	18 95       	reti

00000d00 <calculate_LRC>:
	uart_puts(s);
	uart_putFloat(data, digits);
	uart_putc(CR);
	uart_putc(LF);
	delay_transmision(2);
}
     d00:	cf 93       	push	r28
     d02:	df 93       	push	r29
     d04:	00 d0       	rcall	.+0      	; 0xd06 <calculate_LRC+0x6>
     d06:	1f 92       	push	r1
     d08:	1f 92       	push	r1
     d0a:	cd b7       	in	r28, 0x3d	; 61
     d0c:	de b7       	in	r29, 0x3e	; 62
     d0e:	9c 83       	std	Y+4, r25	; 0x04
     d10:	8b 83       	std	Y+3, r24	; 0x03
     d12:	6d 83       	std	Y+5, r22	; 0x05
     d14:	19 82       	std	Y+1, r1	; 0x01
     d16:	81 e0       	ldi	r24, 0x01	; 1
     d18:	8a 83       	std	Y+2, r24	; 0x02
     d1a:	0f c0       	rjmp	.+30     	; 0xd3a <calculate_LRC+0x3a>
     d1c:	8a 81       	ldd	r24, Y+2	; 0x02
     d1e:	88 2f       	mov	r24, r24
     d20:	90 e0       	ldi	r25, 0x00	; 0
     d22:	2b 81       	ldd	r18, Y+3	; 0x03
     d24:	3c 81       	ldd	r19, Y+4	; 0x04
     d26:	82 0f       	add	r24, r18
     d28:	93 1f       	adc	r25, r19
     d2a:	fc 01       	movw	r30, r24
     d2c:	80 81       	ld	r24, Z
     d2e:	99 81       	ldd	r25, Y+1	; 0x01
     d30:	89 0f       	add	r24, r25
     d32:	89 83       	std	Y+1, r24	; 0x01
     d34:	8a 81       	ldd	r24, Y+2	; 0x02
     d36:	8f 5f       	subi	r24, 0xFF	; 255
     d38:	8a 83       	std	Y+2, r24	; 0x02
     d3a:	9a 81       	ldd	r25, Y+2	; 0x02
     d3c:	8d 81       	ldd	r24, Y+5	; 0x05
     d3e:	98 17       	cp	r25, r24
     d40:	68 f3       	brcs	.-38     	; 0xd1c <calculate_LRC+0x1c>
     d42:	89 81       	ldd	r24, Y+1	; 0x01
     d44:	81 95       	neg	r24
     d46:	0f 90       	pop	r0
     d48:	0f 90       	pop	r0
     d4a:	0f 90       	pop	r0
     d4c:	0f 90       	pop	r0
     d4e:	0f 90       	pop	r0
     d50:	df 91       	pop	r29
     d52:	cf 91       	pop	r28
     d54:	08 95       	ret

00000d56 <delay_transmision>:
     d56:	cf 93       	push	r28
     d58:	df 93       	push	r29
     d5a:	00 d0       	rcall	.+0      	; 0xd5c <delay_transmision+0x6>
     d5c:	00 d0       	rcall	.+0      	; 0xd5e <delay_transmision+0x8>
     d5e:	cd b7       	in	r28, 0x3d	; 61
     d60:	de b7       	in	r29, 0x3e	; 62
     d62:	9e 83       	std	Y+6, r25	; 0x06
     d64:	8d 83       	std	Y+5, r24	; 0x05
     d66:	8d 81       	ldd	r24, Y+5	; 0x05
     d68:	9e 81       	ldd	r25, Y+6	; 0x06
     d6a:	9c 01       	movw	r18, r24
     d6c:	40 e0       	ldi	r20, 0x00	; 0
     d6e:	50 e0       	ldi	r21, 0x00	; 0
     d70:	80 91 94 07 	lds	r24, 0x0794	; 0x800794 <__data_end>
     d74:	90 91 95 07 	lds	r25, 0x0795	; 0x800795 <__data_end+0x1>
     d78:	a0 91 96 07 	lds	r26, 0x0796	; 0x800796 <__data_end+0x2>
     d7c:	b0 91 97 07 	lds	r27, 0x0797	; 0x800797 <__data_end+0x3>
     d80:	82 0f       	add	r24, r18
     d82:	93 1f       	adc	r25, r19
     d84:	a4 1f       	adc	r26, r20
     d86:	b5 1f       	adc	r27, r21
     d88:	89 83       	std	Y+1, r24	; 0x01
     d8a:	9a 83       	std	Y+2, r25	; 0x02
     d8c:	ab 83       	std	Y+3, r26	; 0x03
     d8e:	bc 83       	std	Y+4, r27	; 0x04
     d90:	00 00       	nop
     d92:	29 81       	ldd	r18, Y+1	; 0x01
     d94:	3a 81       	ldd	r19, Y+2	; 0x02
     d96:	4b 81       	ldd	r20, Y+3	; 0x03
     d98:	5c 81       	ldd	r21, Y+4	; 0x04
     d9a:	80 91 94 07 	lds	r24, 0x0794	; 0x800794 <__data_end>
     d9e:	90 91 95 07 	lds	r25, 0x0795	; 0x800795 <__data_end+0x1>
     da2:	a0 91 96 07 	lds	r26, 0x0796	; 0x800796 <__data_end+0x2>
     da6:	b0 91 97 07 	lds	r27, 0x0797	; 0x800797 <__data_end+0x3>
     daa:	82 17       	cp	r24, r18
     dac:	93 07       	cpc	r25, r19
     dae:	a4 07       	cpc	r26, r20
     db0:	b5 07       	cpc	r27, r21
     db2:	78 f3       	brcs	.-34     	; 0xd92 <delay_transmision+0x3c>
     db4:	26 96       	adiw	r28, 0x06	; 6
     db6:	0f b6       	in	r0, 0x3f	; 63
     db8:	f8 94       	cli
     dba:	de bf       	out	0x3e, r29	; 62
     dbc:	0f be       	out	0x3f, r0	; 63
     dbe:	cd bf       	out	0x3d, r28	; 61
     dc0:	df 91       	pop	r29
     dc2:	cf 91       	pop	r28
     dc4:	08 95       	ret

00000dc6 <mod_send_ascii>:
     dc6:	cf 93       	push	r28
     dc8:	df 93       	push	r29
     dca:	00 d0       	rcall	.+0      	; 0xdcc <mod_send_ascii+0x6>
     dcc:	cd b7       	in	r28, 0x3d	; 61
     dce:	de b7       	in	r29, 0x3e	; 62
     dd0:	8b 83       	std	Y+3, r24	; 0x03
     dd2:	8b 81       	ldd	r24, Y+3	; 0x03
     dd4:	82 95       	swap	r24
     dd6:	8f 70       	andi	r24, 0x0F	; 15
     dd8:	89 83       	std	Y+1, r24	; 0x01
     dda:	99 81       	ldd	r25, Y+1	; 0x01
     ddc:	80 ef       	ldi	r24, 0xF0	; 240
     dde:	98 9f       	mul	r25, r24
     de0:	90 2d       	mov	r25, r0
     de2:	11 24       	eor	r1, r1
     de4:	8b 81       	ldd	r24, Y+3	; 0x03
     de6:	89 0f       	add	r24, r25
     de8:	8a 83       	std	Y+2, r24	; 0x02
     dea:	89 81       	ldd	r24, Y+1	; 0x01
     dec:	e3 dd       	rcall	.-1082   	; 0x9b4 <int_to_ascii>
     dee:	89 83       	std	Y+1, r24	; 0x01
     df0:	8a 81       	ldd	r24, Y+2	; 0x02
     df2:	e0 dd       	rcall	.-1088   	; 0x9b4 <int_to_ascii>
     df4:	8a 83       	std	Y+2, r24	; 0x02
     df6:	89 81       	ldd	r24, Y+1	; 0x01
     df8:	3b de       	rcall	.-906    	; 0xa70 <uart_putc>
     dfa:	8a 81       	ldd	r24, Y+2	; 0x02
     dfc:	39 de       	rcall	.-910    	; 0xa70 <uart_putc>
     dfe:	0f 90       	pop	r0
     e00:	0f 90       	pop	r0
     e02:	0f 90       	pop	r0
     e04:	df 91       	pop	r29
     e06:	cf 91       	pop	r28
     e08:	08 95       	ret

00000e0a <modbus_puts>:
     e0a:	1f 93       	push	r17
     e0c:	cf 93       	push	r28
     e0e:	df 93       	push	r29
     e10:	00 d0       	rcall	.+0      	; 0xe12 <modbus_puts+0x8>
     e12:	cd b7       	in	r28, 0x3d	; 61
     e14:	de b7       	in	r29, 0x3e	; 62
     e16:	9b 83       	std	Y+3, r25	; 0x03
     e18:	8a 83       	std	Y+2, r24	; 0x02
     e1a:	8a e3       	ldi	r24, 0x3A	; 58
     e1c:	29 de       	rcall	.-942    	; 0xa70 <uart_putc>
     e1e:	19 82       	std	Y+1, r1	; 0x01
     e20:	0f c0       	rjmp	.+30     	; 0xe40 <modbus_puts+0x36>
     e22:	89 81       	ldd	r24, Y+1	; 0x01
     e24:	88 2f       	mov	r24, r24
     e26:	90 e0       	ldi	r25, 0x00	; 0
     e28:	01 96       	adiw	r24, 0x01	; 1
     e2a:	2a 81       	ldd	r18, Y+2	; 0x02
     e2c:	3b 81       	ldd	r19, Y+3	; 0x03
     e2e:	82 0f       	add	r24, r18
     e30:	93 1f       	adc	r25, r19
     e32:	fc 01       	movw	r30, r24
     e34:	10 81       	ld	r17, Z
     e36:	81 2f       	mov	r24, r17
     e38:	c6 df       	rcall	.-116    	; 0xdc6 <mod_send_ascii>
     e3a:	89 81       	ldd	r24, Y+1	; 0x01
     e3c:	8f 5f       	subi	r24, 0xFF	; 255
     e3e:	89 83       	std	Y+1, r24	; 0x01
     e40:	8a 81       	ldd	r24, Y+2	; 0x02
     e42:	9b 81       	ldd	r25, Y+3	; 0x03
     e44:	fc 01       	movw	r30, r24
     e46:	90 81       	ld	r25, Z
     e48:	89 81       	ldd	r24, Y+1	; 0x01
     e4a:	89 17       	cp	r24, r25
     e4c:	50 f3       	brcs	.-44     	; 0xe22 <modbus_puts+0x18>
     e4e:	8d e0       	ldi	r24, 0x0D	; 13
     e50:	0f de       	rcall	.-994    	; 0xa70 <uart_putc>
     e52:	8a e0       	ldi	r24, 0x0A	; 10
     e54:	0d de       	rcall	.-998    	; 0xa70 <uart_putc>
     e56:	82 e0       	ldi	r24, 0x02	; 2
     e58:	90 e0       	ldi	r25, 0x00	; 0
     e5a:	7d df       	rcall	.-262    	; 0xd56 <delay_transmision>
     e5c:	0f 90       	pop	r0
     e5e:	0f 90       	pop	r0
     e60:	0f 90       	pop	r0
     e62:	df 91       	pop	r29
     e64:	cf 91       	pop	r28
     e66:	1f 91       	pop	r17
     e68:	08 95       	ret

00000e6a <mod_write_single_register>:

//void mod_send_reset_command(char *data){
	
//}
int8_t mod_write_single_register(char *data){
     e6a:	cf 93       	push	r28
     e6c:	df 93       	push	r29
     e6e:	00 d0       	rcall	.+0      	; 0xe70 <mod_write_single_register+0x6>
     e70:	00 d0       	rcall	.+0      	; 0xe72 <mod_write_single_register+0x8>
     e72:	cd b7       	in	r28, 0x3d	; 61
     e74:	de b7       	in	r29, 0x3e	; 62
     e76:	9e 83       	std	Y+6, r25	; 0x06
     e78:	8d 83       	std	Y+5, r24	; 0x05
	const uint16_t write_value = (data[(data[0]-2)]*256+data[(data[0]-1)]); 
     e7a:	8d 81       	ldd	r24, Y+5	; 0x05
     e7c:	9e 81       	ldd	r25, Y+6	; 0x06
     e7e:	fc 01       	movw	r30, r24
     e80:	80 81       	ld	r24, Z
     e82:	88 2f       	mov	r24, r24
     e84:	90 e0       	ldi	r25, 0x00	; 0
     e86:	02 97       	sbiw	r24, 0x02	; 2
     e88:	2d 81       	ldd	r18, Y+5	; 0x05
     e8a:	3e 81       	ldd	r19, Y+6	; 0x06
     e8c:	82 0f       	add	r24, r18
     e8e:	93 1f       	adc	r25, r19
     e90:	fc 01       	movw	r30, r24
     e92:	80 81       	ld	r24, Z
     e94:	88 2f       	mov	r24, r24
     e96:	90 e0       	ldi	r25, 0x00	; 0
     e98:	38 2f       	mov	r19, r24
     e9a:	22 27       	eor	r18, r18
     e9c:	8d 81       	ldd	r24, Y+5	; 0x05
     e9e:	9e 81       	ldd	r25, Y+6	; 0x06
     ea0:	fc 01       	movw	r30, r24
     ea2:	80 81       	ld	r24, Z
     ea4:	88 2f       	mov	r24, r24
     ea6:	90 e0       	ldi	r25, 0x00	; 0
     ea8:	01 97       	sbiw	r24, 0x01	; 1
     eaa:	4d 81       	ldd	r20, Y+5	; 0x05
     eac:	5e 81       	ldd	r21, Y+6	; 0x06
     eae:	84 0f       	add	r24, r20
     eb0:	95 1f       	adc	r25, r21
     eb2:	fc 01       	movw	r30, r24
     eb4:	80 81       	ld	r24, Z
     eb6:	88 2f       	mov	r24, r24
     eb8:	90 e0       	ldi	r25, 0x00	; 0
     eba:	82 0f       	add	r24, r18
     ebc:	93 1f       	adc	r25, r19
     ebe:	9a 83       	std	Y+2, r25	; 0x02
     ec0:	89 83       	std	Y+1, r24	; 0x01
	const uint16_t address_register = data[DATA_POS]*256+data[DATA_POS+1];
     ec2:	8d 81       	ldd	r24, Y+5	; 0x05
     ec4:	9e 81       	ldd	r25, Y+6	; 0x06
     ec6:	03 96       	adiw	r24, 0x03	; 3
     ec8:	fc 01       	movw	r30, r24
     eca:	80 81       	ld	r24, Z
     ecc:	88 2f       	mov	r24, r24
     ece:	90 e0       	ldi	r25, 0x00	; 0
     ed0:	38 2f       	mov	r19, r24
     ed2:	22 27       	eor	r18, r18
     ed4:	8d 81       	ldd	r24, Y+5	; 0x05
     ed6:	9e 81       	ldd	r25, Y+6	; 0x06
     ed8:	04 96       	adiw	r24, 0x04	; 4
     eda:	fc 01       	movw	r30, r24
     edc:	80 81       	ld	r24, Z
     ede:	88 2f       	mov	r24, r24
     ee0:	90 e0       	ldi	r25, 0x00	; 0
     ee2:	82 0f       	add	r24, r18
     ee4:	93 1f       	adc	r25, r19
     ee6:	9c 83       	std	Y+4, r25	; 0x04
     ee8:	8b 83       	std	Y+3, r24	; 0x03
	switch(address_register){
     eea:	8b 81       	ldd	r24, Y+3	; 0x03
     eec:	9c 81       	ldd	r25, Y+4	; 0x04
     eee:	81 31       	cpi	r24, 0x11	; 17
     ef0:	f4 e0       	ldi	r31, 0x04	; 4
     ef2:	9f 07       	cpc	r25, r31
     ef4:	09 f4       	brne	.+2      	; 0xef8 <mod_write_single_register+0x8e>
     ef6:	cd c4       	rjmp	.+2458   	; 0x1892 <mod_write_single_register+0xa28>
     ef8:	82 31       	cpi	r24, 0x12	; 18
     efa:	24 e0       	ldi	r18, 0x04	; 4
     efc:	92 07       	cpc	r25, r18
     efe:	08 f0       	brcs	.+2      	; 0xf02 <mod_write_single_register+0x98>
     f00:	c5 c0       	rjmp	.+394    	; 0x108c <mod_write_single_register+0x222>
     f02:	89 3f       	cpi	r24, 0xF9	; 249
     f04:	e3 e0       	ldi	r30, 0x03	; 3
     f06:	9e 07       	cpc	r25, r30
     f08:	09 f4       	brne	.+2      	; 0xf0c <mod_write_single_register+0xa2>
     f0a:	ad c2       	rjmp	.+1370   	; 0x1466 <mod_write_single_register+0x5fc>
     f0c:	8a 3f       	cpi	r24, 0xFA	; 250
     f0e:	f3 e0       	ldi	r31, 0x03	; 3
     f10:	9f 07       	cpc	r25, r31
     f12:	08 f0       	brcs	.+2      	; 0xf16 <mod_write_single_register+0xac>
     f14:	5f c0       	rjmp	.+190    	; 0xfd4 <mod_write_single_register+0x16a>
     f16:	8e 3e       	cpi	r24, 0xEE	; 238
     f18:	23 e0       	ldi	r18, 0x03	; 3
     f1a:	92 07       	cpc	r25, r18
     f1c:	09 f4       	brne	.+2      	; 0xf20 <mod_write_single_register+0xb6>
     f1e:	31 c2       	rjmp	.+1122   	; 0x1382 <mod_write_single_register+0x518>
     f20:	8f 3e       	cpi	r24, 0xEF	; 239
     f22:	e3 e0       	ldi	r30, 0x03	; 3
     f24:	9e 07       	cpc	r25, r30
     f26:	50 f5       	brcc	.+84     	; 0xf7c <mod_write_single_register+0x112>
     f28:	89 3e       	cpi	r24, 0xE9	; 233
     f2a:	f3 e0       	ldi	r31, 0x03	; 3
     f2c:	9f 07       	cpc	r25, r31
     f2e:	09 f4       	brne	.+2      	; 0xf32 <mod_write_single_register+0xc8>
     f30:	c6 c1       	rjmp	.+908    	; 0x12be <mod_write_single_register+0x454>
     f32:	8a 3e       	cpi	r24, 0xEA	; 234
     f34:	23 e0       	ldi	r18, 0x03	; 3
     f36:	92 07       	cpc	r25, r18
     f38:	68 f4       	brcc	.+26     	; 0xf54 <mod_write_single_register+0xea>
     f3a:	84 36       	cpi	r24, 0x64	; 100
     f3c:	91 05       	cpc	r25, r1
     f3e:	09 f4       	brne	.+2      	; 0xf42 <mod_write_single_register+0xd8>
     f40:	97 c1       	rjmp	.+814    	; 0x1270 <mod_write_single_register+0x406>
     f42:	88 3e       	cpi	r24, 0xE8	; 232
     f44:	e3 e0       	ldi	r30, 0x03	; 3
     f46:	9e 07       	cpc	r25, r30
     f48:	09 f4       	brne	.+2      	; 0xf4c <mod_write_single_register+0xe2>
     f4a:	b5 c1       	rjmp	.+874    	; 0x12b6 <mod_write_single_register+0x44c>
     f4c:	01 97       	sbiw	r24, 0x01	; 1
     f4e:	09 f4       	brne	.+2      	; 0xf52 <mod_write_single_register+0xe8>
     f50:	5f c1       	rjmp	.+702    	; 0x1210 <mod_write_single_register+0x3a6>
     f52:	61 c6       	rjmp	.+3266   	; 0x1c16 <mod_write_single_register+0xdac>
     f54:	8b 3e       	cpi	r24, 0xEB	; 235
     f56:	f3 e0       	ldi	r31, 0x03	; 3
     f58:	9f 07       	cpc	r25, r31
     f5a:	09 f4       	brne	.+2      	; 0xf5e <mod_write_single_register+0xf4>
     f5c:	d2 c1       	rjmp	.+932    	; 0x1302 <mod_write_single_register+0x498>
     f5e:	8b 3e       	cpi	r24, 0xEB	; 235
     f60:	23 e0       	ldi	r18, 0x03	; 3
     f62:	92 07       	cpc	r25, r18
     f64:	08 f4       	brcc	.+2      	; 0xf68 <mod_write_single_register+0xfe>
     f66:	af c1       	rjmp	.+862    	; 0x12c6 <mod_write_single_register+0x45c>
     f68:	8c 3e       	cpi	r24, 0xEC	; 236
     f6a:	e3 e0       	ldi	r30, 0x03	; 3
     f6c:	9e 07       	cpc	r25, r30
     f6e:	09 f4       	brne	.+2      	; 0xf72 <mod_write_single_register+0x108>
     f70:	e6 c1       	rjmp	.+972    	; 0x133e <mod_write_single_register+0x4d4>
     f72:	8d 3e       	cpi	r24, 0xED	; 237
     f74:	93 40       	sbci	r25, 0x03	; 3
     f76:	09 f4       	brne	.+2      	; 0xf7a <mod_write_single_register+0x110>
     f78:	00 c2       	rjmp	.+1024   	; 0x137a <mod_write_single_register+0x510>
     f7a:	4d c6       	rjmp	.+3226   	; 0x1c16 <mod_write_single_register+0xdac>
     f7c:	84 3f       	cpi	r24, 0xF4	; 244
     f7e:	23 e0       	ldi	r18, 0x03	; 3
     f80:	92 07       	cpc	r25, r18
     f82:	09 f4       	brne	.+2      	; 0xf86 <mod_write_single_register+0x11c>
     f84:	0e c2       	rjmp	.+1052   	; 0x13a2 <mod_write_single_register+0x538>
     f86:	85 3f       	cpi	r24, 0xF5	; 245
     f88:	e3 e0       	ldi	r30, 0x03	; 3
     f8a:	9e 07       	cpc	r25, r30
     f8c:	78 f4       	brcc	.+30     	; 0xfac <mod_write_single_register+0x142>
     f8e:	82 3f       	cpi	r24, 0xF2	; 242
     f90:	f3 e0       	ldi	r31, 0x03	; 3
     f92:	9f 07       	cpc	r25, r31
     f94:	09 f4       	brne	.+2      	; 0xf98 <mod_write_single_register+0x12e>
     f96:	fd c1       	rjmp	.+1018   	; 0x1392 <mod_write_single_register+0x528>
     f98:	83 3f       	cpi	r24, 0xF3	; 243
     f9a:	23 e0       	ldi	r18, 0x03	; 3
     f9c:	92 07       	cpc	r25, r18
     f9e:	08 f0       	brcs	.+2      	; 0xfa2 <mod_write_single_register+0x138>
     fa0:	fc c1       	rjmp	.+1016   	; 0x139a <mod_write_single_register+0x530>
     fa2:	8f 3e       	cpi	r24, 0xEF	; 239
     fa4:	93 40       	sbci	r25, 0x03	; 3
     fa6:	09 f4       	brne	.+2      	; 0xfaa <mod_write_single_register+0x140>
     fa8:	f0 c1       	rjmp	.+992    	; 0x138a <mod_write_single_register+0x520>
     faa:	35 c6       	rjmp	.+3178   	; 0x1c16 <mod_write_single_register+0xdac>
     fac:	86 3f       	cpi	r24, 0xF6	; 246
     fae:	f3 e0       	ldi	r31, 0x03	; 3
     fb0:	9f 07       	cpc	r25, r31
     fb2:	09 f4       	brne	.+2      	; 0xfb6 <mod_write_single_register+0x14c>
     fb4:	32 c2       	rjmp	.+1124   	; 0x141a <mod_write_single_register+0x5b0>
     fb6:	86 3f       	cpi	r24, 0xF6	; 246
     fb8:	23 e0       	ldi	r18, 0x03	; 3
     fba:	92 07       	cpc	r25, r18
     fbc:	08 f4       	brcc	.+2      	; 0xfc0 <mod_write_single_register+0x156>
     fbe:	0f c2       	rjmp	.+1054   	; 0x13de <mod_write_single_register+0x574>
     fc0:	87 3f       	cpi	r24, 0xF7	; 247
     fc2:	e3 e0       	ldi	r30, 0x03	; 3
     fc4:	9e 07       	cpc	r25, r30
     fc6:	09 f4       	brne	.+2      	; 0xfca <mod_write_single_register+0x160>
     fc8:	46 c2       	rjmp	.+1164   	; 0x1456 <mod_write_single_register+0x5ec>
     fca:	88 3f       	cpi	r24, 0xF8	; 248
     fcc:	93 40       	sbci	r25, 0x03	; 3
     fce:	09 f4       	brne	.+2      	; 0xfd2 <mod_write_single_register+0x168>
     fd0:	46 c2       	rjmp	.+1164   	; 0x145e <mod_write_single_register+0x5f4>
     fd2:	21 c6       	rjmp	.+3138   	; 0x1c16 <mod_write_single_register+0xdac>
     fd4:	86 30       	cpi	r24, 0x06	; 6
     fd6:	24 e0       	ldi	r18, 0x04	; 4
     fd8:	92 07       	cpc	r25, r18
     fda:	09 f4       	brne	.+2      	; 0xfde <mod_write_single_register+0x174>
     fdc:	e8 c3       	rjmp	.+2000   	; 0x17ae <mod_write_single_register+0x944>
     fde:	87 30       	cpi	r24, 0x07	; 7
     fe0:	e4 e0       	ldi	r30, 0x04	; 4
     fe2:	9e 07       	cpc	r25, r30
     fe4:	60 f5       	brcc	.+88     	; 0x103e <mod_write_single_register+0x1d4>
     fe6:	8f 3f       	cpi	r24, 0xFF	; 255
     fe8:	f3 e0       	ldi	r31, 0x03	; 3
     fea:	9f 07       	cpc	r25, r31
     fec:	09 f4       	brne	.+2      	; 0xff0 <mod_write_single_register+0x186>
     fee:	ce c2       	rjmp	.+1436   	; 0x158c <mod_write_single_register+0x722>
     ff0:	81 15       	cp	r24, r1
     ff2:	24 e0       	ldi	r18, 0x04	; 4
     ff4:	92 07       	cpc	r25, r18
     ff6:	78 f4       	brcc	.+30     	; 0x1016 <mod_write_single_register+0x1ac>
     ff8:	8d 3f       	cpi	r24, 0xFD	; 253
     ffa:	e3 e0       	ldi	r30, 0x03	; 3
     ffc:	9e 07       	cpc	r25, r30
     ffe:	09 f4       	brne	.+2      	; 0x1002 <mod_write_single_register+0x198>
    1000:	43 c2       	rjmp	.+1158   	; 0x1488 <mod_write_single_register+0x61e>
    1002:	8e 3f       	cpi	r24, 0xFE	; 254
    1004:	f3 e0       	ldi	r31, 0x03	; 3
    1006:	9f 07       	cpc	r25, r31
    1008:	08 f0       	brcs	.+2      	; 0x100c <mod_write_single_register+0x1a2>
    100a:	4b c2       	rjmp	.+1174   	; 0x14a2 <mod_write_single_register+0x638>
    100c:	8c 3f       	cpi	r24, 0xFC	; 252
    100e:	93 40       	sbci	r25, 0x03	; 3
    1010:	09 f4       	brne	.+2      	; 0x1014 <mod_write_single_register+0x1aa>
    1012:	2d c2       	rjmp	.+1114   	; 0x146e <mod_write_single_register+0x604>
    1014:	00 c6       	rjmp	.+3072   	; 0x1c16 <mod_write_single_register+0xdac>
    1016:	81 30       	cpi	r24, 0x01	; 1
    1018:	e4 e0       	ldi	r30, 0x04	; 4
    101a:	9e 07       	cpc	r25, r30
    101c:	09 f4       	brne	.+2      	; 0x1020 <mod_write_single_register+0x1b6>
    101e:	a0 c3       	rjmp	.+1856   	; 0x1760 <mod_write_single_register+0x8f6>
    1020:	81 30       	cpi	r24, 0x01	; 1
    1022:	f4 e0       	ldi	r31, 0x04	; 4
    1024:	9f 07       	cpc	r25, r31
    1026:	08 f4       	brcc	.+2      	; 0x102a <mod_write_single_register+0x1c0>
    1028:	26 c3       	rjmp	.+1612   	; 0x1676 <mod_write_single_register+0x80c>
    102a:	82 30       	cpi	r24, 0x02	; 2
    102c:	24 e0       	ldi	r18, 0x04	; 4
    102e:	92 07       	cpc	r25, r18
    1030:	09 f4       	brne	.+2      	; 0x1034 <mod_write_single_register+0x1ca>
    1032:	a3 c3       	rjmp	.+1862   	; 0x177a <mod_write_single_register+0x910>
    1034:	83 30       	cpi	r24, 0x03	; 3
    1036:	94 40       	sbci	r25, 0x04	; 4
    1038:	09 f4       	brne	.+2      	; 0x103c <mod_write_single_register+0x1d2>
    103a:	ac c3       	rjmp	.+1880   	; 0x1794 <mod_write_single_register+0x92a>
    103c:	ec c5       	rjmp	.+3032   	; 0x1c16 <mod_write_single_register+0xdac>
    103e:	8a 30       	cpi	r24, 0x0A	; 10
    1040:	f4 e0       	ldi	r31, 0x04	; 4
    1042:	9f 07       	cpc	r25, r31
    1044:	09 f4       	brne	.+2      	; 0x1048 <mod_write_single_register+0x1de>
    1046:	f7 c3       	rjmp	.+2030   	; 0x1836 <mod_write_single_register+0x9cc>
    1048:	8b 30       	cpi	r24, 0x0B	; 11
    104a:	24 e0       	ldi	r18, 0x04	; 4
    104c:	92 07       	cpc	r25, r18
    104e:	50 f4       	brcc	.+20     	; 0x1064 <mod_write_single_register+0x1fa>
    1050:	88 30       	cpi	r24, 0x08	; 8
    1052:	e4 e0       	ldi	r30, 0x04	; 4
    1054:	9e 07       	cpc	r25, r30
    1056:	09 f4       	brne	.+2      	; 0x105a <mod_write_single_register+0x1f0>
    1058:	b2 c3       	rjmp	.+1892   	; 0x17be <mod_write_single_register+0x954>
    105a:	89 30       	cpi	r24, 0x09	; 9
    105c:	94 40       	sbci	r25, 0x04	; 4
    105e:	08 f0       	brcs	.+2      	; 0x1062 <mod_write_single_register+0x1f8>
    1060:	cc c3       	rjmp	.+1944   	; 0x17fa <mod_write_single_register+0x990>
    1062:	a9 c3       	rjmp	.+1874   	; 0x17b6 <mod_write_single_register+0x94c>
    1064:	8c 30       	cpi	r24, 0x0C	; 12
    1066:	24 e0       	ldi	r18, 0x04	; 4
    1068:	92 07       	cpc	r25, r18
    106a:	09 f4       	brne	.+2      	; 0x106e <mod_write_single_register+0x204>
    106c:	06 c4       	rjmp	.+2060   	; 0x187a <mod_write_single_register+0xa10>
    106e:	8c 30       	cpi	r24, 0x0C	; 12
    1070:	e4 e0       	ldi	r30, 0x04	; 4
    1072:	9e 07       	cpc	r25, r30
    1074:	08 f4       	brcc	.+2      	; 0x1078 <mod_write_single_register+0x20e>
    1076:	fd c3       	rjmp	.+2042   	; 0x1872 <mod_write_single_register+0xa08>
    1078:	8d 30       	cpi	r24, 0x0D	; 13
    107a:	f4 e0       	ldi	r31, 0x04	; 4
    107c:	9f 07       	cpc	r25, r31
    107e:	09 f4       	brne	.+2      	; 0x1082 <mod_write_single_register+0x218>
    1080:	00 c4       	rjmp	.+2048   	; 0x1882 <mod_write_single_register+0xa18>
    1082:	80 31       	cpi	r24, 0x10	; 16
    1084:	94 40       	sbci	r25, 0x04	; 4
    1086:	09 f4       	brne	.+2      	; 0x108a <mod_write_single_register+0x220>
    1088:	00 c4       	rjmp	.+2048   	; 0x188a <mod_write_single_register+0xa20>
    108a:	c5 c5       	rjmp	.+2954   	; 0x1c16 <mod_write_single_register+0xdac>
    108c:	87 32       	cpi	r24, 0x27	; 39
    108e:	e4 e0       	ldi	r30, 0x04	; 4
    1090:	9e 07       	cpc	r25, r30
    1092:	09 f4       	brne	.+2      	; 0x1096 <mod_write_single_register+0x22c>
    1094:	fc c4       	rjmp	.+2552   	; 0x1a8e <mod_write_single_register+0xc24>
    1096:	88 32       	cpi	r24, 0x28	; 40
    1098:	f4 e0       	ldi	r31, 0x04	; 4
    109a:	9f 07       	cpc	r25, r31
    109c:	08 f0       	brcs	.+2      	; 0x10a0 <mod_write_single_register+0x236>
    109e:	5b c0       	rjmp	.+182    	; 0x1156 <mod_write_single_register+0x2ec>
    10a0:	8c 31       	cpi	r24, 0x1C	; 28
    10a2:	24 e0       	ldi	r18, 0x04	; 4
    10a4:	92 07       	cpc	r25, r18
    10a6:	09 f4       	brne	.+2      	; 0x10aa <mod_write_single_register+0x240>
    10a8:	66 c4       	rjmp	.+2252   	; 0x1976 <mod_write_single_register+0xb0c>
    10aa:	8d 31       	cpi	r24, 0x1D	; 29
    10ac:	e4 e0       	ldi	r30, 0x04	; 4
    10ae:	9e 07       	cpc	r25, r30
    10b0:	38 f5       	brcc	.+78     	; 0x1100 <mod_write_single_register+0x296>
    10b2:	85 31       	cpi	r24, 0x15	; 21
    10b4:	f4 e0       	ldi	r31, 0x04	; 4
    10b6:	9f 07       	cpc	r25, r31
    10b8:	09 f4       	brne	.+2      	; 0x10bc <mod_write_single_register+0x252>
    10ba:	49 c4       	rjmp	.+2194   	; 0x194e <mod_write_single_register+0xae4>
    10bc:	86 31       	cpi	r24, 0x16	; 22
    10be:	24 e0       	ldi	r18, 0x04	; 4
    10c0:	92 07       	cpc	r25, r18
    10c2:	50 f4       	brcc	.+20     	; 0x10d8 <mod_write_single_register+0x26e>
    10c4:	83 31       	cpi	r24, 0x13	; 19
    10c6:	e4 e0       	ldi	r30, 0x04	; 4
    10c8:	9e 07       	cpc	r25, r30
    10ca:	09 f4       	brne	.+2      	; 0x10ce <mod_write_single_register+0x264>
    10cc:	04 c4       	rjmp	.+2056   	; 0x18d6 <mod_write_single_register+0xa6c>
    10ce:	84 31       	cpi	r24, 0x14	; 20
    10d0:	94 40       	sbci	r25, 0x04	; 4
    10d2:	08 f0       	brcs	.+2      	; 0x10d6 <mod_write_single_register+0x26c>
    10d4:	1e c4       	rjmp	.+2108   	; 0x1912 <mod_write_single_register+0xaa8>
    10d6:	e1 c3       	rjmp	.+1986   	; 0x189a <mod_write_single_register+0xa30>
    10d8:	87 31       	cpi	r24, 0x17	; 23
    10da:	24 e0       	ldi	r18, 0x04	; 4
    10dc:	92 07       	cpc	r25, r18
    10de:	09 f4       	brne	.+2      	; 0x10e2 <mod_write_single_register+0x278>
    10e0:	3e c4       	rjmp	.+2172   	; 0x195e <mod_write_single_register+0xaf4>
    10e2:	87 31       	cpi	r24, 0x17	; 23
    10e4:	e4 e0       	ldi	r30, 0x04	; 4
    10e6:	9e 07       	cpc	r25, r30
    10e8:	08 f4       	brcc	.+2      	; 0x10ec <mod_write_single_register+0x282>
    10ea:	35 c4       	rjmp	.+2154   	; 0x1956 <mod_write_single_register+0xaec>
    10ec:	8a 31       	cpi	r24, 0x1A	; 26
    10ee:	f4 e0       	ldi	r31, 0x04	; 4
    10f0:	9f 07       	cpc	r25, r31
    10f2:	09 f4       	brne	.+2      	; 0x10f6 <mod_write_single_register+0x28c>
    10f4:	38 c4       	rjmp	.+2160   	; 0x1966 <mod_write_single_register+0xafc>
    10f6:	8b 31       	cpi	r24, 0x1B	; 27
    10f8:	94 40       	sbci	r25, 0x04	; 4
    10fa:	09 f4       	brne	.+2      	; 0x10fe <mod_write_single_register+0x294>
    10fc:	38 c4       	rjmp	.+2160   	; 0x196e <mod_write_single_register+0xb04>
    10fe:	8b c5       	rjmp	.+2838   	; 0x1c16 <mod_write_single_register+0xdac>
    1100:	80 32       	cpi	r24, 0x20	; 32
    1102:	e4 e0       	ldi	r30, 0x04	; 4
    1104:	9e 07       	cpc	r25, r30
    1106:	09 f4       	brne	.+2      	; 0x110a <mod_write_single_register+0x2a0>
    1108:	94 c4       	rjmp	.+2344   	; 0x1a32 <mod_write_single_register+0xbc8>
    110a:	81 32       	cpi	r24, 0x21	; 33
    110c:	f4 e0       	ldi	r31, 0x04	; 4
    110e:	9f 07       	cpc	r25, r31
    1110:	50 f4       	brcc	.+20     	; 0x1126 <mod_write_single_register+0x2bc>
    1112:	8e 31       	cpi	r24, 0x1E	; 30
    1114:	24 e0       	ldi	r18, 0x04	; 4
    1116:	92 07       	cpc	r25, r18
    1118:	09 f4       	brne	.+2      	; 0x111c <mod_write_single_register+0x2b2>
    111a:	69 c4       	rjmp	.+2258   	; 0x19ee <mod_write_single_register+0xb84>
    111c:	8f 31       	cpi	r24, 0x1F	; 31
    111e:	94 40       	sbci	r25, 0x04	; 4
    1120:	08 f0       	brcs	.+2      	; 0x1124 <mod_write_single_register+0x2ba>
    1122:	83 c4       	rjmp	.+2310   	; 0x1a2a <mod_write_single_register+0xbc0>
    1124:	46 c4       	rjmp	.+2188   	; 0x19b2 <mod_write_single_register+0xb48>
    1126:	84 32       	cpi	r24, 0x24	; 36
    1128:	f4 e0       	ldi	r31, 0x04	; 4
    112a:	9f 07       	cpc	r25, r31
    112c:	09 f4       	brne	.+2      	; 0x1130 <mod_write_single_register+0x2c6>
    112e:	89 c4       	rjmp	.+2322   	; 0x1a42 <mod_write_single_register+0xbd8>
    1130:	85 32       	cpi	r24, 0x25	; 37
    1132:	24 e0       	ldi	r18, 0x04	; 4
    1134:	92 07       	cpc	r25, r18
    1136:	28 f4       	brcc	.+10     	; 0x1142 <mod_write_single_register+0x2d8>
    1138:	81 32       	cpi	r24, 0x21	; 33
    113a:	94 40       	sbci	r25, 0x04	; 4
    113c:	09 f4       	brne	.+2      	; 0x1140 <mod_write_single_register+0x2d6>
    113e:	7d c4       	rjmp	.+2298   	; 0x1a3a <mod_write_single_register+0xbd0>
    1140:	6a c5       	rjmp	.+2772   	; 0x1c16 <mod_write_single_register+0xdac>
    1142:	85 32       	cpi	r24, 0x25	; 37
    1144:	f4 e0       	ldi	r31, 0x04	; 4
    1146:	9f 07       	cpc	r25, r31
    1148:	09 f4       	brne	.+2      	; 0x114c <mod_write_single_register+0x2e2>
    114a:	7f c4       	rjmp	.+2302   	; 0x1a4a <mod_write_single_register+0xbe0>
    114c:	86 32       	cpi	r24, 0x26	; 38
    114e:	94 40       	sbci	r25, 0x04	; 4
    1150:	09 f4       	brne	.+2      	; 0x1154 <mod_write_single_register+0x2ea>
    1152:	7f c4       	rjmp	.+2302   	; 0x1a52 <mod_write_single_register+0xbe8>
    1154:	60 c5       	rjmp	.+2752   	; 0x1c16 <mod_write_single_register+0xdac>
    1156:	82 33       	cpi	r24, 0x32	; 50
    1158:	e4 e0       	ldi	r30, 0x04	; 4
    115a:	9e 07       	cpc	r25, r30
    115c:	09 f4       	brne	.+2      	; 0x1160 <mod_write_single_register+0x2f6>
    115e:	23 c5       	rjmp	.+2630   	; 0x1ba6 <mod_write_single_register+0xd3c>
    1160:	83 33       	cpi	r24, 0x33	; 51
    1162:	f4 e0       	ldi	r31, 0x04	; 4
    1164:	9f 07       	cpc	r25, r31
    1166:	58 f5       	brcc	.+86     	; 0x11be <mod_write_single_register+0x354>
    1168:	8b 32       	cpi	r24, 0x2B	; 43
    116a:	24 e0       	ldi	r18, 0x04	; 4
    116c:	92 07       	cpc	r25, r18
    116e:	09 f4       	brne	.+2      	; 0x1172 <mod_write_single_register+0x308>
    1170:	d2 c4       	rjmp	.+2468   	; 0x1b16 <mod_write_single_register+0xcac>
    1172:	8c 32       	cpi	r24, 0x2C	; 44
    1174:	e4 e0       	ldi	r30, 0x04	; 4
    1176:	9e 07       	cpc	r25, r30
    1178:	50 f4       	brcc	.+20     	; 0x118e <mod_write_single_register+0x324>
    117a:	89 32       	cpi	r24, 0x29	; 41
    117c:	f4 e0       	ldi	r31, 0x04	; 4
    117e:	9f 07       	cpc	r25, r31
    1180:	09 f4       	brne	.+2      	; 0x1184 <mod_write_single_register+0x31a>
    1182:	c1 c4       	rjmp	.+2434   	; 0x1b06 <mod_write_single_register+0xc9c>
    1184:	8a 32       	cpi	r24, 0x2A	; 42
    1186:	94 40       	sbci	r25, 0x04	; 4
    1188:	08 f0       	brcs	.+2      	; 0x118c <mod_write_single_register+0x322>
    118a:	c1 c4       	rjmp	.+2434   	; 0x1b0e <mod_write_single_register+0xca4>
    118c:	9e c4       	rjmp	.+2364   	; 0x1aca <mod_write_single_register+0xc60>
    118e:	8f 32       	cpi	r24, 0x2F	; 47
    1190:	e4 e0       	ldi	r30, 0x04	; 4
    1192:	9e 07       	cpc	r25, r30
    1194:	09 f4       	brne	.+2      	; 0x1198 <mod_write_single_register+0x32e>
    1196:	c7 c4       	rjmp	.+2446   	; 0x1b26 <mod_write_single_register+0xcbc>
    1198:	80 33       	cpi	r24, 0x30	; 48
    119a:	f4 e0       	ldi	r31, 0x04	; 4
    119c:	9f 07       	cpc	r25, r31
    119e:	28 f4       	brcc	.+10     	; 0x11aa <mod_write_single_register+0x340>
    11a0:	8e 32       	cpi	r24, 0x2E	; 46
    11a2:	94 40       	sbci	r25, 0x04	; 4
    11a4:	09 f4       	brne	.+2      	; 0x11a8 <mod_write_single_register+0x33e>
    11a6:	bb c4       	rjmp	.+2422   	; 0x1b1e <mod_write_single_register+0xcb4>
    11a8:	36 c5       	rjmp	.+2668   	; 0x1c16 <mod_write_single_register+0xdac>
    11aa:	80 33       	cpi	r24, 0x30	; 48
    11ac:	e4 e0       	ldi	r30, 0x04	; 4
    11ae:	9e 07       	cpc	r25, r30
    11b0:	09 f4       	brne	.+2      	; 0x11b4 <mod_write_single_register+0x34a>
    11b2:	bd c4       	rjmp	.+2426   	; 0x1b2e <mod_write_single_register+0xcc4>
    11b4:	81 33       	cpi	r24, 0x31	; 49
    11b6:	94 40       	sbci	r25, 0x04	; 4
    11b8:	09 f4       	brne	.+2      	; 0x11bc <mod_write_single_register+0x352>
    11ba:	d7 c4       	rjmp	.+2478   	; 0x1b6a <mod_write_single_register+0xd00>
    11bc:	2c c5       	rjmp	.+2648   	; 0x1c16 <mod_write_single_register+0xdac>
    11be:	80 32       	cpi	r24, 0x20	; 32
    11c0:	2e e4       	ldi	r18, 0x4E	; 78
    11c2:	92 07       	cpc	r25, r18
    11c4:	41 f1       	breq	.+80     	; 0x1216 <mod_write_single_register+0x3ac>
    11c6:	81 32       	cpi	r24, 0x21	; 33
    11c8:	ee e4       	ldi	r30, 0x4E	; 78
    11ca:	9e 07       	cpc	r25, r30
    11cc:	78 f4       	brcc	.+30     	; 0x11ec <mod_write_single_register+0x382>
    11ce:	84 33       	cpi	r24, 0x34	; 52
    11d0:	f4 e0       	ldi	r31, 0x04	; 4
    11d2:	9f 07       	cpc	r25, r31
    11d4:	09 f4       	brne	.+2      	; 0x11d8 <mod_write_single_register+0x36e>
    11d6:	09 c5       	rjmp	.+2578   	; 0x1bea <mod_write_single_register+0xd80>
    11d8:	84 33       	cpi	r24, 0x34	; 52
    11da:	24 e0       	ldi	r18, 0x04	; 4
    11dc:	92 07       	cpc	r25, r18
    11de:	08 f4       	brcc	.+2      	; 0x11e2 <mod_write_single_register+0x378>
    11e0:	00 c5       	rjmp	.+2560   	; 0x1be2 <mod_write_single_register+0xd78>
    11e2:	85 33       	cpi	r24, 0x35	; 53
    11e4:	94 40       	sbci	r25, 0x04	; 4
    11e6:	09 f4       	brne	.+2      	; 0x11ea <mod_write_single_register+0x380>
    11e8:	04 c5       	rjmp	.+2568   	; 0x1bf2 <mod_write_single_register+0xd88>
    11ea:	15 c5       	rjmp	.+2602   	; 0x1c16 <mod_write_single_register+0xdac>
    11ec:	82 32       	cpi	r24, 0x22	; 34
    11ee:	fe e4       	ldi	r31, 0x4E	; 78
    11f0:	9f 07       	cpc	r25, r31
    11f2:	09 f1       	breq	.+66     	; 0x1236 <mod_write_single_register+0x3cc>
    11f4:	82 32       	cpi	r24, 0x22	; 34
    11f6:	2e e4       	ldi	r18, 0x4E	; 78
    11f8:	92 07       	cpc	r25, r18
    11fa:	a8 f0       	brcs	.+42     	; 0x1226 <mod_write_single_register+0x3bc>
    11fc:	84 38       	cpi	r24, 0x84	; 132
    11fe:	ee e4       	ldi	r30, 0x4E	; 78
    1200:	9e 07       	cpc	r25, r30
    1202:	09 f4       	brne	.+2      	; 0x1206 <mod_write_single_register+0x39c>
    1204:	fa c4       	rjmp	.+2548   	; 0x1bfa <mod_write_single_register+0xd90>
    1206:	8e 38       	cpi	r24, 0x8E	; 142
    1208:	9e 44       	sbci	r25, 0x4E	; 78
    120a:	09 f4       	brne	.+2      	; 0x120e <mod_write_single_register+0x3a4>
    120c:	fd c4       	rjmp	.+2554   	; 0x1c08 <mod_write_single_register+0xd9e>
    120e:	03 c5       	rjmp	.+2566   	; 0x1c16 <mod_write_single_register+0xdac>
		case MODBUS_RESET_ADR:
			disableAllHeater();		
    1210:	0e 94 38 1b 	call	0x3670	; 0x3670 <disableAllHeater>
		break;
    1214:	00 c5       	rjmp	.+2560   	; 0x1c16 <mod_write_single_register+0xdac>
		case MODBUS_EXT0_SET_TEMP_ADR:
			setTargetTemperature(&tempController[EXT0],write_value);
    1216:	89 81       	ldd	r24, Y+1	; 0x01
    1218:	9a 81       	ldd	r25, Y+2	; 0x02
    121a:	bc 01       	movw	r22, r24
    121c:	83 ef       	ldi	r24, 0xF3	; 243
    121e:	98 e0       	ldi	r25, 0x08	; 8
    1220:	0e 94 7d 1b 	call	0x36fa	; 0x36fa <setTargetTemperature>
		break;
    1224:	f8 c4       	rjmp	.+2544   	; 0x1c16 <mod_write_single_register+0xdac>
		case MODBUS_EXT1_SET_TEMP_ADR:
			setTargetTemperature(&tempController[EXT1],write_value);
    1226:	89 81       	ldd	r24, Y+1	; 0x01
    1228:	9a 81       	ldd	r25, Y+2	; 0x02
    122a:	bc 01       	movw	r22, r24
    122c:	85 e3       	ldi	r24, 0x35	; 53
    122e:	99 e0       	ldi	r25, 0x09	; 9
    1230:	0e 94 7d 1b 	call	0x36fa	; 0x36fa <setTargetTemperature>
		break;
    1234:	f0 c4       	rjmp	.+2528   	; 0x1c16 <mod_write_single_register+0xdac>
		case MODBUS_BED_SET_TEMP_ADR:
			setTargetTemperature(&tempController[BED0],write_value);
    1236:	89 81       	ldd	r24, Y+1	; 0x01
    1238:	9a 81       	ldd	r25, Y+2	; 0x02
    123a:	bc 01       	movw	r22, r24
    123c:	87 e7       	ldi	r24, 0x77	; 119
    123e:	99 e0       	ldi	r25, 0x09	; 9
    1240:	0e 94 7d 1b 	call	0x36fa	; 0x36fa <setTargetTemperature>
			setTargetTemperature(&tempController[BED1],write_value);
    1244:	89 81       	ldd	r24, Y+1	; 0x01
    1246:	9a 81       	ldd	r25, Y+2	; 0x02
    1248:	bc 01       	movw	r22, r24
    124a:	89 eb       	ldi	r24, 0xB9	; 185
    124c:	99 e0       	ldi	r25, 0x09	; 9
    124e:	0e 94 7d 1b 	call	0x36fa	; 0x36fa <setTargetTemperature>
			setTargetTemperature(&tempController[BED2],write_value);
    1252:	89 81       	ldd	r24, Y+1	; 0x01
    1254:	9a 81       	ldd	r25, Y+2	; 0x02
    1256:	bc 01       	movw	r22, r24
    1258:	8b ef       	ldi	r24, 0xFB	; 251
    125a:	99 e0       	ldi	r25, 0x09	; 9
    125c:	0e 94 7d 1b 	call	0x36fa	; 0x36fa <setTargetTemperature>
			setTargetTemperature(&tempController[BED3],write_value);
    1260:	89 81       	ldd	r24, Y+1	; 0x01
    1262:	9a 81       	ldd	r25, Y+2	; 0x02
    1264:	bc 01       	movw	r22, r24
    1266:	8d e3       	ldi	r24, 0x3D	; 61
    1268:	9a e0       	ldi	r25, 0x0A	; 10
    126a:	0e 94 7d 1b 	call	0x36fa	; 0x36fa <setTargetTemperature>
		break;
    126e:	d3 c4       	rjmp	.+2470   	; 0x1c16 <mod_write_single_register+0xdac>
		case MODBUS_DOOR_STATUS_ADR:
			if (write_value & DOOR_OPEN_MASK)
    1270:	89 81       	ldd	r24, Y+1	; 0x01
    1272:	9a 81       	ldd	r25, Y+2	; 0x02
    1274:	80 78       	andi	r24, 0x80	; 128
    1276:	99 27       	eor	r25, r25
    1278:	89 2b       	or	r24, r25
    127a:	59 f0       	breq	.+22     	; 0x1292 <mod_write_single_register+0x428>
			{
				door_status &= ~DOOR_CLOSE_OPEN_MASK;
    127c:	80 91 9e 07 	lds	r24, 0x079E	; 0x80079e <door_status>
    1280:	8f 73       	andi	r24, 0x3F	; 63
    1282:	80 93 9e 07 	sts	0x079E, r24	; 0x80079e <door_status>
				door_status |= DOOR_OPEN_MASK;
    1286:	80 91 9e 07 	lds	r24, 0x079E	; 0x80079e <door_status>
    128a:	80 68       	ori	r24, 0x80	; 128
    128c:	80 93 9e 07 	sts	0x079E, r24	; 0x80079e <door_status>
    1290:	11 c0       	rjmp	.+34     	; 0x12b4 <mod_write_single_register+0x44a>
				
			} 
			else if(write_value & DOOR_CLOSE_MASK)
    1292:	89 81       	ldd	r24, Y+1	; 0x01
    1294:	9a 81       	ldd	r25, Y+2	; 0x02
    1296:	80 74       	andi	r24, 0x40	; 64
    1298:	99 27       	eor	r25, r25
    129a:	89 2b       	or	r24, r25
    129c:	59 f0       	breq	.+22     	; 0x12b4 <mod_write_single_register+0x44a>
			{
				door_status &= ~DOOR_CLOSE_OPEN_MASK;
    129e:	80 91 9e 07 	lds	r24, 0x079E	; 0x80079e <door_status>
    12a2:	8f 73       	andi	r24, 0x3F	; 63
    12a4:	80 93 9e 07 	sts	0x079E, r24	; 0x80079e <door_status>
				door_status |= DOOR_CLOSE_MASK;
    12a8:	80 91 9e 07 	lds	r24, 0x079E	; 0x80079e <door_status>
    12ac:	80 64       	ori	r24, 0x40	; 64
    12ae:	80 93 9e 07 	sts	0x079E, r24	; 0x80079e <door_status>
			}
		break;
    12b2:	b1 c4       	rjmp	.+2402   	; 0x1c16 <mod_write_single_register+0xdac>
    12b4:	b0 c4       	rjmp	.+2400   	; 0x1c16 <mod_write_single_register+0xdac>
		//--------------EXT0---------------			
			case MODBUS_EXT0_R_W_SENSOR_TYPE_ADR:
				tempController[EXT0].sensorType = write_value;
    12b6:	89 81       	ldd	r24, Y+1	; 0x01
    12b8:	80 93 f5 08 	sts	0x08F5, r24	; 0x8008f5 <tempController+0x2>
			break;
    12bc:	ac c4       	rjmp	.+2392   	; 0x1c16 <mod_write_single_register+0xdac>
			case MODBUS_EXT0_R_W_HEAT_MANAGER_ADR:
				tempController[EXT0].heatManager = write_value;
    12be:	89 81       	ldd	r24, Y+1	; 0x01
    12c0:	80 93 07 09 	sts	0x0907, r24	; 0x800907 <tempController+0x14>
			break;
    12c4:	a8 c4       	rjmp	.+2384   	; 0x1c16 <mod_write_single_register+0xdac>
			case MODBUS_EXT0_R_W_PID_P_ADR:
				tempController[EXT0].pidPGain = (float)write_value/100.0;
    12c6:	89 81       	ldd	r24, Y+1	; 0x01
    12c8:	9a 81       	ldd	r25, Y+2	; 0x02
    12ca:	cc 01       	movw	r24, r24
    12cc:	a0 e0       	ldi	r26, 0x00	; 0
    12ce:	b0 e0       	ldi	r27, 0x00	; 0
    12d0:	bc 01       	movw	r22, r24
    12d2:	cd 01       	movw	r24, r26
    12d4:	0e 94 ed 29 	call	0x53da	; 0x53da <__floatunsisf>
    12d8:	dc 01       	movw	r26, r24
    12da:	cb 01       	movw	r24, r22
    12dc:	20 e0       	ldi	r18, 0x00	; 0
    12de:	30 e0       	ldi	r19, 0x00	; 0
    12e0:	48 ec       	ldi	r20, 0xC8	; 200
    12e2:	52 e4       	ldi	r21, 0x42	; 66
    12e4:	bc 01       	movw	r22, r24
    12e6:	cd 01       	movw	r24, r26
    12e8:	0e 94 54 29 	call	0x52a8	; 0x52a8 <__divsf3>
    12ec:	dc 01       	movw	r26, r24
    12ee:	cb 01       	movw	r24, r22
    12f0:	80 93 0e 09 	sts	0x090E, r24	; 0x80090e <tempController+0x1b>
    12f4:	90 93 0f 09 	sts	0x090F, r25	; 0x80090f <tempController+0x1c>
    12f8:	a0 93 10 09 	sts	0x0910, r26	; 0x800910 <tempController+0x1d>
    12fc:	b0 93 11 09 	sts	0x0911, r27	; 0x800911 <tempController+0x1e>
			break;
    1300:	8a c4       	rjmp	.+2324   	; 0x1c16 <mod_write_single_register+0xdac>
			case MODBUS_EXT0_R_W_PID_I_ADR:
				tempController[EXT0].pidIGain = (float)write_value/100.0;
    1302:	89 81       	ldd	r24, Y+1	; 0x01
    1304:	9a 81       	ldd	r25, Y+2	; 0x02
    1306:	cc 01       	movw	r24, r24
    1308:	a0 e0       	ldi	r26, 0x00	; 0
    130a:	b0 e0       	ldi	r27, 0x00	; 0
    130c:	bc 01       	movw	r22, r24
    130e:	cd 01       	movw	r24, r26
    1310:	0e 94 ed 29 	call	0x53da	; 0x53da <__floatunsisf>
    1314:	dc 01       	movw	r26, r24
    1316:	cb 01       	movw	r24, r22
    1318:	20 e0       	ldi	r18, 0x00	; 0
    131a:	30 e0       	ldi	r19, 0x00	; 0
    131c:	48 ec       	ldi	r20, 0xC8	; 200
    131e:	52 e4       	ldi	r21, 0x42	; 66
    1320:	bc 01       	movw	r22, r24
    1322:	cd 01       	movw	r24, r26
    1324:	0e 94 54 29 	call	0x52a8	; 0x52a8 <__divsf3>
    1328:	dc 01       	movw	r26, r24
    132a:	cb 01       	movw	r24, r22
    132c:	80 93 12 09 	sts	0x0912, r24	; 0x800912 <tempController+0x1f>
    1330:	90 93 13 09 	sts	0x0913, r25	; 0x800913 <tempController+0x20>
    1334:	a0 93 14 09 	sts	0x0914, r26	; 0x800914 <tempController+0x21>
    1338:	b0 93 15 09 	sts	0x0915, r27	; 0x800915 <tempController+0x22>
			break;
    133c:	6c c4       	rjmp	.+2264   	; 0x1c16 <mod_write_single_register+0xdac>
			case MODBUS_EXT0_R_W_PID_D_ADR:
				tempController[EXT0].pidDGain = (float)write_value/100.0;
    133e:	89 81       	ldd	r24, Y+1	; 0x01
    1340:	9a 81       	ldd	r25, Y+2	; 0x02
    1342:	cc 01       	movw	r24, r24
    1344:	a0 e0       	ldi	r26, 0x00	; 0
    1346:	b0 e0       	ldi	r27, 0x00	; 0
    1348:	bc 01       	movw	r22, r24
    134a:	cd 01       	movw	r24, r26
    134c:	0e 94 ed 29 	call	0x53da	; 0x53da <__floatunsisf>
    1350:	dc 01       	movw	r26, r24
    1352:	cb 01       	movw	r24, r22
    1354:	20 e0       	ldi	r18, 0x00	; 0
    1356:	30 e0       	ldi	r19, 0x00	; 0
    1358:	48 ec       	ldi	r20, 0xC8	; 200
    135a:	52 e4       	ldi	r21, 0x42	; 66
    135c:	bc 01       	movw	r22, r24
    135e:	cd 01       	movw	r24, r26
    1360:	0e 94 54 29 	call	0x52a8	; 0x52a8 <__divsf3>
    1364:	dc 01       	movw	r26, r24
    1366:	cb 01       	movw	r24, r22
    1368:	80 93 16 09 	sts	0x0916, r24	; 0x800916 <tempController+0x23>
    136c:	90 93 17 09 	sts	0x0917, r25	; 0x800917 <tempController+0x24>
    1370:	a0 93 18 09 	sts	0x0918, r26	; 0x800918 <tempController+0x25>
    1374:	b0 93 19 09 	sts	0x0919, r27	; 0x800919 <tempController+0x26>
			break;
    1378:	4e c4       	rjmp	.+2204   	; 0x1c16 <mod_write_single_register+0xdac>
			case MODBUS_EXT0_R_W_DRIVE_MAX_ADR:
				tempController[EXT0].pidDriveMax = write_value;
    137a:	89 81       	ldd	r24, Y+1	; 0x01
    137c:	80 93 0c 09 	sts	0x090C, r24	; 0x80090c <tempController+0x19>
			break;
    1380:	4a c4       	rjmp	.+2196   	; 0x1c16 <mod_write_single_register+0xdac>
			case MODBUS_EXT0_R_W_DRVE_MIN_ADR:
				tempController[EXT0].pidDriveMin = write_value;
    1382:	89 81       	ldd	r24, Y+1	; 0x01
    1384:	80 93 0d 09 	sts	0x090D, r24	; 0x80090d <tempController+0x1a>
			break;
    1388:	46 c4       	rjmp	.+2188   	; 0x1c16 <mod_write_single_register+0xdac>
			case MODBUS_EXT0_R_W_PID_MAX_ADR:	
				tempController[EXT0].pidMax = write_value;
    138a:	89 81       	ldd	r24, Y+1	; 0x01
    138c:	80 93 1a 09 	sts	0x091A, r24	; 0x80091a <tempController+0x27>
			break;	
    1390:	42 c4       	rjmp	.+2180   	; 0x1c16 <mod_write_single_register+0xdac>
//--------------EXT1---------------			
			case MODBUS_EXT1_R_W_SENSOR_TYPE_ADR:
				tempController[EXT1].sensorType = write_value;
    1392:	89 81       	ldd	r24, Y+1	; 0x01
    1394:	80 93 37 09 	sts	0x0937, r24	; 0x800937 <tempController+0x44>
			break;
    1398:	3e c4       	rjmp	.+2172   	; 0x1c16 <mod_write_single_register+0xdac>
			case MODBUS_EXT1_R_W_HEAT_MANAGER_ADR:
				tempController[EXT1].heatManager = write_value;
    139a:	89 81       	ldd	r24, Y+1	; 0x01
    139c:	80 93 49 09 	sts	0x0949, r24	; 0x800949 <tempController+0x56>
			break;
    13a0:	3a c4       	rjmp	.+2164   	; 0x1c16 <mod_write_single_register+0xdac>
			case MODBUS_EXT1_R_W_PID_P_ADR:
				tempController[EXT1].pidPGain = (float)write_value/100.0;
    13a2:	89 81       	ldd	r24, Y+1	; 0x01
    13a4:	9a 81       	ldd	r25, Y+2	; 0x02
    13a6:	cc 01       	movw	r24, r24
    13a8:	a0 e0       	ldi	r26, 0x00	; 0
    13aa:	b0 e0       	ldi	r27, 0x00	; 0
    13ac:	bc 01       	movw	r22, r24
    13ae:	cd 01       	movw	r24, r26
    13b0:	0e 94 ed 29 	call	0x53da	; 0x53da <__floatunsisf>
    13b4:	dc 01       	movw	r26, r24
    13b6:	cb 01       	movw	r24, r22
    13b8:	20 e0       	ldi	r18, 0x00	; 0
    13ba:	30 e0       	ldi	r19, 0x00	; 0
    13bc:	48 ec       	ldi	r20, 0xC8	; 200
    13be:	52 e4       	ldi	r21, 0x42	; 66
    13c0:	bc 01       	movw	r22, r24
    13c2:	cd 01       	movw	r24, r26
    13c4:	0e 94 54 29 	call	0x52a8	; 0x52a8 <__divsf3>
    13c8:	dc 01       	movw	r26, r24
    13ca:	cb 01       	movw	r24, r22
    13cc:	80 93 50 09 	sts	0x0950, r24	; 0x800950 <tempController+0x5d>
    13d0:	90 93 51 09 	sts	0x0951, r25	; 0x800951 <tempController+0x5e>
    13d4:	a0 93 52 09 	sts	0x0952, r26	; 0x800952 <tempController+0x5f>
    13d8:	b0 93 53 09 	sts	0x0953, r27	; 0x800953 <tempController+0x60>
			break;
    13dc:	1c c4       	rjmp	.+2104   	; 0x1c16 <mod_write_single_register+0xdac>
			case MODBUS_EXT1_R_W_PID_I_ADR:
				tempController[EXT1].pidIGain = (float)write_value/100.0;
    13de:	89 81       	ldd	r24, Y+1	; 0x01
    13e0:	9a 81       	ldd	r25, Y+2	; 0x02
    13e2:	cc 01       	movw	r24, r24
    13e4:	a0 e0       	ldi	r26, 0x00	; 0
    13e6:	b0 e0       	ldi	r27, 0x00	; 0
    13e8:	bc 01       	movw	r22, r24
    13ea:	cd 01       	movw	r24, r26
    13ec:	0e 94 ed 29 	call	0x53da	; 0x53da <__floatunsisf>
    13f0:	dc 01       	movw	r26, r24
    13f2:	cb 01       	movw	r24, r22
    13f4:	20 e0       	ldi	r18, 0x00	; 0
    13f6:	30 e0       	ldi	r19, 0x00	; 0
    13f8:	48 ec       	ldi	r20, 0xC8	; 200
    13fa:	52 e4       	ldi	r21, 0x42	; 66
    13fc:	bc 01       	movw	r22, r24
    13fe:	cd 01       	movw	r24, r26
    1400:	0e 94 54 29 	call	0x52a8	; 0x52a8 <__divsf3>
    1404:	dc 01       	movw	r26, r24
    1406:	cb 01       	movw	r24, r22
    1408:	80 93 54 09 	sts	0x0954, r24	; 0x800954 <tempController+0x61>
    140c:	90 93 55 09 	sts	0x0955, r25	; 0x800955 <tempController+0x62>
    1410:	a0 93 56 09 	sts	0x0956, r26	; 0x800956 <tempController+0x63>
    1414:	b0 93 57 09 	sts	0x0957, r27	; 0x800957 <tempController+0x64>
			break;
    1418:	fe c3       	rjmp	.+2044   	; 0x1c16 <mod_write_single_register+0xdac>
			case MODBUS_EXT1_R_W_PID_D_ADR:
				tempController[EXT1].pidDGain = (float)write_value/100.0;
    141a:	89 81       	ldd	r24, Y+1	; 0x01
    141c:	9a 81       	ldd	r25, Y+2	; 0x02
    141e:	cc 01       	movw	r24, r24
    1420:	a0 e0       	ldi	r26, 0x00	; 0
    1422:	b0 e0       	ldi	r27, 0x00	; 0
    1424:	bc 01       	movw	r22, r24
    1426:	cd 01       	movw	r24, r26
    1428:	0e 94 ed 29 	call	0x53da	; 0x53da <__floatunsisf>
    142c:	dc 01       	movw	r26, r24
    142e:	cb 01       	movw	r24, r22
    1430:	20 e0       	ldi	r18, 0x00	; 0
    1432:	30 e0       	ldi	r19, 0x00	; 0
    1434:	48 ec       	ldi	r20, 0xC8	; 200
    1436:	52 e4       	ldi	r21, 0x42	; 66
    1438:	bc 01       	movw	r22, r24
    143a:	cd 01       	movw	r24, r26
    143c:	0e 94 54 29 	call	0x52a8	; 0x52a8 <__divsf3>
    1440:	dc 01       	movw	r26, r24
    1442:	cb 01       	movw	r24, r22
    1444:	80 93 58 09 	sts	0x0958, r24	; 0x800958 <tempController+0x65>
    1448:	90 93 59 09 	sts	0x0959, r25	; 0x800959 <tempController+0x66>
    144c:	a0 93 5a 09 	sts	0x095A, r26	; 0x80095a <tempController+0x67>
    1450:	b0 93 5b 09 	sts	0x095B, r27	; 0x80095b <tempController+0x68>
			break;
    1454:	e0 c3       	rjmp	.+1984   	; 0x1c16 <mod_write_single_register+0xdac>
			case MODBUS_EXT1_R_W_DRIVE_MAX_ADR:
				tempController[EXT1].pidDriveMax = write_value;
    1456:	89 81       	ldd	r24, Y+1	; 0x01
    1458:	80 93 4e 09 	sts	0x094E, r24	; 0x80094e <tempController+0x5b>
			break;
    145c:	dc c3       	rjmp	.+1976   	; 0x1c16 <mod_write_single_register+0xdac>
			case MODBUS_EXT1_R_W_DRVE_MIN_ADR:
				tempController[EXT1].pidDriveMin = write_value;
    145e:	89 81       	ldd	r24, Y+1	; 0x01
    1460:	80 93 4f 09 	sts	0x094F, r24	; 0x80094f <tempController+0x5c>
			break;
    1464:	d8 c3       	rjmp	.+1968   	; 0x1c16 <mod_write_single_register+0xdac>
			case MODBUS_EXT1_R_W_PID_MAX_ADR:	
				tempController[EXT1].pidMax = write_value;
    1466:	89 81       	ldd	r24, Y+1	; 0x01
    1468:	80 93 5c 09 	sts	0x095C, r24	; 0x80095c <tempController+0x69>
			break;	
    146c:	d4 c3       	rjmp	.+1960   	; 0x1c16 <mod_write_single_register+0xdac>
	//--------------BED---------------			
			case MODBUS_BED_R_W_SENSOR_TYPE_ADR:
				tempController[BED0].sensorType = write_value;
    146e:	89 81       	ldd	r24, Y+1	; 0x01
    1470:	80 93 79 09 	sts	0x0979, r24	; 0x800979 <tempController+0x86>
				tempController[BED1].sensorType = write_value;
    1474:	89 81       	ldd	r24, Y+1	; 0x01
    1476:	80 93 bb 09 	sts	0x09BB, r24	; 0x8009bb <tempController+0xc8>
				tempController[BED2].sensorType = write_value;
    147a:	89 81       	ldd	r24, Y+1	; 0x01
    147c:	80 93 fd 09 	sts	0x09FD, r24	; 0x8009fd <tempController+0x10a>
				tempController[BED3].sensorType = write_value;
    1480:	89 81       	ldd	r24, Y+1	; 0x01
    1482:	80 93 3f 0a 	sts	0x0A3F, r24	; 0x800a3f <tempController+0x14c>
			break;
    1486:	c7 c3       	rjmp	.+1934   	; 0x1c16 <mod_write_single_register+0xdac>
			case MODBUS_BED_R_W_HEAT_MANAGER_ADR:
				tempController[BED0].heatManager = write_value;
    1488:	89 81       	ldd	r24, Y+1	; 0x01
    148a:	80 93 8b 09 	sts	0x098B, r24	; 0x80098b <tempController+0x98>
				tempController[BED1].heatManager = write_value;
    148e:	89 81       	ldd	r24, Y+1	; 0x01
    1490:	80 93 cd 09 	sts	0x09CD, r24	; 0x8009cd <tempController+0xda>
				tempController[BED2].heatManager = write_value;
    1494:	89 81       	ldd	r24, Y+1	; 0x01
    1496:	80 93 0f 0a 	sts	0x0A0F, r24	; 0x800a0f <tempController+0x11c>
				tempController[BED3].heatManager = write_value;
    149a:	89 81       	ldd	r24, Y+1	; 0x01
    149c:	80 93 51 0a 	sts	0x0A51, r24	; 0x800a51 <tempController+0x15e>
			break;
    14a0:	ba c3       	rjmp	.+1908   	; 0x1c16 <mod_write_single_register+0xdac>
			case MODBUS_BED_R_W_PID_P_ADR:
				tempController[BED0].pidIGain = (float)write_value/100.0;
    14a2:	89 81       	ldd	r24, Y+1	; 0x01
    14a4:	9a 81       	ldd	r25, Y+2	; 0x02
    14a6:	cc 01       	movw	r24, r24
    14a8:	a0 e0       	ldi	r26, 0x00	; 0
    14aa:	b0 e0       	ldi	r27, 0x00	; 0
    14ac:	bc 01       	movw	r22, r24
    14ae:	cd 01       	movw	r24, r26
    14b0:	0e 94 ed 29 	call	0x53da	; 0x53da <__floatunsisf>
    14b4:	dc 01       	movw	r26, r24
    14b6:	cb 01       	movw	r24, r22
    14b8:	20 e0       	ldi	r18, 0x00	; 0
    14ba:	30 e0       	ldi	r19, 0x00	; 0
    14bc:	48 ec       	ldi	r20, 0xC8	; 200
    14be:	52 e4       	ldi	r21, 0x42	; 66
    14c0:	bc 01       	movw	r22, r24
    14c2:	cd 01       	movw	r24, r26
    14c4:	0e 94 54 29 	call	0x52a8	; 0x52a8 <__divsf3>
    14c8:	dc 01       	movw	r26, r24
    14ca:	cb 01       	movw	r24, r22
    14cc:	80 93 96 09 	sts	0x0996, r24	; 0x800996 <tempController+0xa3>
    14d0:	90 93 97 09 	sts	0x0997, r25	; 0x800997 <tempController+0xa4>
    14d4:	a0 93 98 09 	sts	0x0998, r26	; 0x800998 <tempController+0xa5>
    14d8:	b0 93 99 09 	sts	0x0999, r27	; 0x800999 <tempController+0xa6>
				tempController[BED1].pidIGain = (float)write_value/100.0;
    14dc:	89 81       	ldd	r24, Y+1	; 0x01
    14de:	9a 81       	ldd	r25, Y+2	; 0x02
    14e0:	cc 01       	movw	r24, r24
    14e2:	a0 e0       	ldi	r26, 0x00	; 0
    14e4:	b0 e0       	ldi	r27, 0x00	; 0
    14e6:	bc 01       	movw	r22, r24
    14e8:	cd 01       	movw	r24, r26
    14ea:	0e 94 ed 29 	call	0x53da	; 0x53da <__floatunsisf>
    14ee:	dc 01       	movw	r26, r24
    14f0:	cb 01       	movw	r24, r22
    14f2:	20 e0       	ldi	r18, 0x00	; 0
    14f4:	30 e0       	ldi	r19, 0x00	; 0
    14f6:	48 ec       	ldi	r20, 0xC8	; 200
    14f8:	52 e4       	ldi	r21, 0x42	; 66
    14fa:	bc 01       	movw	r22, r24
    14fc:	cd 01       	movw	r24, r26
    14fe:	0e 94 54 29 	call	0x52a8	; 0x52a8 <__divsf3>
    1502:	dc 01       	movw	r26, r24
    1504:	cb 01       	movw	r24, r22
    1506:	80 93 d8 09 	sts	0x09D8, r24	; 0x8009d8 <tempController+0xe5>
    150a:	90 93 d9 09 	sts	0x09D9, r25	; 0x8009d9 <tempController+0xe6>
    150e:	a0 93 da 09 	sts	0x09DA, r26	; 0x8009da <tempController+0xe7>
    1512:	b0 93 db 09 	sts	0x09DB, r27	; 0x8009db <tempController+0xe8>
				tempController[BED2].pidIGain = (float)write_value/100.0;
    1516:	89 81       	ldd	r24, Y+1	; 0x01
    1518:	9a 81       	ldd	r25, Y+2	; 0x02
    151a:	cc 01       	movw	r24, r24
    151c:	a0 e0       	ldi	r26, 0x00	; 0
    151e:	b0 e0       	ldi	r27, 0x00	; 0
    1520:	bc 01       	movw	r22, r24
    1522:	cd 01       	movw	r24, r26
    1524:	0e 94 ed 29 	call	0x53da	; 0x53da <__floatunsisf>
    1528:	dc 01       	movw	r26, r24
    152a:	cb 01       	movw	r24, r22
    152c:	20 e0       	ldi	r18, 0x00	; 0
    152e:	30 e0       	ldi	r19, 0x00	; 0
    1530:	48 ec       	ldi	r20, 0xC8	; 200
    1532:	52 e4       	ldi	r21, 0x42	; 66
    1534:	bc 01       	movw	r22, r24
    1536:	cd 01       	movw	r24, r26
    1538:	0e 94 54 29 	call	0x52a8	; 0x52a8 <__divsf3>
    153c:	dc 01       	movw	r26, r24
    153e:	cb 01       	movw	r24, r22
    1540:	80 93 1a 0a 	sts	0x0A1A, r24	; 0x800a1a <tempController+0x127>
    1544:	90 93 1b 0a 	sts	0x0A1B, r25	; 0x800a1b <tempController+0x128>
    1548:	a0 93 1c 0a 	sts	0x0A1C, r26	; 0x800a1c <tempController+0x129>
    154c:	b0 93 1d 0a 	sts	0x0A1D, r27	; 0x800a1d <tempController+0x12a>
				tempController[BED3].pidIGain = (float)write_value/100.0;
    1550:	89 81       	ldd	r24, Y+1	; 0x01
    1552:	9a 81       	ldd	r25, Y+2	; 0x02
    1554:	cc 01       	movw	r24, r24
    1556:	a0 e0       	ldi	r26, 0x00	; 0
    1558:	b0 e0       	ldi	r27, 0x00	; 0
    155a:	bc 01       	movw	r22, r24
    155c:	cd 01       	movw	r24, r26
    155e:	0e 94 ed 29 	call	0x53da	; 0x53da <__floatunsisf>
    1562:	dc 01       	movw	r26, r24
    1564:	cb 01       	movw	r24, r22
    1566:	20 e0       	ldi	r18, 0x00	; 0
    1568:	30 e0       	ldi	r19, 0x00	; 0
    156a:	48 ec       	ldi	r20, 0xC8	; 200
    156c:	52 e4       	ldi	r21, 0x42	; 66
    156e:	bc 01       	movw	r22, r24
    1570:	cd 01       	movw	r24, r26
    1572:	0e 94 54 29 	call	0x52a8	; 0x52a8 <__divsf3>
    1576:	dc 01       	movw	r26, r24
    1578:	cb 01       	movw	r24, r22
    157a:	80 93 5c 0a 	sts	0x0A5C, r24	; 0x800a5c <tempController+0x169>
    157e:	90 93 5d 0a 	sts	0x0A5D, r25	; 0x800a5d <tempController+0x16a>
    1582:	a0 93 5e 0a 	sts	0x0A5E, r26	; 0x800a5e <tempController+0x16b>
    1586:	b0 93 5f 0a 	sts	0x0A5F, r27	; 0x800a5f <tempController+0x16c>
			break;
    158a:	45 c3       	rjmp	.+1674   	; 0x1c16 <mod_write_single_register+0xdac>
			case MODBUS_BED_R_W_PID_I_ADR:
				tempController[BED0].pidIGain = (float)write_value/100.0;
    158c:	89 81       	ldd	r24, Y+1	; 0x01
    158e:	9a 81       	ldd	r25, Y+2	; 0x02
    1590:	cc 01       	movw	r24, r24
    1592:	a0 e0       	ldi	r26, 0x00	; 0
    1594:	b0 e0       	ldi	r27, 0x00	; 0
    1596:	bc 01       	movw	r22, r24
    1598:	cd 01       	movw	r24, r26
    159a:	0e 94 ed 29 	call	0x53da	; 0x53da <__floatunsisf>
    159e:	dc 01       	movw	r26, r24
    15a0:	cb 01       	movw	r24, r22
    15a2:	20 e0       	ldi	r18, 0x00	; 0
    15a4:	30 e0       	ldi	r19, 0x00	; 0
    15a6:	48 ec       	ldi	r20, 0xC8	; 200
    15a8:	52 e4       	ldi	r21, 0x42	; 66
    15aa:	bc 01       	movw	r22, r24
    15ac:	cd 01       	movw	r24, r26
    15ae:	0e 94 54 29 	call	0x52a8	; 0x52a8 <__divsf3>
    15b2:	dc 01       	movw	r26, r24
    15b4:	cb 01       	movw	r24, r22
    15b6:	80 93 96 09 	sts	0x0996, r24	; 0x800996 <tempController+0xa3>
    15ba:	90 93 97 09 	sts	0x0997, r25	; 0x800997 <tempController+0xa4>
    15be:	a0 93 98 09 	sts	0x0998, r26	; 0x800998 <tempController+0xa5>
    15c2:	b0 93 99 09 	sts	0x0999, r27	; 0x800999 <tempController+0xa6>
				tempController[BED1].pidIGain = (float)write_value/100.0;
    15c6:	89 81       	ldd	r24, Y+1	; 0x01
    15c8:	9a 81       	ldd	r25, Y+2	; 0x02
    15ca:	cc 01       	movw	r24, r24
    15cc:	a0 e0       	ldi	r26, 0x00	; 0
    15ce:	b0 e0       	ldi	r27, 0x00	; 0
    15d0:	bc 01       	movw	r22, r24
    15d2:	cd 01       	movw	r24, r26
    15d4:	0e 94 ed 29 	call	0x53da	; 0x53da <__floatunsisf>
    15d8:	dc 01       	movw	r26, r24
    15da:	cb 01       	movw	r24, r22
    15dc:	20 e0       	ldi	r18, 0x00	; 0
    15de:	30 e0       	ldi	r19, 0x00	; 0
    15e0:	48 ec       	ldi	r20, 0xC8	; 200
    15e2:	52 e4       	ldi	r21, 0x42	; 66
    15e4:	bc 01       	movw	r22, r24
    15e6:	cd 01       	movw	r24, r26
    15e8:	0e 94 54 29 	call	0x52a8	; 0x52a8 <__divsf3>
    15ec:	dc 01       	movw	r26, r24
    15ee:	cb 01       	movw	r24, r22
    15f0:	80 93 d8 09 	sts	0x09D8, r24	; 0x8009d8 <tempController+0xe5>
    15f4:	90 93 d9 09 	sts	0x09D9, r25	; 0x8009d9 <tempController+0xe6>
    15f8:	a0 93 da 09 	sts	0x09DA, r26	; 0x8009da <tempController+0xe7>
    15fc:	b0 93 db 09 	sts	0x09DB, r27	; 0x8009db <tempController+0xe8>
				tempController[BED2].pidIGain = (float)write_value/100.0;
    1600:	89 81       	ldd	r24, Y+1	; 0x01
    1602:	9a 81       	ldd	r25, Y+2	; 0x02
    1604:	cc 01       	movw	r24, r24
    1606:	a0 e0       	ldi	r26, 0x00	; 0
    1608:	b0 e0       	ldi	r27, 0x00	; 0
    160a:	bc 01       	movw	r22, r24
    160c:	cd 01       	movw	r24, r26
    160e:	0e 94 ed 29 	call	0x53da	; 0x53da <__floatunsisf>
    1612:	dc 01       	movw	r26, r24
    1614:	cb 01       	movw	r24, r22
    1616:	20 e0       	ldi	r18, 0x00	; 0
    1618:	30 e0       	ldi	r19, 0x00	; 0
    161a:	48 ec       	ldi	r20, 0xC8	; 200
    161c:	52 e4       	ldi	r21, 0x42	; 66
    161e:	bc 01       	movw	r22, r24
    1620:	cd 01       	movw	r24, r26
    1622:	0e 94 54 29 	call	0x52a8	; 0x52a8 <__divsf3>
    1626:	dc 01       	movw	r26, r24
    1628:	cb 01       	movw	r24, r22
    162a:	80 93 1a 0a 	sts	0x0A1A, r24	; 0x800a1a <tempController+0x127>
    162e:	90 93 1b 0a 	sts	0x0A1B, r25	; 0x800a1b <tempController+0x128>
    1632:	a0 93 1c 0a 	sts	0x0A1C, r26	; 0x800a1c <tempController+0x129>
    1636:	b0 93 1d 0a 	sts	0x0A1D, r27	; 0x800a1d <tempController+0x12a>
				tempController[BED3].pidIGain = (float)write_value/100.0;
    163a:	89 81       	ldd	r24, Y+1	; 0x01
    163c:	9a 81       	ldd	r25, Y+2	; 0x02
    163e:	cc 01       	movw	r24, r24
    1640:	a0 e0       	ldi	r26, 0x00	; 0
    1642:	b0 e0       	ldi	r27, 0x00	; 0
    1644:	bc 01       	movw	r22, r24
    1646:	cd 01       	movw	r24, r26
    1648:	0e 94 ed 29 	call	0x53da	; 0x53da <__floatunsisf>
    164c:	dc 01       	movw	r26, r24
    164e:	cb 01       	movw	r24, r22
    1650:	20 e0       	ldi	r18, 0x00	; 0
    1652:	30 e0       	ldi	r19, 0x00	; 0
    1654:	48 ec       	ldi	r20, 0xC8	; 200
    1656:	52 e4       	ldi	r21, 0x42	; 66
    1658:	bc 01       	movw	r22, r24
    165a:	cd 01       	movw	r24, r26
    165c:	0e 94 54 29 	call	0x52a8	; 0x52a8 <__divsf3>
    1660:	dc 01       	movw	r26, r24
    1662:	cb 01       	movw	r24, r22
    1664:	80 93 5c 0a 	sts	0x0A5C, r24	; 0x800a5c <tempController+0x169>
    1668:	90 93 5d 0a 	sts	0x0A5D, r25	; 0x800a5d <tempController+0x16a>
    166c:	a0 93 5e 0a 	sts	0x0A5E, r26	; 0x800a5e <tempController+0x16b>
    1670:	b0 93 5f 0a 	sts	0x0A5F, r27	; 0x800a5f <tempController+0x16c>
			break;
    1674:	d0 c2       	rjmp	.+1440   	; 0x1c16 <mod_write_single_register+0xdac>
			case MODBUS_BED_R_W_PID_D_ADR:
				tempController[BED0].pidDGain = (float)write_value/100.0;
    1676:	89 81       	ldd	r24, Y+1	; 0x01
    1678:	9a 81       	ldd	r25, Y+2	; 0x02
    167a:	cc 01       	movw	r24, r24
    167c:	a0 e0       	ldi	r26, 0x00	; 0
    167e:	b0 e0       	ldi	r27, 0x00	; 0
    1680:	bc 01       	movw	r22, r24
    1682:	cd 01       	movw	r24, r26
    1684:	0e 94 ed 29 	call	0x53da	; 0x53da <__floatunsisf>
    1688:	dc 01       	movw	r26, r24
    168a:	cb 01       	movw	r24, r22
    168c:	20 e0       	ldi	r18, 0x00	; 0
    168e:	30 e0       	ldi	r19, 0x00	; 0
    1690:	48 ec       	ldi	r20, 0xC8	; 200
    1692:	52 e4       	ldi	r21, 0x42	; 66
    1694:	bc 01       	movw	r22, r24
    1696:	cd 01       	movw	r24, r26
    1698:	0e 94 54 29 	call	0x52a8	; 0x52a8 <__divsf3>
    169c:	dc 01       	movw	r26, r24
    169e:	cb 01       	movw	r24, r22
    16a0:	80 93 9a 09 	sts	0x099A, r24	; 0x80099a <tempController+0xa7>
    16a4:	90 93 9b 09 	sts	0x099B, r25	; 0x80099b <tempController+0xa8>
    16a8:	a0 93 9c 09 	sts	0x099C, r26	; 0x80099c <tempController+0xa9>
    16ac:	b0 93 9d 09 	sts	0x099D, r27	; 0x80099d <tempController+0xaa>
				tempController[BED1].pidDGain = (float)write_value/100.0;
    16b0:	89 81       	ldd	r24, Y+1	; 0x01
    16b2:	9a 81       	ldd	r25, Y+2	; 0x02
    16b4:	cc 01       	movw	r24, r24
    16b6:	a0 e0       	ldi	r26, 0x00	; 0
    16b8:	b0 e0       	ldi	r27, 0x00	; 0
    16ba:	bc 01       	movw	r22, r24
    16bc:	cd 01       	movw	r24, r26
    16be:	0e 94 ed 29 	call	0x53da	; 0x53da <__floatunsisf>
    16c2:	dc 01       	movw	r26, r24
    16c4:	cb 01       	movw	r24, r22
    16c6:	20 e0       	ldi	r18, 0x00	; 0
    16c8:	30 e0       	ldi	r19, 0x00	; 0
    16ca:	48 ec       	ldi	r20, 0xC8	; 200
    16cc:	52 e4       	ldi	r21, 0x42	; 66
    16ce:	bc 01       	movw	r22, r24
    16d0:	cd 01       	movw	r24, r26
    16d2:	0e 94 54 29 	call	0x52a8	; 0x52a8 <__divsf3>
    16d6:	dc 01       	movw	r26, r24
    16d8:	cb 01       	movw	r24, r22
    16da:	80 93 dc 09 	sts	0x09DC, r24	; 0x8009dc <tempController+0xe9>
    16de:	90 93 dd 09 	sts	0x09DD, r25	; 0x8009dd <tempController+0xea>
    16e2:	a0 93 de 09 	sts	0x09DE, r26	; 0x8009de <tempController+0xeb>
    16e6:	b0 93 df 09 	sts	0x09DF, r27	; 0x8009df <tempController+0xec>
				tempController[BED2].pidDGain = (float)write_value/100.0;
    16ea:	89 81       	ldd	r24, Y+1	; 0x01
    16ec:	9a 81       	ldd	r25, Y+2	; 0x02
    16ee:	cc 01       	movw	r24, r24
    16f0:	a0 e0       	ldi	r26, 0x00	; 0
    16f2:	b0 e0       	ldi	r27, 0x00	; 0
    16f4:	bc 01       	movw	r22, r24
    16f6:	cd 01       	movw	r24, r26
    16f8:	0e 94 ed 29 	call	0x53da	; 0x53da <__floatunsisf>
    16fc:	dc 01       	movw	r26, r24
    16fe:	cb 01       	movw	r24, r22
    1700:	20 e0       	ldi	r18, 0x00	; 0
    1702:	30 e0       	ldi	r19, 0x00	; 0
    1704:	48 ec       	ldi	r20, 0xC8	; 200
    1706:	52 e4       	ldi	r21, 0x42	; 66
    1708:	bc 01       	movw	r22, r24
    170a:	cd 01       	movw	r24, r26
    170c:	0e 94 54 29 	call	0x52a8	; 0x52a8 <__divsf3>
    1710:	dc 01       	movw	r26, r24
    1712:	cb 01       	movw	r24, r22
    1714:	80 93 1e 0a 	sts	0x0A1E, r24	; 0x800a1e <tempController+0x12b>
    1718:	90 93 1f 0a 	sts	0x0A1F, r25	; 0x800a1f <tempController+0x12c>
    171c:	a0 93 20 0a 	sts	0x0A20, r26	; 0x800a20 <tempController+0x12d>
    1720:	b0 93 21 0a 	sts	0x0A21, r27	; 0x800a21 <tempController+0x12e>
				tempController[BED3].pidDGain = (float)write_value/100.0;
    1724:	89 81       	ldd	r24, Y+1	; 0x01
    1726:	9a 81       	ldd	r25, Y+2	; 0x02
    1728:	cc 01       	movw	r24, r24
    172a:	a0 e0       	ldi	r26, 0x00	; 0
    172c:	b0 e0       	ldi	r27, 0x00	; 0
    172e:	bc 01       	movw	r22, r24
    1730:	cd 01       	movw	r24, r26
    1732:	0e 94 ed 29 	call	0x53da	; 0x53da <__floatunsisf>
    1736:	dc 01       	movw	r26, r24
    1738:	cb 01       	movw	r24, r22
    173a:	20 e0       	ldi	r18, 0x00	; 0
    173c:	30 e0       	ldi	r19, 0x00	; 0
    173e:	48 ec       	ldi	r20, 0xC8	; 200
    1740:	52 e4       	ldi	r21, 0x42	; 66
    1742:	bc 01       	movw	r22, r24
    1744:	cd 01       	movw	r24, r26
    1746:	0e 94 54 29 	call	0x52a8	; 0x52a8 <__divsf3>
    174a:	dc 01       	movw	r26, r24
    174c:	cb 01       	movw	r24, r22
    174e:	80 93 60 0a 	sts	0x0A60, r24	; 0x800a60 <tempController+0x16d>
    1752:	90 93 61 0a 	sts	0x0A61, r25	; 0x800a61 <tempController+0x16e>
    1756:	a0 93 62 0a 	sts	0x0A62, r26	; 0x800a62 <tempController+0x16f>
    175a:	b0 93 63 0a 	sts	0x0A63, r27	; 0x800a63 <tempController+0x170>
			break;
    175e:	5b c2       	rjmp	.+1206   	; 0x1c16 <mod_write_single_register+0xdac>
			case MODBUS_BED_R_W_DRIVE_MAX_ADR:
				tempController[BED0].pidDriveMax = write_value;
    1760:	89 81       	ldd	r24, Y+1	; 0x01
    1762:	80 93 90 09 	sts	0x0990, r24	; 0x800990 <tempController+0x9d>
				tempController[BED1].pidDriveMax = write_value;
    1766:	89 81       	ldd	r24, Y+1	; 0x01
    1768:	80 93 d2 09 	sts	0x09D2, r24	; 0x8009d2 <tempController+0xdf>
				tempController[BED2].pidDriveMax = write_value;
    176c:	89 81       	ldd	r24, Y+1	; 0x01
    176e:	80 93 14 0a 	sts	0x0A14, r24	; 0x800a14 <tempController+0x121>
				tempController[BED3].pidDriveMax = write_value;
    1772:	89 81       	ldd	r24, Y+1	; 0x01
    1774:	80 93 56 0a 	sts	0x0A56, r24	; 0x800a56 <tempController+0x163>
			break;
    1778:	4e c2       	rjmp	.+1180   	; 0x1c16 <mod_write_single_register+0xdac>
			case MODBUS_BED_R_W_DRVE_MIN_ADR:
				tempController[BED0].pidDriveMin = write_value;
    177a:	89 81       	ldd	r24, Y+1	; 0x01
    177c:	80 93 91 09 	sts	0x0991, r24	; 0x800991 <tempController+0x9e>
				tempController[BED1].pidDriveMin = write_value;
    1780:	89 81       	ldd	r24, Y+1	; 0x01
    1782:	80 93 d3 09 	sts	0x09D3, r24	; 0x8009d3 <tempController+0xe0>
				tempController[BED2].pidDriveMin = write_value;
    1786:	89 81       	ldd	r24, Y+1	; 0x01
    1788:	80 93 15 0a 	sts	0x0A15, r24	; 0x800a15 <tempController+0x122>
				tempController[BED3].pidDriveMin = write_value;
    178c:	89 81       	ldd	r24, Y+1	; 0x01
    178e:	80 93 57 0a 	sts	0x0A57, r24	; 0x800a57 <tempController+0x164>
			break;
    1792:	41 c2       	rjmp	.+1154   	; 0x1c16 <mod_write_single_register+0xdac>
			case MODBUS_BED_R_W_PID_MAX_ADR:	
				tempController[BED0].pidMax = write_value;
    1794:	89 81       	ldd	r24, Y+1	; 0x01
    1796:	80 93 9e 09 	sts	0x099E, r24	; 0x80099e <tempController+0xab>
				tempController[BED1].pidMax = write_value;
    179a:	89 81       	ldd	r24, Y+1	; 0x01
    179c:	80 93 e0 09 	sts	0x09E0, r24	; 0x8009e0 <tempController+0xed>
				tempController[BED2].pidMax = write_value;
    17a0:	89 81       	ldd	r24, Y+1	; 0x01
    17a2:	80 93 22 0a 	sts	0x0A22, r24	; 0x800a22 <tempController+0x12f>
				tempController[BED3].pidMax = write_value;
    17a6:	89 81       	ldd	r24, Y+1	; 0x01
    17a8:	80 93 64 0a 	sts	0x0A64, r24	; 0x800a64 <tempController+0x171>
			break;	
    17ac:	34 c2       	rjmp	.+1128   	; 0x1c16 <mod_write_single_register+0xdac>
				//--------------CHAMBER0---------------			
			case MODBUS_CHAMBER0_R_W_SENSOR_TYPE_ADR:
				tempController[CHAMB0].sensorType = write_value;
    17ae:	89 81       	ldd	r24, Y+1	; 0x01
    17b0:	80 93 81 0a 	sts	0x0A81, r24	; 0x800a81 <tempController+0x18e>
			break;
    17b4:	30 c2       	rjmp	.+1120   	; 0x1c16 <mod_write_single_register+0xdac>
			case MODBUS_CHAMBER0_R_W_HEAT_MANAGER_ADR:
				tempController[CHAMB0].heatManager = write_value;
    17b6:	89 81       	ldd	r24, Y+1	; 0x01
    17b8:	80 93 93 0a 	sts	0x0A93, r24	; 0x800a93 <tempController+0x1a0>
			break;
    17bc:	2c c2       	rjmp	.+1112   	; 0x1c16 <mod_write_single_register+0xdac>
			case MODBUS_CHAMBER0_R_W_PID_P_ADR:
				tempController[CHAMB0].pidPGain = (float)write_value/100.0;
    17be:	89 81       	ldd	r24, Y+1	; 0x01
    17c0:	9a 81       	ldd	r25, Y+2	; 0x02
    17c2:	cc 01       	movw	r24, r24
    17c4:	a0 e0       	ldi	r26, 0x00	; 0
    17c6:	b0 e0       	ldi	r27, 0x00	; 0
    17c8:	bc 01       	movw	r22, r24
    17ca:	cd 01       	movw	r24, r26
    17cc:	0e 94 ed 29 	call	0x53da	; 0x53da <__floatunsisf>
    17d0:	dc 01       	movw	r26, r24
    17d2:	cb 01       	movw	r24, r22
    17d4:	20 e0       	ldi	r18, 0x00	; 0
    17d6:	30 e0       	ldi	r19, 0x00	; 0
    17d8:	48 ec       	ldi	r20, 0xC8	; 200
    17da:	52 e4       	ldi	r21, 0x42	; 66
    17dc:	bc 01       	movw	r22, r24
    17de:	cd 01       	movw	r24, r26
    17e0:	0e 94 54 29 	call	0x52a8	; 0x52a8 <__divsf3>
    17e4:	dc 01       	movw	r26, r24
    17e6:	cb 01       	movw	r24, r22
    17e8:	80 93 9a 0a 	sts	0x0A9A, r24	; 0x800a9a <tempController+0x1a7>
    17ec:	90 93 9b 0a 	sts	0x0A9B, r25	; 0x800a9b <tempController+0x1a8>
    17f0:	a0 93 9c 0a 	sts	0x0A9C, r26	; 0x800a9c <tempController+0x1a9>
    17f4:	b0 93 9d 0a 	sts	0x0A9D, r27	; 0x800a9d <tempController+0x1aa>
			break;
    17f8:	0e c2       	rjmp	.+1052   	; 0x1c16 <mod_write_single_register+0xdac>
			case MODBUS_CHAMBER0_R_W_PID_I_ADR:
				tempController[CHAMB0].pidIGain = (float)write_value/100.0;
    17fa:	89 81       	ldd	r24, Y+1	; 0x01
    17fc:	9a 81       	ldd	r25, Y+2	; 0x02
    17fe:	cc 01       	movw	r24, r24
    1800:	a0 e0       	ldi	r26, 0x00	; 0
    1802:	b0 e0       	ldi	r27, 0x00	; 0
    1804:	bc 01       	movw	r22, r24
    1806:	cd 01       	movw	r24, r26
    1808:	0e 94 ed 29 	call	0x53da	; 0x53da <__floatunsisf>
    180c:	dc 01       	movw	r26, r24
    180e:	cb 01       	movw	r24, r22
    1810:	20 e0       	ldi	r18, 0x00	; 0
    1812:	30 e0       	ldi	r19, 0x00	; 0
    1814:	48 ec       	ldi	r20, 0xC8	; 200
    1816:	52 e4       	ldi	r21, 0x42	; 66
    1818:	bc 01       	movw	r22, r24
    181a:	cd 01       	movw	r24, r26
    181c:	0e 94 54 29 	call	0x52a8	; 0x52a8 <__divsf3>
    1820:	dc 01       	movw	r26, r24
    1822:	cb 01       	movw	r24, r22
    1824:	80 93 9e 0a 	sts	0x0A9E, r24	; 0x800a9e <tempController+0x1ab>
    1828:	90 93 9f 0a 	sts	0x0A9F, r25	; 0x800a9f <tempController+0x1ac>
    182c:	a0 93 a0 0a 	sts	0x0AA0, r26	; 0x800aa0 <tempController+0x1ad>
    1830:	b0 93 a1 0a 	sts	0x0AA1, r27	; 0x800aa1 <tempController+0x1ae>
			break;
    1834:	f0 c1       	rjmp	.+992    	; 0x1c16 <mod_write_single_register+0xdac>
			case MODBUS_CHAMBER0_R_W_PID_D_ADR:
				tempController[CHAMB0].pidDGain = (float)write_value/100.0;
    1836:	89 81       	ldd	r24, Y+1	; 0x01
    1838:	9a 81       	ldd	r25, Y+2	; 0x02
    183a:	cc 01       	movw	r24, r24
    183c:	a0 e0       	ldi	r26, 0x00	; 0
    183e:	b0 e0       	ldi	r27, 0x00	; 0
    1840:	bc 01       	movw	r22, r24
    1842:	cd 01       	movw	r24, r26
    1844:	0e 94 ed 29 	call	0x53da	; 0x53da <__floatunsisf>
    1848:	dc 01       	movw	r26, r24
    184a:	cb 01       	movw	r24, r22
    184c:	20 e0       	ldi	r18, 0x00	; 0
    184e:	30 e0       	ldi	r19, 0x00	; 0
    1850:	48 ec       	ldi	r20, 0xC8	; 200
    1852:	52 e4       	ldi	r21, 0x42	; 66
    1854:	bc 01       	movw	r22, r24
    1856:	cd 01       	movw	r24, r26
    1858:	0e 94 54 29 	call	0x52a8	; 0x52a8 <__divsf3>
    185c:	dc 01       	movw	r26, r24
    185e:	cb 01       	movw	r24, r22
    1860:	80 93 a2 0a 	sts	0x0AA2, r24	; 0x800aa2 <tempController+0x1af>
    1864:	90 93 a3 0a 	sts	0x0AA3, r25	; 0x800aa3 <tempController+0x1b0>
    1868:	a0 93 a4 0a 	sts	0x0AA4, r26	; 0x800aa4 <tempController+0x1b1>
    186c:	b0 93 a5 0a 	sts	0x0AA5, r27	; 0x800aa5 <tempController+0x1b2>
			break;
    1870:	d2 c1       	rjmp	.+932    	; 0x1c16 <mod_write_single_register+0xdac>
			case MODBUS_CHAMBER0_R_W_DRIVE_MAX_ADR:
				tempController[CHAMB0].pidDriveMax = write_value;
    1872:	89 81       	ldd	r24, Y+1	; 0x01
    1874:	80 93 98 0a 	sts	0x0A98, r24	; 0x800a98 <tempController+0x1a5>
			break;
    1878:	ce c1       	rjmp	.+924    	; 0x1c16 <mod_write_single_register+0xdac>
			case MODBUS_CHAMBER0_R_W_DRVE_MIN_ADR:
				tempController[CHAMB0].pidDriveMin = write_value;
    187a:	89 81       	ldd	r24, Y+1	; 0x01
    187c:	80 93 99 0a 	sts	0x0A99, r24	; 0x800a99 <tempController+0x1a6>
			break;
    1880:	ca c1       	rjmp	.+916    	; 0x1c16 <mod_write_single_register+0xdac>
			case MODBUS_CHAMBER0_R_W_PID_MAX_ADR:	
				tempController[CHAMB0].pidMax = write_value;
    1882:	89 81       	ldd	r24, Y+1	; 0x01
    1884:	80 93 a6 0a 	sts	0x0AA6, r24	; 0x800aa6 <tempController+0x1b3>
			break;			
    1888:	c6 c1       	rjmp	.+908    	; 0x1c16 <mod_write_single_register+0xdac>
	//--------------BED0---------------			
			case MODBUS_BED0_R_W_SENSOR_TYPE_ADR:
				tempController[BED0].sensorType = write_value;
    188a:	89 81       	ldd	r24, Y+1	; 0x01
    188c:	80 93 79 09 	sts	0x0979, r24	; 0x800979 <tempController+0x86>
			break;
    1890:	c2 c1       	rjmp	.+900    	; 0x1c16 <mod_write_single_register+0xdac>
			case MODBUS_BED0_R_W_HEAT_MANAGER_ADR:
				tempController[BED0].heatManager = write_value;
    1892:	89 81       	ldd	r24, Y+1	; 0x01
    1894:	80 93 8b 09 	sts	0x098B, r24	; 0x80098b <tempController+0x98>
			break;
    1898:	be c1       	rjmp	.+892    	; 0x1c16 <mod_write_single_register+0xdac>
			case MODBUS_BED0_R_W_PID_P_ADR:
				tempController[BED0].pidPGain = (float)write_value/100.0;
    189a:	89 81       	ldd	r24, Y+1	; 0x01
    189c:	9a 81       	ldd	r25, Y+2	; 0x02
    189e:	cc 01       	movw	r24, r24
    18a0:	a0 e0       	ldi	r26, 0x00	; 0
    18a2:	b0 e0       	ldi	r27, 0x00	; 0
    18a4:	bc 01       	movw	r22, r24
    18a6:	cd 01       	movw	r24, r26
    18a8:	0e 94 ed 29 	call	0x53da	; 0x53da <__floatunsisf>
    18ac:	dc 01       	movw	r26, r24
    18ae:	cb 01       	movw	r24, r22
    18b0:	20 e0       	ldi	r18, 0x00	; 0
    18b2:	30 e0       	ldi	r19, 0x00	; 0
    18b4:	48 ec       	ldi	r20, 0xC8	; 200
    18b6:	52 e4       	ldi	r21, 0x42	; 66
    18b8:	bc 01       	movw	r22, r24
    18ba:	cd 01       	movw	r24, r26
    18bc:	0e 94 54 29 	call	0x52a8	; 0x52a8 <__divsf3>
    18c0:	dc 01       	movw	r26, r24
    18c2:	cb 01       	movw	r24, r22
    18c4:	80 93 92 09 	sts	0x0992, r24	; 0x800992 <tempController+0x9f>
    18c8:	90 93 93 09 	sts	0x0993, r25	; 0x800993 <tempController+0xa0>
    18cc:	a0 93 94 09 	sts	0x0994, r26	; 0x800994 <tempController+0xa1>
    18d0:	b0 93 95 09 	sts	0x0995, r27	; 0x800995 <tempController+0xa2>
			break;
    18d4:	a0 c1       	rjmp	.+832    	; 0x1c16 <mod_write_single_register+0xdac>
			case MODBUS_BED0_R_W_PID_I_ADR:
				tempController[BED0].pidIGain = (float)write_value/100.0;
    18d6:	89 81       	ldd	r24, Y+1	; 0x01
    18d8:	9a 81       	ldd	r25, Y+2	; 0x02
    18da:	cc 01       	movw	r24, r24
    18dc:	a0 e0       	ldi	r26, 0x00	; 0
    18de:	b0 e0       	ldi	r27, 0x00	; 0
    18e0:	bc 01       	movw	r22, r24
    18e2:	cd 01       	movw	r24, r26
    18e4:	0e 94 ed 29 	call	0x53da	; 0x53da <__floatunsisf>
    18e8:	dc 01       	movw	r26, r24
    18ea:	cb 01       	movw	r24, r22
    18ec:	20 e0       	ldi	r18, 0x00	; 0
    18ee:	30 e0       	ldi	r19, 0x00	; 0
    18f0:	48 ec       	ldi	r20, 0xC8	; 200
    18f2:	52 e4       	ldi	r21, 0x42	; 66
    18f4:	bc 01       	movw	r22, r24
    18f6:	cd 01       	movw	r24, r26
    18f8:	0e 94 54 29 	call	0x52a8	; 0x52a8 <__divsf3>
    18fc:	dc 01       	movw	r26, r24
    18fe:	cb 01       	movw	r24, r22
    1900:	80 93 96 09 	sts	0x0996, r24	; 0x800996 <tempController+0xa3>
    1904:	90 93 97 09 	sts	0x0997, r25	; 0x800997 <tempController+0xa4>
    1908:	a0 93 98 09 	sts	0x0998, r26	; 0x800998 <tempController+0xa5>
    190c:	b0 93 99 09 	sts	0x0999, r27	; 0x800999 <tempController+0xa6>
			break;
    1910:	82 c1       	rjmp	.+772    	; 0x1c16 <mod_write_single_register+0xdac>
			case MODBUS_BED0_R_W_PID_D_ADR:
				tempController[BED0].pidDGain = (float)write_value/100.0;
    1912:	89 81       	ldd	r24, Y+1	; 0x01
    1914:	9a 81       	ldd	r25, Y+2	; 0x02
    1916:	cc 01       	movw	r24, r24
    1918:	a0 e0       	ldi	r26, 0x00	; 0
    191a:	b0 e0       	ldi	r27, 0x00	; 0
    191c:	bc 01       	movw	r22, r24
    191e:	cd 01       	movw	r24, r26
    1920:	0e 94 ed 29 	call	0x53da	; 0x53da <__floatunsisf>
    1924:	dc 01       	movw	r26, r24
    1926:	cb 01       	movw	r24, r22
    1928:	20 e0       	ldi	r18, 0x00	; 0
    192a:	30 e0       	ldi	r19, 0x00	; 0
    192c:	48 ec       	ldi	r20, 0xC8	; 200
    192e:	52 e4       	ldi	r21, 0x42	; 66
    1930:	bc 01       	movw	r22, r24
    1932:	cd 01       	movw	r24, r26
    1934:	0e 94 54 29 	call	0x52a8	; 0x52a8 <__divsf3>
    1938:	dc 01       	movw	r26, r24
    193a:	cb 01       	movw	r24, r22
    193c:	80 93 9a 09 	sts	0x099A, r24	; 0x80099a <tempController+0xa7>
    1940:	90 93 9b 09 	sts	0x099B, r25	; 0x80099b <tempController+0xa8>
    1944:	a0 93 9c 09 	sts	0x099C, r26	; 0x80099c <tempController+0xa9>
    1948:	b0 93 9d 09 	sts	0x099D, r27	; 0x80099d <tempController+0xaa>
			break;
    194c:	64 c1       	rjmp	.+712    	; 0x1c16 <mod_write_single_register+0xdac>
			case MODBUS_BED0_R_W_DRIVE_MAX_ADR:
				tempController[BED0].pidDriveMax = write_value;
    194e:	89 81       	ldd	r24, Y+1	; 0x01
    1950:	80 93 90 09 	sts	0x0990, r24	; 0x800990 <tempController+0x9d>
			break;
    1954:	60 c1       	rjmp	.+704    	; 0x1c16 <mod_write_single_register+0xdac>
			case MODBUS_BED0_R_W_DRVE_MIN_ADR:
				tempController[BED0].pidDriveMin = write_value;
    1956:	89 81       	ldd	r24, Y+1	; 0x01
    1958:	80 93 91 09 	sts	0x0991, r24	; 0x800991 <tempController+0x9e>
			break;
    195c:	5c c1       	rjmp	.+696    	; 0x1c16 <mod_write_single_register+0xdac>
			case MODBUS_BED0_R_W_PID_MAX_ADR:	
				tempController[BED0].pidMax = write_value;
    195e:	89 81       	ldd	r24, Y+1	; 0x01
    1960:	80 93 9e 09 	sts	0x099E, r24	; 0x80099e <tempController+0xab>
			break;	
    1964:	58 c1       	rjmp	.+688    	; 0x1c16 <mod_write_single_register+0xdac>
//--------------BED1---------------			
			case MODBUS_BED1_R_W_SENSOR_TYPE_ADR:
				tempController[BED1].sensorType = write_value;
    1966:	89 81       	ldd	r24, Y+1	; 0x01
    1968:	80 93 bb 09 	sts	0x09BB, r24	; 0x8009bb <tempController+0xc8>
			break;
    196c:	54 c1       	rjmp	.+680    	; 0x1c16 <mod_write_single_register+0xdac>
			case MODBUS_BED1_R_W_HEAT_MANAGER_ADR:
				tempController[BED1].heatManager = write_value;
    196e:	89 81       	ldd	r24, Y+1	; 0x01
    1970:	80 93 cd 09 	sts	0x09CD, r24	; 0x8009cd <tempController+0xda>
			break;
    1974:	50 c1       	rjmp	.+672    	; 0x1c16 <mod_write_single_register+0xdac>
			case MODBUS_BED1_R_W_PID_P_ADR:
				tempController[BED1].pidPGain = (float)write_value/100.0;
    1976:	89 81       	ldd	r24, Y+1	; 0x01
    1978:	9a 81       	ldd	r25, Y+2	; 0x02
    197a:	cc 01       	movw	r24, r24
    197c:	a0 e0       	ldi	r26, 0x00	; 0
    197e:	b0 e0       	ldi	r27, 0x00	; 0
    1980:	bc 01       	movw	r22, r24
    1982:	cd 01       	movw	r24, r26
    1984:	0e 94 ed 29 	call	0x53da	; 0x53da <__floatunsisf>
    1988:	dc 01       	movw	r26, r24
    198a:	cb 01       	movw	r24, r22
    198c:	20 e0       	ldi	r18, 0x00	; 0
    198e:	30 e0       	ldi	r19, 0x00	; 0
    1990:	48 ec       	ldi	r20, 0xC8	; 200
    1992:	52 e4       	ldi	r21, 0x42	; 66
    1994:	bc 01       	movw	r22, r24
    1996:	cd 01       	movw	r24, r26
    1998:	0e 94 54 29 	call	0x52a8	; 0x52a8 <__divsf3>
    199c:	dc 01       	movw	r26, r24
    199e:	cb 01       	movw	r24, r22
    19a0:	80 93 d4 09 	sts	0x09D4, r24	; 0x8009d4 <tempController+0xe1>
    19a4:	90 93 d5 09 	sts	0x09D5, r25	; 0x8009d5 <tempController+0xe2>
    19a8:	a0 93 d6 09 	sts	0x09D6, r26	; 0x8009d6 <tempController+0xe3>
    19ac:	b0 93 d7 09 	sts	0x09D7, r27	; 0x8009d7 <tempController+0xe4>
			break;
    19b0:	32 c1       	rjmp	.+612    	; 0x1c16 <mod_write_single_register+0xdac>
			case MODBUS_BED1_R_W_PID_I_ADR:
				tempController[BED1].pidIGain = (float)write_value/100.0;
    19b2:	89 81       	ldd	r24, Y+1	; 0x01
    19b4:	9a 81       	ldd	r25, Y+2	; 0x02
    19b6:	cc 01       	movw	r24, r24
    19b8:	a0 e0       	ldi	r26, 0x00	; 0
    19ba:	b0 e0       	ldi	r27, 0x00	; 0
    19bc:	bc 01       	movw	r22, r24
    19be:	cd 01       	movw	r24, r26
    19c0:	0e 94 ed 29 	call	0x53da	; 0x53da <__floatunsisf>
    19c4:	dc 01       	movw	r26, r24
    19c6:	cb 01       	movw	r24, r22
    19c8:	20 e0       	ldi	r18, 0x00	; 0
    19ca:	30 e0       	ldi	r19, 0x00	; 0
    19cc:	48 ec       	ldi	r20, 0xC8	; 200
    19ce:	52 e4       	ldi	r21, 0x42	; 66
    19d0:	bc 01       	movw	r22, r24
    19d2:	cd 01       	movw	r24, r26
    19d4:	0e 94 54 29 	call	0x52a8	; 0x52a8 <__divsf3>
    19d8:	dc 01       	movw	r26, r24
    19da:	cb 01       	movw	r24, r22
    19dc:	80 93 d8 09 	sts	0x09D8, r24	; 0x8009d8 <tempController+0xe5>
    19e0:	90 93 d9 09 	sts	0x09D9, r25	; 0x8009d9 <tempController+0xe6>
    19e4:	a0 93 da 09 	sts	0x09DA, r26	; 0x8009da <tempController+0xe7>
    19e8:	b0 93 db 09 	sts	0x09DB, r27	; 0x8009db <tempController+0xe8>
			break;
    19ec:	14 c1       	rjmp	.+552    	; 0x1c16 <mod_write_single_register+0xdac>
			case MODBUS_BED1_R_W_PID_D_ADR:
				tempController[BED1].pidDGain = (float)write_value/100.0;
    19ee:	89 81       	ldd	r24, Y+1	; 0x01
    19f0:	9a 81       	ldd	r25, Y+2	; 0x02
    19f2:	cc 01       	movw	r24, r24
    19f4:	a0 e0       	ldi	r26, 0x00	; 0
    19f6:	b0 e0       	ldi	r27, 0x00	; 0
    19f8:	bc 01       	movw	r22, r24
    19fa:	cd 01       	movw	r24, r26
    19fc:	0e 94 ed 29 	call	0x53da	; 0x53da <__floatunsisf>
    1a00:	dc 01       	movw	r26, r24
    1a02:	cb 01       	movw	r24, r22
    1a04:	20 e0       	ldi	r18, 0x00	; 0
    1a06:	30 e0       	ldi	r19, 0x00	; 0
    1a08:	48 ec       	ldi	r20, 0xC8	; 200
    1a0a:	52 e4       	ldi	r21, 0x42	; 66
    1a0c:	bc 01       	movw	r22, r24
    1a0e:	cd 01       	movw	r24, r26
    1a10:	0e 94 54 29 	call	0x52a8	; 0x52a8 <__divsf3>
    1a14:	dc 01       	movw	r26, r24
    1a16:	cb 01       	movw	r24, r22
    1a18:	80 93 dc 09 	sts	0x09DC, r24	; 0x8009dc <tempController+0xe9>
    1a1c:	90 93 dd 09 	sts	0x09DD, r25	; 0x8009dd <tempController+0xea>
    1a20:	a0 93 de 09 	sts	0x09DE, r26	; 0x8009de <tempController+0xeb>
    1a24:	b0 93 df 09 	sts	0x09DF, r27	; 0x8009df <tempController+0xec>
			break;
    1a28:	f6 c0       	rjmp	.+492    	; 0x1c16 <mod_write_single_register+0xdac>
			case MODBUS_BED1_R_W_DRIVE_MAX_ADR:
				tempController[BED1].pidDriveMax = write_value;
    1a2a:	89 81       	ldd	r24, Y+1	; 0x01
    1a2c:	80 93 d2 09 	sts	0x09D2, r24	; 0x8009d2 <tempController+0xdf>
			break;
    1a30:	f2 c0       	rjmp	.+484    	; 0x1c16 <mod_write_single_register+0xdac>
			case MODBUS_BED1_R_W_DRVE_MIN_ADR:
				tempController[BED1].pidDriveMin = write_value;
    1a32:	89 81       	ldd	r24, Y+1	; 0x01
    1a34:	80 93 d3 09 	sts	0x09D3, r24	; 0x8009d3 <tempController+0xe0>
			break;
    1a38:	ee c0       	rjmp	.+476    	; 0x1c16 <mod_write_single_register+0xdac>
			case MODBUS_BED1_R_W_PID_MAX_ADR:	
				tempController[BED1].pidMax = write_value;
    1a3a:	89 81       	ldd	r24, Y+1	; 0x01
    1a3c:	80 93 e0 09 	sts	0x09E0, r24	; 0x8009e0 <tempController+0xed>
			break;
    1a40:	ea c0       	rjmp	.+468    	; 0x1c16 <mod_write_single_register+0xdac>
//--------------BED2---------------			
			case MODBUS_BED2_R_W_SENSOR_TYPE_ADR:
				tempController[BED2].sensorType = write_value;
    1a42:	89 81       	ldd	r24, Y+1	; 0x01
    1a44:	80 93 fd 09 	sts	0x09FD, r24	; 0x8009fd <tempController+0x10a>
			break;
    1a48:	e6 c0       	rjmp	.+460    	; 0x1c16 <mod_write_single_register+0xdac>
			case MODBUS_BED2_R_W_HEAT_MANAGER_ADR:
				tempController[BED2].heatManager = write_value;
    1a4a:	89 81       	ldd	r24, Y+1	; 0x01
    1a4c:	80 93 0f 0a 	sts	0x0A0F, r24	; 0x800a0f <tempController+0x11c>
			break;
    1a50:	e2 c0       	rjmp	.+452    	; 0x1c16 <mod_write_single_register+0xdac>
			case MODBUS_BED2_R_W_PID_P_ADR:
				tempController[BED2].pidPGain = (float)write_value/100.0;
    1a52:	89 81       	ldd	r24, Y+1	; 0x01
    1a54:	9a 81       	ldd	r25, Y+2	; 0x02
    1a56:	cc 01       	movw	r24, r24
    1a58:	a0 e0       	ldi	r26, 0x00	; 0
    1a5a:	b0 e0       	ldi	r27, 0x00	; 0
    1a5c:	bc 01       	movw	r22, r24
    1a5e:	cd 01       	movw	r24, r26
    1a60:	0e 94 ed 29 	call	0x53da	; 0x53da <__floatunsisf>
    1a64:	dc 01       	movw	r26, r24
    1a66:	cb 01       	movw	r24, r22
    1a68:	20 e0       	ldi	r18, 0x00	; 0
    1a6a:	30 e0       	ldi	r19, 0x00	; 0
    1a6c:	48 ec       	ldi	r20, 0xC8	; 200
    1a6e:	52 e4       	ldi	r21, 0x42	; 66
    1a70:	bc 01       	movw	r22, r24
    1a72:	cd 01       	movw	r24, r26
    1a74:	0e 94 54 29 	call	0x52a8	; 0x52a8 <__divsf3>
    1a78:	dc 01       	movw	r26, r24
    1a7a:	cb 01       	movw	r24, r22
    1a7c:	80 93 16 0a 	sts	0x0A16, r24	; 0x800a16 <tempController+0x123>
    1a80:	90 93 17 0a 	sts	0x0A17, r25	; 0x800a17 <tempController+0x124>
    1a84:	a0 93 18 0a 	sts	0x0A18, r26	; 0x800a18 <tempController+0x125>
    1a88:	b0 93 19 0a 	sts	0x0A19, r27	; 0x800a19 <tempController+0x126>
			break;
    1a8c:	c4 c0       	rjmp	.+392    	; 0x1c16 <mod_write_single_register+0xdac>
			case MODBUS_BED2_R_W_PID_I_ADR:
				tempController[BED2].pidIGain = (float)write_value/100.0;
    1a8e:	89 81       	ldd	r24, Y+1	; 0x01
    1a90:	9a 81       	ldd	r25, Y+2	; 0x02
    1a92:	cc 01       	movw	r24, r24
    1a94:	a0 e0       	ldi	r26, 0x00	; 0
    1a96:	b0 e0       	ldi	r27, 0x00	; 0
    1a98:	bc 01       	movw	r22, r24
    1a9a:	cd 01       	movw	r24, r26
    1a9c:	0e 94 ed 29 	call	0x53da	; 0x53da <__floatunsisf>
    1aa0:	dc 01       	movw	r26, r24
    1aa2:	cb 01       	movw	r24, r22
    1aa4:	20 e0       	ldi	r18, 0x00	; 0
    1aa6:	30 e0       	ldi	r19, 0x00	; 0
    1aa8:	48 ec       	ldi	r20, 0xC8	; 200
    1aaa:	52 e4       	ldi	r21, 0x42	; 66
    1aac:	bc 01       	movw	r22, r24
    1aae:	cd 01       	movw	r24, r26
    1ab0:	0e 94 54 29 	call	0x52a8	; 0x52a8 <__divsf3>
    1ab4:	dc 01       	movw	r26, r24
    1ab6:	cb 01       	movw	r24, r22
    1ab8:	80 93 1a 0a 	sts	0x0A1A, r24	; 0x800a1a <tempController+0x127>
    1abc:	90 93 1b 0a 	sts	0x0A1B, r25	; 0x800a1b <tempController+0x128>
    1ac0:	a0 93 1c 0a 	sts	0x0A1C, r26	; 0x800a1c <tempController+0x129>
    1ac4:	b0 93 1d 0a 	sts	0x0A1D, r27	; 0x800a1d <tempController+0x12a>
			break;
    1ac8:	a6 c0       	rjmp	.+332    	; 0x1c16 <mod_write_single_register+0xdac>
			case MODBUS_BED2_R_W_PID_D_ADR:
				tempController[BED2].pidDGain = (float)write_value/100.0;
    1aca:	89 81       	ldd	r24, Y+1	; 0x01
    1acc:	9a 81       	ldd	r25, Y+2	; 0x02
    1ace:	cc 01       	movw	r24, r24
    1ad0:	a0 e0       	ldi	r26, 0x00	; 0
    1ad2:	b0 e0       	ldi	r27, 0x00	; 0
    1ad4:	bc 01       	movw	r22, r24
    1ad6:	cd 01       	movw	r24, r26
    1ad8:	0e 94 ed 29 	call	0x53da	; 0x53da <__floatunsisf>
    1adc:	dc 01       	movw	r26, r24
    1ade:	cb 01       	movw	r24, r22
    1ae0:	20 e0       	ldi	r18, 0x00	; 0
    1ae2:	30 e0       	ldi	r19, 0x00	; 0
    1ae4:	48 ec       	ldi	r20, 0xC8	; 200
    1ae6:	52 e4       	ldi	r21, 0x42	; 66
    1ae8:	bc 01       	movw	r22, r24
    1aea:	cd 01       	movw	r24, r26
    1aec:	0e 94 54 29 	call	0x52a8	; 0x52a8 <__divsf3>
    1af0:	dc 01       	movw	r26, r24
    1af2:	cb 01       	movw	r24, r22
    1af4:	80 93 1e 0a 	sts	0x0A1E, r24	; 0x800a1e <tempController+0x12b>
    1af8:	90 93 1f 0a 	sts	0x0A1F, r25	; 0x800a1f <tempController+0x12c>
    1afc:	a0 93 20 0a 	sts	0x0A20, r26	; 0x800a20 <tempController+0x12d>
    1b00:	b0 93 21 0a 	sts	0x0A21, r27	; 0x800a21 <tempController+0x12e>
			break;
    1b04:	88 c0       	rjmp	.+272    	; 0x1c16 <mod_write_single_register+0xdac>
			case MODBUS_BED2_R_W_DRIVE_MAX_ADR:
				tempController[BED2].pidDriveMax = write_value;
    1b06:	89 81       	ldd	r24, Y+1	; 0x01
    1b08:	80 93 14 0a 	sts	0x0A14, r24	; 0x800a14 <tempController+0x121>
			break;
    1b0c:	84 c0       	rjmp	.+264    	; 0x1c16 <mod_write_single_register+0xdac>
			case MODBUS_BED2_R_W_DRVE_MIN_ADR:
				tempController[BED2].pidDriveMin = write_value;
    1b0e:	89 81       	ldd	r24, Y+1	; 0x01
    1b10:	80 93 15 0a 	sts	0x0A15, r24	; 0x800a15 <tempController+0x122>
			break;
    1b14:	80 c0       	rjmp	.+256    	; 0x1c16 <mod_write_single_register+0xdac>
			case MODBUS_BED2_R_W_PID_MAX_ADR:	
				tempController[BED2].pidMax = write_value;
    1b16:	89 81       	ldd	r24, Y+1	; 0x01
    1b18:	80 93 22 0a 	sts	0x0A22, r24	; 0x800a22 <tempController+0x12f>
			break;	
    1b1c:	7c c0       	rjmp	.+248    	; 0x1c16 <mod_write_single_register+0xdac>
			
//--------------BED3---------------			
			case MODBUS_BED3_R_W_SENSOR_TYPE_ADR:
				tempController[BED3].sensorType = write_value;
    1b1e:	89 81       	ldd	r24, Y+1	; 0x01
    1b20:	80 93 3f 0a 	sts	0x0A3F, r24	; 0x800a3f <tempController+0x14c>
			break;
    1b24:	78 c0       	rjmp	.+240    	; 0x1c16 <mod_write_single_register+0xdac>
			case MODBUS_BED3_R_W_HEAT_MANAGER_ADR:
				tempController[BED3].heatManager = write_value;
    1b26:	89 81       	ldd	r24, Y+1	; 0x01
    1b28:	80 93 51 0a 	sts	0x0A51, r24	; 0x800a51 <tempController+0x15e>
			break;
    1b2c:	74 c0       	rjmp	.+232    	; 0x1c16 <mod_write_single_register+0xdac>
			case MODBUS_BED3_R_W_PID_P_ADR:
				tempController[BED3].pidPGain = (float)write_value/100.0;
    1b2e:	89 81       	ldd	r24, Y+1	; 0x01
    1b30:	9a 81       	ldd	r25, Y+2	; 0x02
    1b32:	cc 01       	movw	r24, r24
    1b34:	a0 e0       	ldi	r26, 0x00	; 0
    1b36:	b0 e0       	ldi	r27, 0x00	; 0
    1b38:	bc 01       	movw	r22, r24
    1b3a:	cd 01       	movw	r24, r26
    1b3c:	0e 94 ed 29 	call	0x53da	; 0x53da <__floatunsisf>
    1b40:	dc 01       	movw	r26, r24
    1b42:	cb 01       	movw	r24, r22
    1b44:	20 e0       	ldi	r18, 0x00	; 0
    1b46:	30 e0       	ldi	r19, 0x00	; 0
    1b48:	48 ec       	ldi	r20, 0xC8	; 200
    1b4a:	52 e4       	ldi	r21, 0x42	; 66
    1b4c:	bc 01       	movw	r22, r24
    1b4e:	cd 01       	movw	r24, r26
    1b50:	0e 94 54 29 	call	0x52a8	; 0x52a8 <__divsf3>
    1b54:	dc 01       	movw	r26, r24
    1b56:	cb 01       	movw	r24, r22
    1b58:	80 93 58 0a 	sts	0x0A58, r24	; 0x800a58 <tempController+0x165>
    1b5c:	90 93 59 0a 	sts	0x0A59, r25	; 0x800a59 <tempController+0x166>
    1b60:	a0 93 5a 0a 	sts	0x0A5A, r26	; 0x800a5a <tempController+0x167>
    1b64:	b0 93 5b 0a 	sts	0x0A5B, r27	; 0x800a5b <tempController+0x168>
			break;
    1b68:	56 c0       	rjmp	.+172    	; 0x1c16 <mod_write_single_register+0xdac>
			case MODBUS_BED3_R_W_PID_I_ADR:
				tempController[BED3].pidIGain = (float)write_value/100.0;
    1b6a:	89 81       	ldd	r24, Y+1	; 0x01
    1b6c:	9a 81       	ldd	r25, Y+2	; 0x02
    1b6e:	cc 01       	movw	r24, r24
    1b70:	a0 e0       	ldi	r26, 0x00	; 0
    1b72:	b0 e0       	ldi	r27, 0x00	; 0
    1b74:	bc 01       	movw	r22, r24
    1b76:	cd 01       	movw	r24, r26
    1b78:	0e 94 ed 29 	call	0x53da	; 0x53da <__floatunsisf>
    1b7c:	dc 01       	movw	r26, r24
    1b7e:	cb 01       	movw	r24, r22
    1b80:	20 e0       	ldi	r18, 0x00	; 0
    1b82:	30 e0       	ldi	r19, 0x00	; 0
    1b84:	48 ec       	ldi	r20, 0xC8	; 200
    1b86:	52 e4       	ldi	r21, 0x42	; 66
    1b88:	bc 01       	movw	r22, r24
    1b8a:	cd 01       	movw	r24, r26
    1b8c:	0e 94 54 29 	call	0x52a8	; 0x52a8 <__divsf3>
    1b90:	dc 01       	movw	r26, r24
    1b92:	cb 01       	movw	r24, r22
    1b94:	80 93 5c 0a 	sts	0x0A5C, r24	; 0x800a5c <tempController+0x169>
    1b98:	90 93 5d 0a 	sts	0x0A5D, r25	; 0x800a5d <tempController+0x16a>
    1b9c:	a0 93 5e 0a 	sts	0x0A5E, r26	; 0x800a5e <tempController+0x16b>
    1ba0:	b0 93 5f 0a 	sts	0x0A5F, r27	; 0x800a5f <tempController+0x16c>
			break;
    1ba4:	38 c0       	rjmp	.+112    	; 0x1c16 <mod_write_single_register+0xdac>
			case MODBUS_BED3_R_W_PID_D_ADR:
				tempController[BED3].pidDGain = (float)write_value/100.0;
    1ba6:	89 81       	ldd	r24, Y+1	; 0x01
    1ba8:	9a 81       	ldd	r25, Y+2	; 0x02
    1baa:	cc 01       	movw	r24, r24
    1bac:	a0 e0       	ldi	r26, 0x00	; 0
    1bae:	b0 e0       	ldi	r27, 0x00	; 0
    1bb0:	bc 01       	movw	r22, r24
    1bb2:	cd 01       	movw	r24, r26
    1bb4:	0e 94 ed 29 	call	0x53da	; 0x53da <__floatunsisf>
    1bb8:	dc 01       	movw	r26, r24
    1bba:	cb 01       	movw	r24, r22
    1bbc:	20 e0       	ldi	r18, 0x00	; 0
    1bbe:	30 e0       	ldi	r19, 0x00	; 0
    1bc0:	48 ec       	ldi	r20, 0xC8	; 200
    1bc2:	52 e4       	ldi	r21, 0x42	; 66
    1bc4:	bc 01       	movw	r22, r24
    1bc6:	cd 01       	movw	r24, r26
    1bc8:	0e 94 54 29 	call	0x52a8	; 0x52a8 <__divsf3>
    1bcc:	dc 01       	movw	r26, r24
    1bce:	cb 01       	movw	r24, r22
    1bd0:	80 93 60 0a 	sts	0x0A60, r24	; 0x800a60 <tempController+0x16d>
    1bd4:	90 93 61 0a 	sts	0x0A61, r25	; 0x800a61 <tempController+0x16e>
    1bd8:	a0 93 62 0a 	sts	0x0A62, r26	; 0x800a62 <tempController+0x16f>
    1bdc:	b0 93 63 0a 	sts	0x0A63, r27	; 0x800a63 <tempController+0x170>
			break;
    1be0:	1a c0       	rjmp	.+52     	; 0x1c16 <mod_write_single_register+0xdac>
			case MODBUS_BED3_R_W_DRIVE_MAX_ADR:
				tempController[BED3].pidDriveMax = write_value;
    1be2:	89 81       	ldd	r24, Y+1	; 0x01
    1be4:	80 93 56 0a 	sts	0x0A56, r24	; 0x800a56 <tempController+0x163>
			break;
    1be8:	16 c0       	rjmp	.+44     	; 0x1c16 <mod_write_single_register+0xdac>
			case MODBUS_BED3_R_W_DRVE_MIN_ADR:
				tempController[BED3].pidDriveMin = write_value;
    1bea:	89 81       	ldd	r24, Y+1	; 0x01
    1bec:	80 93 57 0a 	sts	0x0A57, r24	; 0x800a57 <tempController+0x164>
			break;
    1bf0:	12 c0       	rjmp	.+36     	; 0x1c16 <mod_write_single_register+0xdac>
			case MODBUS_BED3_R_W_PID_MAX_ADR:
				tempController[BED3].pidMax = write_value;
    1bf2:	89 81       	ldd	r24, Y+1	; 0x01
    1bf4:	80 93 64 0a 	sts	0x0A64, r24	; 0x800a64 <tempController+0x171>
			break;
    1bf8:	0e c0       	rjmp	.+28     	; 0x1c16 <mod_write_single_register+0xdac>
			case MODBUS_TENS_0_SET_FILAMENT_WEIGHT_R_W_ADR:
				tensometer[0].setFilamentWeight=write_value;
    1bfa:	89 81       	ldd	r24, Y+1	; 0x01
    1bfc:	9a 81       	ldd	r25, Y+2	; 0x02
    1bfe:	90 93 5b 0b 	sts	0x0B5B, r25	; 0x800b5b <tensometer+0x9>
    1c02:	80 93 5a 0b 	sts	0x0B5A, r24	; 0x800b5a <tensometer+0x8>
			break;
    1c06:	07 c0       	rjmp	.+14     	; 0x1c16 <mod_write_single_register+0xdac>
			case MODBUS_TENS_1_SET_FILAMENT_WEIGHT_R_W_ADR:
				tensometer[1].setFilamentWeight=write_value;		
    1c08:	89 81       	ldd	r24, Y+1	; 0x01
    1c0a:	9a 81       	ldd	r25, Y+2	; 0x02
    1c0c:	90 93 6a 0b 	sts	0x0B6A, r25	; 0x800b6a <tensometer+0x18>
    1c10:	80 93 69 0b 	sts	0x0B69, r24	; 0x800b69 <tensometer+0x17>
			break;	
    1c14:	00 00       	nop
	}
	modbus_puts(data);
    1c16:	8d 81       	ldd	r24, Y+5	; 0x05
    1c18:	9e 81       	ldd	r25, Y+6	; 0x06
    1c1a:	f7 d8       	rcall	.-3602   	; 0xe0a <modbus_puts>
	return 1;
    1c1c:	81 e0       	ldi	r24, 0x01	; 1
}
    1c1e:	26 96       	adiw	r28, 0x06	; 6
    1c20:	0f b6       	in	r0, 0x3f	; 63
    1c22:	f8 94       	cli
    1c24:	de bf       	out	0x3e, r29	; 62
    1c26:	0f be       	out	0x3f, r0	; 63
    1c28:	cd bf       	out	0x3d, r28	; 61
    1c2a:	df 91       	pop	r29
    1c2c:	cf 91       	pop	r28
    1c2e:	08 95       	ret

00001c30 <mod_write_multiple_registers>:

int8_t mod_write_multiple_registers(char *data){
    1c30:	0f 93       	push	r16
    1c32:	1f 93       	push	r17
    1c34:	cf 93       	push	r28
    1c36:	df 93       	push	r29
    1c38:	cd b7       	in	r28, 0x3d	; 61
    1c3a:	de b7       	in	r29, 0x3e	; 62
    1c3c:	65 97       	sbiw	r28, 0x15	; 21
    1c3e:	0f b6       	in	r0, 0x3f	; 63
    1c40:	f8 94       	cli
    1c42:	de bf       	out	0x3e, r29	; 62
    1c44:	0f be       	out	0x3f, r0	; 63
    1c46:	cd bf       	out	0x3d, r28	; 61
    1c48:	9d 8b       	std	Y+21, r25	; 0x15
    1c4a:	8c 8b       	std	Y+20, r24	; 0x14
	
	uint16_t number_of_registers = data[5]*256+data[6]; //na przed ostatniej pozycji znajduje siê w jednym bajcie iloæ rejestrów do odczytu
    1c4c:	8c 89       	ldd	r24, Y+20	; 0x14
    1c4e:	9d 89       	ldd	r25, Y+21	; 0x15
    1c50:	05 96       	adiw	r24, 0x05	; 5
    1c52:	fc 01       	movw	r30, r24
    1c54:	80 81       	ld	r24, Z
    1c56:	88 2f       	mov	r24, r24
    1c58:	90 e0       	ldi	r25, 0x00	; 0
    1c5a:	38 2f       	mov	r19, r24
    1c5c:	22 27       	eor	r18, r18
    1c5e:	8c 89       	ldd	r24, Y+20	; 0x14
    1c60:	9d 89       	ldd	r25, Y+21	; 0x15
    1c62:	06 96       	adiw	r24, 0x06	; 6
    1c64:	fc 01       	movw	r30, r24
    1c66:	80 81       	ld	r24, Z
    1c68:	88 2f       	mov	r24, r24
    1c6a:	90 e0       	ldi	r25, 0x00	; 0
    1c6c:	82 0f       	add	r24, r18
    1c6e:	93 1f       	adc	r25, r19
    1c70:	9f 83       	std	Y+7, r25	; 0x07
    1c72:	8e 83       	std	Y+6, r24	; 0x06
	uint16_t first_register = data[DATA_POS]*256+data[DATA_POS+1];
    1c74:	8c 89       	ldd	r24, Y+20	; 0x14
    1c76:	9d 89       	ldd	r25, Y+21	; 0x15
    1c78:	03 96       	adiw	r24, 0x03	; 3
    1c7a:	fc 01       	movw	r30, r24
    1c7c:	80 81       	ld	r24, Z
    1c7e:	88 2f       	mov	r24, r24
    1c80:	90 e0       	ldi	r25, 0x00	; 0
    1c82:	38 2f       	mov	r19, r24
    1c84:	22 27       	eor	r18, r18
    1c86:	8c 89       	ldd	r24, Y+20	; 0x14
    1c88:	9d 89       	ldd	r25, Y+21	; 0x15
    1c8a:	04 96       	adiw	r24, 0x04	; 4
    1c8c:	fc 01       	movw	r30, r24
    1c8e:	80 81       	ld	r24, Z
    1c90:	88 2f       	mov	r24, r24
    1c92:	90 e0       	ldi	r25, 0x00	; 0
    1c94:	82 0f       	add	r24, r18
    1c96:	93 1f       	adc	r25, r19
    1c98:	99 87       	std	Y+9, r25	; 0x09
    1c9a:	88 87       	std	Y+8, r24	; 0x08

	uint16_t controller_ID = 0;
    1c9c:	1b 86       	std	Y+11, r1	; 0x0b
    1c9e:	1a 86       	std	Y+10, r1	; 0x0a
	float autotune_temp = 50;
    1ca0:	80 e0       	ldi	r24, 0x00	; 0
    1ca2:	90 e0       	ldi	r25, 0x00	; 0
    1ca4:	a8 e4       	ldi	r26, 0x48	; 72
    1ca6:	b2 e4       	ldi	r27, 0x42	; 66
    1ca8:	8c 87       	std	Y+12, r24	; 0x0c
    1caa:	9d 87       	std	Y+13, r25	; 0x0d
    1cac:	ae 87       	std	Y+14, r26	; 0x0e
    1cae:	bf 87       	std	Y+15, r27	; 0x0f
	uint16_t tmpData=0;
    1cb0:	19 8a       	std	Y+17, r1	; 0x11
    1cb2:	18 8a       	std	Y+16, r1	; 0x10
	uint8_t save_to_eepr = 0;
    1cb4:	19 82       	std	Y+1, r1	; 0x01
	uint16_t maxCycles = 0;
    1cb6:	1b 82       	std	Y+3, r1	; 0x03
    1cb8:	1a 82       	std	Y+2, r1	; 0x02
	uint16_t tmp = 0;
    1cba:	1b 8a       	std	Y+19, r1	; 0x13
    1cbc:	1a 8a       	std	Y+18, r1	; 0x12
	uint8_t j =0;
    1cbe:	1c 82       	std	Y+4, r1	; 0x04
	autotunepidtable.controller_ID = 0;
    1cc0:	10 92 4b 0b 	sts	0x0B4B, r1	; 0x800b4b <autotunepidtable>
	autotunepidtable.autotune_temp = 0;
    1cc4:	10 92 4c 0b 	sts	0x0B4C, r1	; 0x800b4c <autotunepidtable+0x1>
    1cc8:	10 92 4d 0b 	sts	0x0B4D, r1	; 0x800b4d <autotunepidtable+0x2>
    1ccc:	10 92 4e 0b 	sts	0x0B4E, r1	; 0x800b4e <autotunepidtable+0x3>
    1cd0:	10 92 4f 0b 	sts	0x0B4F, r1	; 0x800b4f <autotunepidtable+0x4>
	autotunepidtable.maxCycles = 0;
    1cd4:	10 92 50 0b 	sts	0x0B50, r1	; 0x800b50 <autotunepidtable+0x5>
	autotunepidtable.save_to_eepr = 0;
    1cd8:	10 92 51 0b 	sts	0x0B51, r1	; 0x800b51 <autotunepidtable+0x6>
	
	for (uint8_t i=0; i<number_of_registers; i++)
    1cdc:	1d 82       	std	Y+5, r1	; 0x05
    1cde:	ce c0       	rjmp	.+412    	; 0x1e7c <mod_write_multiple_registers+0x24c>
	{		
		switch(first_register+i){
    1ce0:	8d 81       	ldd	r24, Y+5	; 0x05
    1ce2:	28 2f       	mov	r18, r24
    1ce4:	30 e0       	ldi	r19, 0x00	; 0
    1ce6:	88 85       	ldd	r24, Y+8	; 0x08
    1ce8:	99 85       	ldd	r25, Y+9	; 0x09
    1cea:	82 0f       	add	r24, r18
    1cec:	93 1f       	adc	r25, r19
    1cee:	85 3f       	cpi	r24, 0xF5	; 245
    1cf0:	f1 e0       	ldi	r31, 0x01	; 1
    1cf2:	9f 07       	cpc	r25, r31
    1cf4:	a1 f1       	breq	.+104    	; 0x1d5e <mod_write_multiple_registers+0x12e>
    1cf6:	86 3f       	cpi	r24, 0xF6	; 246
    1cf8:	21 e0       	ldi	r18, 0x01	; 1
    1cfa:	92 07       	cpc	r25, r18
    1cfc:	09 f4       	brne	.+2      	; 0x1d00 <mod_write_multiple_registers+0xd0>
    1cfe:	7c c0       	rjmp	.+248    	; 0x1df8 <mod_write_multiple_registers+0x1c8>
    1d00:	84 3f       	cpi	r24, 0xF4	; 244
    1d02:	91 40       	sbci	r25, 0x01	; 1
    1d04:	09 f0       	breq	.+2      	; 0x1d08 <mod_write_multiple_registers+0xd8>
    1d06:	b4 c0       	rjmp	.+360    	; 0x1e70 <mod_write_multiple_registers+0x240>
			case MODBUS_SET_PID_AUTOTUNE_CONTROLLER_ID_ADR:
				controller_ID = ((data[8+j])<<8);
    1d08:	8c 81       	ldd	r24, Y+4	; 0x04
    1d0a:	88 2f       	mov	r24, r24
    1d0c:	90 e0       	ldi	r25, 0x00	; 0
    1d0e:	08 96       	adiw	r24, 0x08	; 8
    1d10:	9c 01       	movw	r18, r24
    1d12:	8c 89       	ldd	r24, Y+20	; 0x14
    1d14:	9d 89       	ldd	r25, Y+21	; 0x15
    1d16:	82 0f       	add	r24, r18
    1d18:	93 1f       	adc	r25, r19
    1d1a:	fc 01       	movw	r30, r24
    1d1c:	80 81       	ld	r24, Z
    1d1e:	88 2f       	mov	r24, r24
    1d20:	90 e0       	ldi	r25, 0x00	; 0
    1d22:	98 2f       	mov	r25, r24
    1d24:	88 27       	eor	r24, r24
    1d26:	9b 87       	std	Y+11, r25	; 0x0b
    1d28:	8a 87       	std	Y+10, r24	; 0x0a
				j++;
    1d2a:	8c 81       	ldd	r24, Y+4	; 0x04
    1d2c:	8f 5f       	subi	r24, 0xFF	; 255
    1d2e:	8c 83       	std	Y+4, r24	; 0x04
				controller_ID |= (data[8+j]);
    1d30:	8c 81       	ldd	r24, Y+4	; 0x04
    1d32:	88 2f       	mov	r24, r24
    1d34:	90 e0       	ldi	r25, 0x00	; 0
    1d36:	08 96       	adiw	r24, 0x08	; 8
    1d38:	9c 01       	movw	r18, r24
    1d3a:	8c 89       	ldd	r24, Y+20	; 0x14
    1d3c:	9d 89       	ldd	r25, Y+21	; 0x15
    1d3e:	82 0f       	add	r24, r18
    1d40:	93 1f       	adc	r25, r19
    1d42:	fc 01       	movw	r30, r24
    1d44:	80 81       	ld	r24, Z
    1d46:	88 2f       	mov	r24, r24
    1d48:	90 e0       	ldi	r25, 0x00	; 0
    1d4a:	2a 85       	ldd	r18, Y+10	; 0x0a
    1d4c:	3b 85       	ldd	r19, Y+11	; 0x0b
    1d4e:	82 2b       	or	r24, r18
    1d50:	93 2b       	or	r25, r19
    1d52:	9b 87       	std	Y+11, r25	; 0x0b
    1d54:	8a 87       	std	Y+10, r24	; 0x0a
				autotunepidtable.controller_ID = controller_ID;
    1d56:	8a 85       	ldd	r24, Y+10	; 0x0a
    1d58:	80 93 4b 0b 	sts	0x0B4B, r24	; 0x800b4b <autotunepidtable>
				
			break;
    1d5c:	89 c0       	rjmp	.+274    	; 0x1e70 <mod_write_multiple_registers+0x240>
			case MODBUS_SET_PID_AUTOTUNE_TEMPERATURE_ADR:
				tmp = ((data[8+j])<<8);
    1d5e:	8c 81       	ldd	r24, Y+4	; 0x04
    1d60:	88 2f       	mov	r24, r24
    1d62:	90 e0       	ldi	r25, 0x00	; 0
    1d64:	08 96       	adiw	r24, 0x08	; 8
    1d66:	9c 01       	movw	r18, r24
    1d68:	8c 89       	ldd	r24, Y+20	; 0x14
    1d6a:	9d 89       	ldd	r25, Y+21	; 0x15
    1d6c:	82 0f       	add	r24, r18
    1d6e:	93 1f       	adc	r25, r19
    1d70:	fc 01       	movw	r30, r24
    1d72:	80 81       	ld	r24, Z
    1d74:	88 2f       	mov	r24, r24
    1d76:	90 e0       	ldi	r25, 0x00	; 0
    1d78:	98 2f       	mov	r25, r24
    1d7a:	88 27       	eor	r24, r24
    1d7c:	9b 8b       	std	Y+19, r25	; 0x13
    1d7e:	8a 8b       	std	Y+18, r24	; 0x12
				j++;
    1d80:	8c 81       	ldd	r24, Y+4	; 0x04
    1d82:	8f 5f       	subi	r24, 0xFF	; 255
    1d84:	8c 83       	std	Y+4, r24	; 0x04
				tmp |= (data[8+j]);
    1d86:	8c 81       	ldd	r24, Y+4	; 0x04
    1d88:	88 2f       	mov	r24, r24
    1d8a:	90 e0       	ldi	r25, 0x00	; 0
    1d8c:	08 96       	adiw	r24, 0x08	; 8
    1d8e:	9c 01       	movw	r18, r24
    1d90:	8c 89       	ldd	r24, Y+20	; 0x14
    1d92:	9d 89       	ldd	r25, Y+21	; 0x15
    1d94:	82 0f       	add	r24, r18
    1d96:	93 1f       	adc	r25, r19
    1d98:	fc 01       	movw	r30, r24
    1d9a:	80 81       	ld	r24, Z
    1d9c:	88 2f       	mov	r24, r24
    1d9e:	90 e0       	ldi	r25, 0x00	; 0
    1da0:	2a 89       	ldd	r18, Y+18	; 0x12
    1da2:	3b 89       	ldd	r19, Y+19	; 0x13
    1da4:	82 2b       	or	r24, r18
    1da6:	93 2b       	or	r25, r19
    1da8:	9b 8b       	std	Y+19, r25	; 0x13
    1daa:	8a 8b       	std	Y+18, r24	; 0x12
				autotune_temp = (float)(tmp/100.0);
    1dac:	8a 89       	ldd	r24, Y+18	; 0x12
    1dae:	9b 89       	ldd	r25, Y+19	; 0x13
    1db0:	cc 01       	movw	r24, r24
    1db2:	a0 e0       	ldi	r26, 0x00	; 0
    1db4:	b0 e0       	ldi	r27, 0x00	; 0
    1db6:	bc 01       	movw	r22, r24
    1db8:	cd 01       	movw	r24, r26
    1dba:	0e 94 ed 29 	call	0x53da	; 0x53da <__floatunsisf>
    1dbe:	dc 01       	movw	r26, r24
    1dc0:	cb 01       	movw	r24, r22
    1dc2:	20 e0       	ldi	r18, 0x00	; 0
    1dc4:	30 e0       	ldi	r19, 0x00	; 0
    1dc6:	48 ec       	ldi	r20, 0xC8	; 200
    1dc8:	52 e4       	ldi	r21, 0x42	; 66
    1dca:	bc 01       	movw	r22, r24
    1dcc:	cd 01       	movw	r24, r26
    1dce:	0e 94 54 29 	call	0x52a8	; 0x52a8 <__divsf3>
    1dd2:	dc 01       	movw	r26, r24
    1dd4:	cb 01       	movw	r24, r22
    1dd6:	8c 87       	std	Y+12, r24	; 0x0c
    1dd8:	9d 87       	std	Y+13, r25	; 0x0d
    1dda:	ae 87       	std	Y+14, r26	; 0x0e
    1ddc:	bf 87       	std	Y+15, r27	; 0x0f
				autotunepidtable.autotune_temp = autotune_temp;
    1dde:	8c 85       	ldd	r24, Y+12	; 0x0c
    1de0:	9d 85       	ldd	r25, Y+13	; 0x0d
    1de2:	ae 85       	ldd	r26, Y+14	; 0x0e
    1de4:	bf 85       	ldd	r27, Y+15	; 0x0f
    1de6:	80 93 4c 0b 	sts	0x0B4C, r24	; 0x800b4c <autotunepidtable+0x1>
    1dea:	90 93 4d 0b 	sts	0x0B4D, r25	; 0x800b4d <autotunepidtable+0x2>
    1dee:	a0 93 4e 0b 	sts	0x0B4E, r26	; 0x800b4e <autotunepidtable+0x3>
    1df2:	b0 93 4f 0b 	sts	0x0B4F, r27	; 0x800b4f <autotunepidtable+0x4>
			break;
    1df6:	3c c0       	rjmp	.+120    	; 0x1e70 <mod_write_multiple_registers+0x240>
			case MODBUS_SET_PID_AUTOTUNE_MAX_CYCLES_AND_SAVE_ADR:
				maxCycles = ((data[8+j])<<8);
    1df8:	8c 81       	ldd	r24, Y+4	; 0x04
    1dfa:	88 2f       	mov	r24, r24
    1dfc:	90 e0       	ldi	r25, 0x00	; 0
    1dfe:	08 96       	adiw	r24, 0x08	; 8
    1e00:	9c 01       	movw	r18, r24
    1e02:	8c 89       	ldd	r24, Y+20	; 0x14
    1e04:	9d 89       	ldd	r25, Y+21	; 0x15
    1e06:	82 0f       	add	r24, r18
    1e08:	93 1f       	adc	r25, r19
    1e0a:	fc 01       	movw	r30, r24
    1e0c:	80 81       	ld	r24, Z
    1e0e:	88 2f       	mov	r24, r24
    1e10:	90 e0       	ldi	r25, 0x00	; 0
    1e12:	98 2f       	mov	r25, r24
    1e14:	88 27       	eor	r24, r24
    1e16:	9b 83       	std	Y+3, r25	; 0x03
    1e18:	8a 83       	std	Y+2, r24	; 0x02
				j++;
    1e1a:	8c 81       	ldd	r24, Y+4	; 0x04
    1e1c:	8f 5f       	subi	r24, 0xFF	; 255
    1e1e:	8c 83       	std	Y+4, r24	; 0x04
				maxCycles |= (data[8+j]);
    1e20:	8c 81       	ldd	r24, Y+4	; 0x04
    1e22:	88 2f       	mov	r24, r24
    1e24:	90 e0       	ldi	r25, 0x00	; 0
    1e26:	08 96       	adiw	r24, 0x08	; 8
    1e28:	9c 01       	movw	r18, r24
    1e2a:	8c 89       	ldd	r24, Y+20	; 0x14
    1e2c:	9d 89       	ldd	r25, Y+21	; 0x15
    1e2e:	82 0f       	add	r24, r18
    1e30:	93 1f       	adc	r25, r19
    1e32:	fc 01       	movw	r30, r24
    1e34:	80 81       	ld	r24, Z
    1e36:	88 2f       	mov	r24, r24
    1e38:	90 e0       	ldi	r25, 0x00	; 0
    1e3a:	2a 81       	ldd	r18, Y+2	; 0x02
    1e3c:	3b 81       	ldd	r19, Y+3	; 0x03
    1e3e:	82 2b       	or	r24, r18
    1e40:	93 2b       	or	r25, r19
    1e42:	9b 83       	std	Y+3, r25	; 0x03
    1e44:	8a 83       	std	Y+2, r24	; 0x02
				if (maxCycles & 0x8000)
    1e46:	8a 81       	ldd	r24, Y+2	; 0x02
    1e48:	9b 81       	ldd	r25, Y+3	; 0x03
    1e4a:	99 23       	and	r25, r25
    1e4c:	3c f4       	brge	.+14     	; 0x1e5c <mod_write_multiple_registers+0x22c>
				{
					save_to_eepr = 1;
    1e4e:	81 e0       	ldi	r24, 0x01	; 1
    1e50:	89 83       	std	Y+1, r24	; 0x01
					maxCycles = maxCycles & 0x7FFF;
    1e52:	8a 81       	ldd	r24, Y+2	; 0x02
    1e54:	9b 81       	ldd	r25, Y+3	; 0x03
    1e56:	9f 77       	andi	r25, 0x7F	; 127
    1e58:	9b 83       	std	Y+3, r25	; 0x03
    1e5a:	8a 83       	std	Y+2, r24	; 0x02
				}				
				autotunepidtable.maxCycles = maxCycles;
    1e5c:	8a 81       	ldd	r24, Y+2	; 0x02
    1e5e:	80 93 50 0b 	sts	0x0B50, r24	; 0x800b50 <autotunepidtable+0x5>
				autotunepidtable.save_to_eepr = save_to_eepr;
    1e62:	89 81       	ldd	r24, Y+1	; 0x01
    1e64:	80 93 51 0b 	sts	0x0B51, r24	; 0x800b51 <autotunepidtable+0x6>
				autotune = 1;
    1e68:	81 e0       	ldi	r24, 0x01	; 1
    1e6a:	80 93 ac 07 	sts	0x07AC, r24	; 0x8007ac <autotune>
			break;
    1e6e:	00 00       	nop

		}	
		j++;
    1e70:	8c 81       	ldd	r24, Y+4	; 0x04
    1e72:	8f 5f       	subi	r24, 0xFF	; 255
    1e74:	8c 83       	std	Y+4, r24	; 0x04
	autotunepidtable.controller_ID = 0;
	autotunepidtable.autotune_temp = 0;
	autotunepidtable.maxCycles = 0;
	autotunepidtable.save_to_eepr = 0;
	
	for (uint8_t i=0; i<number_of_registers; i++)
    1e76:	8d 81       	ldd	r24, Y+5	; 0x05
    1e78:	8f 5f       	subi	r24, 0xFF	; 255
    1e7a:	8d 83       	std	Y+5, r24	; 0x05
    1e7c:	8d 81       	ldd	r24, Y+5	; 0x05
    1e7e:	28 2f       	mov	r18, r24
    1e80:	30 e0       	ldi	r19, 0x00	; 0
    1e82:	8e 81       	ldd	r24, Y+6	; 0x06
    1e84:	9f 81       	ldd	r25, Y+7	; 0x07
    1e86:	28 17       	cp	r18, r24
    1e88:	39 07       	cpc	r19, r25
    1e8a:	08 f4       	brcc	.+2      	; 0x1e8e <mod_write_multiple_registers+0x25e>
    1e8c:	29 cf       	rjmp	.-430    	; 0x1ce0 <mod_write_multiple_registers+0xb0>

		}	
		j++;
	}

	data[0] = 7; 
    1e8e:	8c 89       	ldd	r24, Y+20	; 0x14
    1e90:	9d 89       	ldd	r25, Y+21	; 0x15
    1e92:	27 e0       	ldi	r18, 0x07	; 7
    1e94:	fc 01       	movw	r30, r24
    1e96:	20 83       	st	Z, r18
	data[data[0]] = calculate_LRC(data, data[0]); //obliczamy LRC wpisujac je na koncu struktury danych
    1e98:	8c 89       	ldd	r24, Y+20	; 0x14
    1e9a:	9d 89       	ldd	r25, Y+21	; 0x15
    1e9c:	fc 01       	movw	r30, r24
    1e9e:	80 81       	ld	r24, Z
    1ea0:	88 2f       	mov	r24, r24
    1ea2:	90 e0       	ldi	r25, 0x00	; 0
    1ea4:	2c 89       	ldd	r18, Y+20	; 0x14
    1ea6:	3d 89       	ldd	r19, Y+21	; 0x15
    1ea8:	89 01       	movw	r16, r18
    1eaa:	08 0f       	add	r16, r24
    1eac:	19 1f       	adc	r17, r25
    1eae:	8c 89       	ldd	r24, Y+20	; 0x14
    1eb0:	9d 89       	ldd	r25, Y+21	; 0x15
    1eb2:	fc 01       	movw	r30, r24
    1eb4:	20 81       	ld	r18, Z
    1eb6:	8c 89       	ldd	r24, Y+20	; 0x14
    1eb8:	9d 89       	ldd	r25, Y+21	; 0x15
    1eba:	62 2f       	mov	r22, r18
    1ebc:	0e 94 80 06 	call	0xd00	; 0xd00 <calculate_LRC>
    1ec0:	f8 01       	movw	r30, r16
    1ec2:	80 83       	st	Z, r24
	modbus_puts(data);
    1ec4:	8c 89       	ldd	r24, Y+20	; 0x14
    1ec6:	9d 89       	ldd	r25, Y+21	; 0x15
    1ec8:	0e 94 05 07 	call	0xe0a	; 0xe0a <modbus_puts>
	return 1;
    1ecc:	81 e0       	ldi	r24, 0x01	; 1
}
    1ece:	65 96       	adiw	r28, 0x15	; 21
    1ed0:	0f b6       	in	r0, 0x3f	; 63
    1ed2:	f8 94       	cli
    1ed4:	de bf       	out	0x3e, r29	; 62
    1ed6:	0f be       	out	0x3f, r0	; 63
    1ed8:	cd bf       	out	0x3d, r28	; 61
    1eda:	df 91       	pop	r29
    1edc:	cf 91       	pop	r28
    1ede:	1f 91       	pop	r17
    1ee0:	0f 91       	pop	r16
    1ee2:	08 95       	ret

00001ee4 <get_int16_t_data>:

void get_int16_t_data(uint16_t set_data, uint8_t *dataPos, char *data){
    1ee4:	cf 93       	push	r28
    1ee6:	df 93       	push	r29
    1ee8:	cd b7       	in	r28, 0x3d	; 61
    1eea:	de b7       	in	r29, 0x3e	; 62
    1eec:	29 97       	sbiw	r28, 0x09	; 9
    1eee:	0f b6       	in	r0, 0x3f	; 63
    1ef0:	f8 94       	cli
    1ef2:	de bf       	out	0x3e, r29	; 62
    1ef4:	0f be       	out	0x3f, r0	; 63
    1ef6:	cd bf       	out	0x3d, r28	; 61
    1ef8:	9d 83       	std	Y+5, r25	; 0x05
    1efa:	8c 83       	std	Y+4, r24	; 0x04
    1efc:	7f 83       	std	Y+7, r23	; 0x07
    1efe:	6e 83       	std	Y+6, r22	; 0x06
    1f00:	59 87       	std	Y+9, r21	; 0x09
    1f02:	48 87       	std	Y+8, r20	; 0x08
	//uint16_t temp = (tempController[tempContrIndex].currentTemperatureC) * 100;
	//uint16_t temp = (tempController[tempContrIndex].currentTemperature);
	uint8_t first = set_data  >> 8;
    1f04:	8c 81       	ldd	r24, Y+4	; 0x04
    1f06:	9d 81       	ldd	r25, Y+5	; 0x05
    1f08:	89 2f       	mov	r24, r25
    1f0a:	99 27       	eor	r25, r25
    1f0c:	89 83       	std	Y+1, r24	; 0x01
	uint8_t dp = *dataPos;
    1f0e:	8e 81       	ldd	r24, Y+6	; 0x06
    1f10:	9f 81       	ldd	r25, Y+7	; 0x07
    1f12:	fc 01       	movw	r30, r24
    1f14:	80 81       	ld	r24, Z
    1f16:	8a 83       	std	Y+2, r24	; 0x02
	dp++;
    1f18:	8a 81       	ldd	r24, Y+2	; 0x02
    1f1a:	8f 5f       	subi	r24, 0xFF	; 255
    1f1c:	8a 83       	std	Y+2, r24	; 0x02
	data[dp+3] = first;
    1f1e:	8a 81       	ldd	r24, Y+2	; 0x02
    1f20:	88 2f       	mov	r24, r24
    1f22:	90 e0       	ldi	r25, 0x00	; 0
    1f24:	03 96       	adiw	r24, 0x03	; 3
    1f26:	28 85       	ldd	r18, Y+8	; 0x08
    1f28:	39 85       	ldd	r19, Y+9	; 0x09
    1f2a:	82 0f       	add	r24, r18
    1f2c:	93 1f       	adc	r25, r19
    1f2e:	29 81       	ldd	r18, Y+1	; 0x01
    1f30:	fc 01       	movw	r30, r24
    1f32:	20 83       	st	Z, r18
	uint8_t second = set_data & 0x00ff;
    1f34:	8c 81       	ldd	r24, Y+4	; 0x04
    1f36:	8b 83       	std	Y+3, r24	; 0x03
	dp++;
    1f38:	8a 81       	ldd	r24, Y+2	; 0x02
    1f3a:	8f 5f       	subi	r24, 0xFF	; 255
    1f3c:	8a 83       	std	Y+2, r24	; 0x02
	data[dp+3] = second;
    1f3e:	8a 81       	ldd	r24, Y+2	; 0x02
    1f40:	88 2f       	mov	r24, r24
    1f42:	90 e0       	ldi	r25, 0x00	; 0
    1f44:	03 96       	adiw	r24, 0x03	; 3
    1f46:	28 85       	ldd	r18, Y+8	; 0x08
    1f48:	39 85       	ldd	r19, Y+9	; 0x09
    1f4a:	82 0f       	add	r24, r18
    1f4c:	93 1f       	adc	r25, r19
    1f4e:	2b 81       	ldd	r18, Y+3	; 0x03
    1f50:	fc 01       	movw	r30, r24
    1f52:	20 83       	st	Z, r18
	*dataPos = dp;
    1f54:	8e 81       	ldd	r24, Y+6	; 0x06
    1f56:	9f 81       	ldd	r25, Y+7	; 0x07
    1f58:	2a 81       	ldd	r18, Y+2	; 0x02
    1f5a:	fc 01       	movw	r30, r24
    1f5c:	20 83       	st	Z, r18
}
    1f5e:	29 96       	adiw	r28, 0x09	; 9
    1f60:	0f b6       	in	r0, 0x3f	; 63
    1f62:	f8 94       	cli
    1f64:	de bf       	out	0x3e, r29	; 62
    1f66:	0f be       	out	0x3f, r0	; 63
    1f68:	cd bf       	out	0x3d, r28	; 61
    1f6a:	df 91       	pop	r29
    1f6c:	cf 91       	pop	r28
    1f6e:	08 95       	ret

00001f70 <mod_read_input_register>:

int8_t mod_read_input_register(char *data){
    1f70:	ef 92       	push	r14
    1f72:	ff 92       	push	r15
    1f74:	0f 93       	push	r16
    1f76:	1f 93       	push	r17
    1f78:	cf 93       	push	r28
    1f7a:	df 93       	push	r29
    1f7c:	cd b7       	in	r28, 0x3d	; 61
    1f7e:	de b7       	in	r29, 0x3e	; 62
    1f80:	2e 97       	sbiw	r28, 0x0e	; 14
    1f82:	0f b6       	in	r0, 0x3f	; 63
    1f84:	f8 94       	cli
    1f86:	de bf       	out	0x3e, r29	; 62
    1f88:	0f be       	out	0x3f, r0	; 63
    1f8a:	cd bf       	out	0x3d, r28	; 61
    1f8c:	9e 87       	std	Y+14, r25	; 0x0e
    1f8e:	8d 87       	std	Y+13, r24	; 0x0d
	
	const uint16_t number_of_registers = data[data[0]-1]; //na przed ostatniej pozycji znajduje siê w jednym bajcie iloæ rejestrów do odczytu
    1f90:	8d 85       	ldd	r24, Y+13	; 0x0d
    1f92:	9e 85       	ldd	r25, Y+14	; 0x0e
    1f94:	fc 01       	movw	r30, r24
    1f96:	80 81       	ld	r24, Z
    1f98:	88 2f       	mov	r24, r24
    1f9a:	90 e0       	ldi	r25, 0x00	; 0
    1f9c:	01 97       	sbiw	r24, 0x01	; 1
    1f9e:	2d 85       	ldd	r18, Y+13	; 0x0d
    1fa0:	3e 85       	ldd	r19, Y+14	; 0x0e
    1fa2:	82 0f       	add	r24, r18
    1fa4:	93 1f       	adc	r25, r19
    1fa6:	fc 01       	movw	r30, r24
    1fa8:	80 81       	ld	r24, Z
    1faa:	88 2f       	mov	r24, r24
    1fac:	90 e0       	ldi	r25, 0x00	; 0
    1fae:	9b 83       	std	Y+3, r25	; 0x03
    1fb0:	8a 83       	std	Y+2, r24	; 0x02
	const uint16_t first_register = data[DATA_POS]*256+data[DATA_POS+1]; 
    1fb2:	8d 85       	ldd	r24, Y+13	; 0x0d
    1fb4:	9e 85       	ldd	r25, Y+14	; 0x0e
    1fb6:	03 96       	adiw	r24, 0x03	; 3
    1fb8:	fc 01       	movw	r30, r24
    1fba:	80 81       	ld	r24, Z
    1fbc:	88 2f       	mov	r24, r24
    1fbe:	90 e0       	ldi	r25, 0x00	; 0
    1fc0:	38 2f       	mov	r19, r24
    1fc2:	22 27       	eor	r18, r18
    1fc4:	8d 85       	ldd	r24, Y+13	; 0x0d
    1fc6:	9e 85       	ldd	r25, Y+14	; 0x0e
    1fc8:	04 96       	adiw	r24, 0x04	; 4
    1fca:	fc 01       	movw	r30, r24
    1fcc:	80 81       	ld	r24, Z
    1fce:	88 2f       	mov	r24, r24
    1fd0:	90 e0       	ldi	r25, 0x00	; 0
    1fd2:	82 0f       	add	r24, r18
    1fd4:	93 1f       	adc	r25, r19
    1fd6:	9d 83       	std	Y+5, r25	; 0x05
    1fd8:	8c 83       	std	Y+4, r24	; 0x04
	uint8_t data_counter = 0;
    1fda:	1c 86       	std	Y+12, r1	; 0x0c
	uint16_t tmp = 0;
    1fdc:	1f 82       	std	Y+7, r1	; 0x07
    1fde:	1e 82       	std	Y+6, r1	; 0x06
	float tmpf = 0;
    1fe0:	18 86       	std	Y+8, r1	; 0x08
    1fe2:	19 86       	std	Y+9, r1	; 0x09
    1fe4:	1a 86       	std	Y+10, r1	; 0x0a
    1fe6:	1b 86       	std	Y+11, r1	; 0x0b
	for (uint8_t i=0; i<number_of_registers; i++)
    1fe8:	19 82       	std	Y+1, r1	; 0x01
    1fea:	0c 94 83 1a 	jmp	0x3506	; 0x3506 <__stack+0x1307>
	{
		switch(first_register+i){
    1fee:	89 81       	ldd	r24, Y+1	; 0x01
    1ff0:	28 2f       	mov	r18, r24
    1ff2:	30 e0       	ldi	r19, 0x00	; 0
    1ff4:	8c 81       	ldd	r24, Y+4	; 0x04
    1ff6:	9d 81       	ldd	r25, Y+5	; 0x05
    1ff8:	82 0f       	add	r24, r18
    1ffa:	93 1f       	adc	r25, r19
    1ffc:	8a 31       	cpi	r24, 0x1A	; 26
    1ffe:	f4 e0       	ldi	r31, 0x04	; 4
    2000:	9f 07       	cpc	r25, r31
    2002:	09 f4       	brne	.+2      	; 0x2006 <mod_read_input_register+0x96>
    2004:	8d c7       	rjmp	.+3866   	; 0x2f20 <__stack+0xd21>
    2006:	8b 31       	cpi	r24, 0x1B	; 27
    2008:	24 e0       	ldi	r18, 0x04	; 4
    200a:	92 07       	cpc	r25, r18
    200c:	08 f0       	brcs	.+2      	; 0x2010 <mod_read_input_register+0xa0>
    200e:	01 c1       	rjmp	.+514    	; 0x2212 <__stack+0x13>
    2010:	8f 3f       	cpi	r24, 0xFF	; 255
    2012:	e3 e0       	ldi	r30, 0x03	; 3
    2014:	9e 07       	cpc	r25, r30
    2016:	09 f4       	brne	.+2      	; 0x201a <mod_read_input_register+0xaa>
    2018:	a5 c5       	rjmp	.+2890   	; 0x2b64 <__stack+0x965>
    201a:	81 15       	cp	r24, r1
    201c:	f4 e0       	ldi	r31, 0x04	; 4
    201e:	9f 07       	cpc	r25, r31
    2020:	08 f0       	brcs	.+2      	; 0x2024 <mod_read_input_register+0xb4>
    2022:	7e c0       	rjmp	.+252    	; 0x2120 <mod_read_input_register+0x1b0>
    2024:	82 3f       	cpi	r24, 0xF2	; 242
    2026:	23 e0       	ldi	r18, 0x03	; 3
    2028:	92 07       	cpc	r25, r18
    202a:	09 f4       	brne	.+2      	; 0x202e <mod_read_input_register+0xbe>
    202c:	81 c4       	rjmp	.+2306   	; 0x2930 <__stack+0x731>
    202e:	83 3f       	cpi	r24, 0xF3	; 243
    2030:	e3 e0       	ldi	r30, 0x03	; 3
    2032:	9e 07       	cpc	r25, r30
    2034:	c0 f5       	brcc	.+112    	; 0x20a6 <mod_read_input_register+0x136>
    2036:	8b 3e       	cpi	r24, 0xEB	; 235
    2038:	f3 e0       	ldi	r31, 0x03	; 3
    203a:	9f 07       	cpc	r25, r31
    203c:	09 f4       	brne	.+2      	; 0x2040 <mod_read_input_register+0xd0>
    203e:	f2 c3       	rjmp	.+2020   	; 0x2824 <__stack+0x625>
    2040:	8c 3e       	cpi	r24, 0xEC	; 236
    2042:	23 e0       	ldi	r18, 0x03	; 3
    2044:	92 07       	cpc	r25, r18
    2046:	d0 f4       	brcc	.+52     	; 0x207c <mod_read_input_register+0x10c>
    2048:	88 3e       	cpi	r24, 0xE8	; 232
    204a:	e3 e0       	ldi	r30, 0x03	; 3
    204c:	9e 07       	cpc	r25, r30
    204e:	09 f4       	brne	.+2      	; 0x2052 <mod_read_input_register+0xe2>
    2050:	9f c3       	rjmp	.+1854   	; 0x2790 <__stack+0x591>
    2052:	89 3e       	cpi	r24, 0xE9	; 233
    2054:	f3 e0       	ldi	r31, 0x03	; 3
    2056:	9f 07       	cpc	r25, r31
    2058:	30 f4       	brcc	.+12     	; 0x2066 <mod_read_input_register+0xf6>
    205a:	88 35       	cpi	r24, 0x58	; 88
    205c:	92 40       	sbci	r25, 0x02	; 2
    205e:	09 f4       	brne	.+2      	; 0x2062 <mod_read_input_register+0xf2>
    2060:	72 c3       	rjmp	.+1764   	; 0x2746 <__stack+0x547>
    2062:	0c 94 80 1a 	jmp	0x3500	; 0x3500 <__stack+0x1301>
    2066:	89 3e       	cpi	r24, 0xE9	; 233
    2068:	e3 e0       	ldi	r30, 0x03	; 3
    206a:	9e 07       	cpc	r25, r30
    206c:	09 f4       	brne	.+2      	; 0x2070 <mod_read_input_register+0x100>
    206e:	9c c3       	rjmp	.+1848   	; 0x27a8 <__stack+0x5a9>
    2070:	8a 3e       	cpi	r24, 0xEA	; 234
    2072:	93 40       	sbci	r25, 0x03	; 3
    2074:	09 f4       	brne	.+2      	; 0x2078 <mod_read_input_register+0x108>
    2076:	a5 c3       	rjmp	.+1866   	; 0x27c2 <__stack+0x5c3>
    2078:	0c 94 80 1a 	jmp	0x3500	; 0x3500 <__stack+0x1301>
    207c:	8d 3e       	cpi	r24, 0xED	; 237
    207e:	23 e0       	ldi	r18, 0x03	; 3
    2080:	92 07       	cpc	r25, r18
    2082:	09 f4       	brne	.+2      	; 0x2086 <mod_read_input_register+0x116>
    2084:	31 c4       	rjmp	.+2146   	; 0x28e8 <__stack+0x6e9>
    2086:	8d 3e       	cpi	r24, 0xED	; 237
    2088:	e3 e0       	ldi	r30, 0x03	; 3
    208a:	9e 07       	cpc	r25, r30
    208c:	08 f4       	brcc	.+2      	; 0x2090 <mod_read_input_register+0x120>
    208e:	fb c3       	rjmp	.+2038   	; 0x2886 <__stack+0x687>
    2090:	8e 3e       	cpi	r24, 0xEE	; 238
    2092:	f3 e0       	ldi	r31, 0x03	; 3
    2094:	9f 07       	cpc	r25, r31
    2096:	09 f4       	brne	.+2      	; 0x209a <mod_read_input_register+0x12a>
    2098:	33 c4       	rjmp	.+2150   	; 0x2900 <__stack+0x701>
    209a:	8f 3e       	cpi	r24, 0xEF	; 239
    209c:	93 40       	sbci	r25, 0x03	; 3
    209e:	09 f4       	brne	.+2      	; 0x20a2 <mod_read_input_register+0x132>
    20a0:	3b c4       	rjmp	.+2166   	; 0x2918 <__stack+0x719>
    20a2:	0c 94 80 1a 	jmp	0x3500	; 0x3500 <__stack+0x1301>
    20a6:	87 3f       	cpi	r24, 0xF7	; 247
    20a8:	e3 e0       	ldi	r30, 0x03	; 3
    20aa:	9e 07       	cpc	r25, r30
    20ac:	09 f4       	brne	.+2      	; 0x20b0 <mod_read_input_register+0x140>
    20ae:	ec c4       	rjmp	.+2520   	; 0x2a88 <__stack+0x889>
    20b0:	88 3f       	cpi	r24, 0xF8	; 248
    20b2:	f3 e0       	ldi	r31, 0x03	; 3
    20b4:	9f 07       	cpc	r25, r31
    20b6:	a8 f4       	brcc	.+42     	; 0x20e2 <mod_read_input_register+0x172>
    20b8:	84 3f       	cpi	r24, 0xF4	; 244
    20ba:	23 e0       	ldi	r18, 0x03	; 3
    20bc:	92 07       	cpc	r25, r18
    20be:	09 f4       	brne	.+2      	; 0x20c2 <mod_read_input_register+0x152>
    20c0:	50 c4       	rjmp	.+2208   	; 0x2962 <__stack+0x763>
    20c2:	84 3f       	cpi	r24, 0xF4	; 244
    20c4:	e3 e0       	ldi	r30, 0x03	; 3
    20c6:	9e 07       	cpc	r25, r30
    20c8:	08 f4       	brcc	.+2      	; 0x20cc <mod_read_input_register+0x15c>
    20ca:	3e c4       	rjmp	.+2172   	; 0x2948 <__stack+0x749>
    20cc:	85 3f       	cpi	r24, 0xF5	; 245
    20ce:	f3 e0       	ldi	r31, 0x03	; 3
    20d0:	9f 07       	cpc	r25, r31
    20d2:	09 f4       	brne	.+2      	; 0x20d6 <mod_read_input_register+0x166>
    20d4:	77 c4       	rjmp	.+2286   	; 0x29c4 <__stack+0x7c5>
    20d6:	86 3f       	cpi	r24, 0xF6	; 246
    20d8:	93 40       	sbci	r25, 0x03	; 3
    20da:	09 f4       	brne	.+2      	; 0x20de <mod_read_input_register+0x16e>
    20dc:	a4 c4       	rjmp	.+2376   	; 0x2a26 <__stack+0x827>
    20de:	0c 94 80 1a 	jmp	0x3500	; 0x3500 <__stack+0x1301>
    20e2:	8c 3f       	cpi	r24, 0xFC	; 252
    20e4:	e3 e0       	ldi	r30, 0x03	; 3
    20e6:	9e 07       	cpc	r25, r30
    20e8:	09 f4       	brne	.+2      	; 0x20ec <mod_read_input_register+0x17c>
    20ea:	f2 c4       	rjmp	.+2532   	; 0x2ad0 <__stack+0x8d1>
    20ec:	8d 3f       	cpi	r24, 0xFD	; 253
    20ee:	f3 e0       	ldi	r31, 0x03	; 3
    20f0:	9f 07       	cpc	r25, r31
    20f2:	58 f4       	brcc	.+22     	; 0x210a <mod_read_input_register+0x19a>
    20f4:	88 3f       	cpi	r24, 0xF8	; 248
    20f6:	23 e0       	ldi	r18, 0x03	; 3
    20f8:	92 07       	cpc	r25, r18
    20fa:	09 f4       	brne	.+2      	; 0x20fe <mod_read_input_register+0x18e>
    20fc:	d1 c4       	rjmp	.+2466   	; 0x2aa0 <__stack+0x8a1>
    20fe:	89 3f       	cpi	r24, 0xF9	; 249
    2100:	93 40       	sbci	r25, 0x03	; 3
    2102:	09 f4       	brne	.+2      	; 0x2106 <mod_read_input_register+0x196>
    2104:	d9 c4       	rjmp	.+2482   	; 0x2ab8 <__stack+0x8b9>
    2106:	0c 94 80 1a 	jmp	0x3500	; 0x3500 <__stack+0x1301>
    210a:	8d 3f       	cpi	r24, 0xFD	; 253
    210c:	f3 e0       	ldi	r31, 0x03	; 3
    210e:	9f 07       	cpc	r25, r31
    2110:	09 f4       	brne	.+2      	; 0x2114 <mod_read_input_register+0x1a4>
    2112:	ea c4       	rjmp	.+2516   	; 0x2ae8 <__stack+0x8e9>
    2114:	8e 3f       	cpi	r24, 0xFE	; 254
    2116:	93 40       	sbci	r25, 0x03	; 3
    2118:	09 f4       	brne	.+2      	; 0x211c <mod_read_input_register+0x1ac>
    211a:	f3 c4       	rjmp	.+2534   	; 0x2b02 <__stack+0x903>
    211c:	0c 94 80 1a 	jmp	0x3500	; 0x3500 <__stack+0x1301>
    2120:	8b 30       	cpi	r24, 0x0B	; 11
    2122:	e4 e0       	ldi	r30, 0x04	; 4
    2124:	9e 07       	cpc	r25, r30
    2126:	09 f4       	brne	.+2      	; 0x212a <mod_read_input_register+0x1ba>
    2128:	04 c6       	rjmp	.+3080   	; 0x2d32 <__stack+0xb33>
    212a:	8c 30       	cpi	r24, 0x0C	; 12
    212c:	f4 e0       	ldi	r31, 0x04	; 4
    212e:	9f 07       	cpc	r25, r31
    2130:	98 f5       	brcc	.+102    	; 0x2198 <mod_read_input_register+0x228>
    2132:	86 30       	cpi	r24, 0x06	; 6
    2134:	24 e0       	ldi	r18, 0x04	; 4
    2136:	92 07       	cpc	r25, r18
    2138:	09 f4       	brne	.+2      	; 0x213c <mod_read_input_register+0x1cc>
    213a:	9a c5       	rjmp	.+2868   	; 0x2c70 <__stack+0xa71>
    213c:	87 30       	cpi	r24, 0x07	; 7
    213e:	e4 e0       	ldi	r30, 0x04	; 4
    2140:	9e 07       	cpc	r25, r30
    2142:	a8 f4       	brcc	.+42     	; 0x216e <mod_read_input_register+0x1fe>
    2144:	81 30       	cpi	r24, 0x01	; 1
    2146:	f4 e0       	ldi	r31, 0x04	; 4
    2148:	9f 07       	cpc	r25, r31
    214a:	09 f4       	brne	.+2      	; 0x214e <mod_read_input_register+0x1de>
    214c:	6d c5       	rjmp	.+2778   	; 0x2c28 <__stack+0xa29>
    214e:	81 30       	cpi	r24, 0x01	; 1
    2150:	24 e0       	ldi	r18, 0x04	; 4
    2152:	92 07       	cpc	r25, r18
    2154:	08 f4       	brcc	.+2      	; 0x2158 <mod_read_input_register+0x1e8>
    2156:	37 c5       	rjmp	.+2670   	; 0x2bc6 <__stack+0x9c7>
    2158:	82 30       	cpi	r24, 0x02	; 2
    215a:	e4 e0       	ldi	r30, 0x04	; 4
    215c:	9e 07       	cpc	r25, r30
    215e:	09 f4       	brne	.+2      	; 0x2162 <mod_read_input_register+0x1f2>
    2160:	6f c5       	rjmp	.+2782   	; 0x2c40 <__stack+0xa41>
    2162:	83 30       	cpi	r24, 0x03	; 3
    2164:	94 40       	sbci	r25, 0x04	; 4
    2166:	09 f4       	brne	.+2      	; 0x216a <mod_read_input_register+0x1fa>
    2168:	77 c5       	rjmp	.+2798   	; 0x2c58 <__stack+0xa59>
    216a:	0c 94 80 1a 	jmp	0x3500	; 0x3500 <__stack+0x1301>
    216e:	88 30       	cpi	r24, 0x08	; 8
    2170:	24 e0       	ldi	r18, 0x04	; 4
    2172:	92 07       	cpc	r25, r18
    2174:	09 f4       	brne	.+2      	; 0x2178 <mod_read_input_register+0x208>
    2176:	95 c5       	rjmp	.+2858   	; 0x2ca2 <__stack+0xaa3>
    2178:	88 30       	cpi	r24, 0x08	; 8
    217a:	e4 e0       	ldi	r30, 0x04	; 4
    217c:	9e 07       	cpc	r25, r30
    217e:	08 f4       	brcc	.+2      	; 0x2182 <mod_read_input_register+0x212>
    2180:	83 c5       	rjmp	.+2822   	; 0x2c88 <__stack+0xa89>
    2182:	89 30       	cpi	r24, 0x09	; 9
    2184:	f4 e0       	ldi	r31, 0x04	; 4
    2186:	9f 07       	cpc	r25, r31
    2188:	09 f4       	brne	.+2      	; 0x218c <mod_read_input_register+0x21c>
    218a:	a3 c5       	rjmp	.+2886   	; 0x2cd2 <__stack+0xad3>
    218c:	8a 30       	cpi	r24, 0x0A	; 10
    218e:	94 40       	sbci	r25, 0x04	; 4
    2190:	09 f4       	brne	.+2      	; 0x2194 <mod_read_input_register+0x224>
    2192:	b7 c5       	rjmp	.+2926   	; 0x2d02 <__stack+0xb03>
    2194:	0c 94 80 1a 	jmp	0x3500	; 0x3500 <__stack+0x1301>
    2198:	82 31       	cpi	r24, 0x12	; 18
    219a:	e4 e0       	ldi	r30, 0x04	; 4
    219c:	9e 07       	cpc	r25, r30
    219e:	09 f4       	brne	.+2      	; 0x21a2 <mod_read_input_register+0x232>
    21a0:	05 c6       	rjmp	.+3082   	; 0x2dac <__stack+0xbad>
    21a2:	83 31       	cpi	r24, 0x13	; 19
    21a4:	f4 e0       	ldi	r31, 0x04	; 4
    21a6:	9f 07       	cpc	r25, r31
    21a8:	a8 f4       	brcc	.+42     	; 0x21d4 <mod_read_input_register+0x264>
    21aa:	8d 30       	cpi	r24, 0x0D	; 13
    21ac:	24 e0       	ldi	r18, 0x04	; 4
    21ae:	92 07       	cpc	r25, r18
    21b0:	09 f4       	brne	.+2      	; 0x21b4 <mod_read_input_register+0x244>
    21b2:	d7 c5       	rjmp	.+2990   	; 0x2d62 <__stack+0xb63>
    21b4:	8d 30       	cpi	r24, 0x0D	; 13
    21b6:	e4 e0       	ldi	r30, 0x04	; 4
    21b8:	9e 07       	cpc	r25, r30
    21ba:	08 f4       	brcc	.+2      	; 0x21be <mod_read_input_register+0x24e>
    21bc:	c6 c5       	rjmp	.+2956   	; 0x2d4a <__stack+0xb4b>
    21be:	80 31       	cpi	r24, 0x10	; 16
    21c0:	f4 e0       	ldi	r31, 0x04	; 4
    21c2:	9f 07       	cpc	r25, r31
    21c4:	09 f4       	brne	.+2      	; 0x21c8 <mod_read_input_register+0x258>
    21c6:	d9 c5       	rjmp	.+2994   	; 0x2d7a <__stack+0xb7b>
    21c8:	81 31       	cpi	r24, 0x11	; 17
    21ca:	94 40       	sbci	r25, 0x04	; 4
    21cc:	09 f4       	brne	.+2      	; 0x21d0 <mod_read_input_register+0x260>
    21ce:	e1 c5       	rjmp	.+3010   	; 0x2d92 <__stack+0xb93>
    21d0:	0c 94 80 1a 	jmp	0x3500	; 0x3500 <__stack+0x1301>
    21d4:	85 31       	cpi	r24, 0x15	; 21
    21d6:	e4 e0       	ldi	r30, 0x04	; 4
    21d8:	9e 07       	cpc	r25, r30
    21da:	09 f4       	brne	.+2      	; 0x21de <mod_read_input_register+0x26e>
    21dc:	7a c6       	rjmp	.+3316   	; 0x2ed2 <__stack+0xcd3>
    21de:	86 31       	cpi	r24, 0x16	; 22
    21e0:	f4 e0       	ldi	r31, 0x04	; 4
    21e2:	9f 07       	cpc	r25, r31
    21e4:	58 f4       	brcc	.+22     	; 0x21fc <mod_read_input_register+0x28c>
    21e6:	83 31       	cpi	r24, 0x13	; 19
    21e8:	24 e0       	ldi	r18, 0x04	; 4
    21ea:	92 07       	cpc	r25, r18
    21ec:	09 f4       	brne	.+2      	; 0x21f0 <mod_read_input_register+0x280>
    21ee:	0f c6       	rjmp	.+3102   	; 0x2e0e <__stack+0xc0f>
    21f0:	84 31       	cpi	r24, 0x14	; 20
    21f2:	94 40       	sbci	r25, 0x04	; 4
    21f4:	09 f4       	brne	.+2      	; 0x21f8 <mod_read_input_register+0x288>
    21f6:	3c c6       	rjmp	.+3192   	; 0x2e70 <__stack+0xc71>
    21f8:	0c 94 80 1a 	jmp	0x3500	; 0x3500 <__stack+0x1301>
    21fc:	86 31       	cpi	r24, 0x16	; 22
    21fe:	f4 e0       	ldi	r31, 0x04	; 4
    2200:	9f 07       	cpc	r25, r31
    2202:	09 f4       	brne	.+2      	; 0x2206 <__stack+0x7>
    2204:	73 c6       	rjmp	.+3302   	; 0x2eec <__stack+0xced>
    2206:	87 31       	cpi	r24, 0x17	; 23
    2208:	94 40       	sbci	r25, 0x04	; 4
    220a:	09 f4       	brne	.+2      	; 0x220e <__stack+0xf>
    220c:	7c c6       	rjmp	.+3320   	; 0x2f06 <__stack+0xd07>
    220e:	0c 94 80 1a 	jmp	0x3500	; 0x3500 <__stack+0x1301>
    2212:	83 33       	cpi	r24, 0x33	; 51
    2214:	e4 e0       	ldi	r30, 0x04	; 4
    2216:	9e 07       	cpc	r25, r30
    2218:	11 f4       	brne	.+4      	; 0x221e <__stack+0x1f>
    221a:	0c 94 f1 19 	jmp	0x33e2	; 0x33e2 <__stack+0x11e3>
    221e:	84 33       	cpi	r24, 0x34	; 52
    2220:	f4 e0       	ldi	r31, 0x04	; 4
    2222:	9f 07       	cpc	r25, r31
    2224:	08 f0       	brcs	.+2      	; 0x2228 <__stack+0x29>
    2226:	7b c0       	rjmp	.+246    	; 0x231e <__stack+0x11f>
    2228:	86 32       	cpi	r24, 0x26	; 38
    222a:	24 e0       	ldi	r18, 0x04	; 4
    222c:	92 07       	cpc	r25, r18
    222e:	09 f4       	brne	.+2      	; 0x2232 <__stack+0x33>
    2230:	6a c7       	rjmp	.+3796   	; 0x3106 <__stack+0xf07>
    2232:	87 32       	cpi	r24, 0x27	; 39
    2234:	e4 e0       	ldi	r30, 0x04	; 4
    2236:	9e 07       	cpc	r25, r30
    2238:	98 f5       	brcc	.+102    	; 0x22a0 <__stack+0xa1>
    223a:	8f 31       	cpi	r24, 0x1F	; 31
    223c:	f4 e0       	ldi	r31, 0x04	; 4
    223e:	9f 07       	cpc	r25, r31
    2240:	09 f4       	brne	.+2      	; 0x2244 <__stack+0x45>
    2242:	1f c7       	rjmp	.+3646   	; 0x3082 <__stack+0xe83>
    2244:	80 32       	cpi	r24, 0x20	; 32
    2246:	24 e0       	ldi	r18, 0x04	; 4
    2248:	92 07       	cpc	r25, r18
    224a:	a8 f4       	brcc	.+42     	; 0x2276 <__stack+0x77>
    224c:	8c 31       	cpi	r24, 0x1C	; 28
    224e:	e4 e0       	ldi	r30, 0x04	; 4
    2250:	9e 07       	cpc	r25, r30
    2252:	09 f4       	brne	.+2      	; 0x2256 <__stack+0x57>
    2254:	80 c6       	rjmp	.+3328   	; 0x2f56 <__stack+0xd57>
    2256:	8c 31       	cpi	r24, 0x1C	; 28
    2258:	f4 e0       	ldi	r31, 0x04	; 4
    225a:	9f 07       	cpc	r25, r31
    225c:	08 f4       	brcc	.+2      	; 0x2260 <__stack+0x61>
    225e:	6d c6       	rjmp	.+3290   	; 0x2f3a <__stack+0xd3b>
    2260:	8d 31       	cpi	r24, 0x1D	; 29
    2262:	24 e0       	ldi	r18, 0x04	; 4
    2264:	92 07       	cpc	r25, r18
    2266:	09 f4       	brne	.+2      	; 0x226a <__stack+0x6b>
    2268:	a8 c6       	rjmp	.+3408   	; 0x2fba <__stack+0xdbb>
    226a:	8e 31       	cpi	r24, 0x1E	; 30
    226c:	94 40       	sbci	r25, 0x04	; 4
    226e:	09 f4       	brne	.+2      	; 0x2272 <__stack+0x73>
    2270:	d6 c6       	rjmp	.+3500   	; 0x301e <__stack+0xe1f>
    2272:	0c 94 80 1a 	jmp	0x3500	; 0x3500 <__stack+0x1301>
    2276:	81 32       	cpi	r24, 0x21	; 33
    2278:	f4 e0       	ldi	r31, 0x04	; 4
    227a:	9f 07       	cpc	r25, r31
    227c:	09 f4       	brne	.+2      	; 0x2280 <__stack+0x81>
    227e:	1b c7       	rjmp	.+3638   	; 0x30b6 <__stack+0xeb7>
    2280:	81 32       	cpi	r24, 0x21	; 33
    2282:	24 e0       	ldi	r18, 0x04	; 4
    2284:	92 07       	cpc	r25, r18
    2286:	08 f4       	brcc	.+2      	; 0x228a <__stack+0x8b>
    2288:	09 c7       	rjmp	.+3602   	; 0x309c <__stack+0xe9d>
    228a:	84 32       	cpi	r24, 0x24	; 36
    228c:	e4 e0       	ldi	r30, 0x04	; 4
    228e:	9e 07       	cpc	r25, r30
    2290:	09 f4       	brne	.+2      	; 0x2294 <__stack+0x95>
    2292:	1e c7       	rjmp	.+3644   	; 0x30d0 <__stack+0xed1>
    2294:	85 32       	cpi	r24, 0x25	; 37
    2296:	94 40       	sbci	r25, 0x04	; 4
    2298:	09 f4       	brne	.+2      	; 0x229c <__stack+0x9d>
    229a:	27 c7       	rjmp	.+3662   	; 0x30ea <__stack+0xeeb>
    229c:	0c 94 80 1a 	jmp	0x3500	; 0x3500 <__stack+0x1301>
    22a0:	8b 32       	cpi	r24, 0x2B	; 43
    22a2:	24 e0       	ldi	r18, 0x04	; 4
    22a4:	92 07       	cpc	r25, r18
    22a6:	09 f4       	brne	.+2      	; 0x22aa <__stack+0xab>
    22a8:	de c7       	rjmp	.+4028   	; 0x3266 <__stack+0x1067>
    22aa:	8c 32       	cpi	r24, 0x2C	; 44
    22ac:	e4 e0       	ldi	r30, 0x04	; 4
    22ae:	9e 07       	cpc	r25, r30
    22b0:	a8 f4       	brcc	.+42     	; 0x22dc <__stack+0xdd>
    22b2:	88 32       	cpi	r24, 0x28	; 40
    22b4:	f4 e0       	ldi	r31, 0x04	; 4
    22b6:	9f 07       	cpc	r25, r31
    22b8:	09 f4       	brne	.+2      	; 0x22bc <__stack+0xbd>
    22ba:	89 c7       	rjmp	.+3858   	; 0x31ce <__stack+0xfcf>
    22bc:	88 32       	cpi	r24, 0x28	; 40
    22be:	24 e0       	ldi	r18, 0x04	; 4
    22c0:	92 07       	cpc	r25, r18
    22c2:	08 f4       	brcc	.+2      	; 0x22c6 <__stack+0xc7>
    22c4:	52 c7       	rjmp	.+3748   	; 0x316a <__stack+0xf6b>
    22c6:	89 32       	cpi	r24, 0x29	; 41
    22c8:	e4 e0       	ldi	r30, 0x04	; 4
    22ca:	9e 07       	cpc	r25, r30
    22cc:	09 f4       	brne	.+2      	; 0x22d0 <__stack+0xd1>
    22ce:	b1 c7       	rjmp	.+3938   	; 0x3232 <__stack+0x1033>
    22d0:	8a 32       	cpi	r24, 0x2A	; 42
    22d2:	94 40       	sbci	r25, 0x04	; 4
    22d4:	09 f4       	brne	.+2      	; 0x22d8 <__stack+0xd9>
    22d6:	ba c7       	rjmp	.+3956   	; 0x324c <__stack+0x104d>
    22d8:	0c 94 80 1a 	jmp	0x3500	; 0x3500 <__stack+0x1301>
    22dc:	80 33       	cpi	r24, 0x30	; 48
    22de:	24 e0       	ldi	r18, 0x04	; 4
    22e0:	92 07       	cpc	r25, r18
    22e2:	09 f4       	brne	.+2      	; 0x22e6 <__stack+0xe7>
    22e4:	e8 c7       	rjmp	.+4048   	; 0x32b6 <__stack+0x10b7>
    22e6:	81 33       	cpi	r24, 0x31	; 49
    22e8:	e4 e0       	ldi	r30, 0x04	; 4
    22ea:	9e 07       	cpc	r25, r30
    22ec:	58 f4       	brcc	.+22     	; 0x2304 <__stack+0x105>
    22ee:	8e 32       	cpi	r24, 0x2E	; 46
    22f0:	f4 e0       	ldi	r31, 0x04	; 4
    22f2:	9f 07       	cpc	r25, r31
    22f4:	09 f4       	brne	.+2      	; 0x22f8 <__stack+0xf9>
    22f6:	c4 c7       	rjmp	.+3976   	; 0x3280 <__stack+0x1081>
    22f8:	8f 32       	cpi	r24, 0x2F	; 47
    22fa:	94 40       	sbci	r25, 0x04	; 4
    22fc:	09 f4       	brne	.+2      	; 0x2300 <__stack+0x101>
    22fe:	cd c7       	rjmp	.+3994   	; 0x329a <__stack+0x109b>
    2300:	0c 94 80 1a 	jmp	0x3500	; 0x3500 <__stack+0x1301>
    2304:	81 33       	cpi	r24, 0x31	; 49
    2306:	e4 e0       	ldi	r30, 0x04	; 4
    2308:	9e 07       	cpc	r25, r30
    230a:	11 f4       	brne	.+4      	; 0x2310 <__stack+0x111>
    230c:	0c 94 8d 19 	jmp	0x331a	; 0x331a <__stack+0x111b>
    2310:	82 33       	cpi	r24, 0x32	; 50
    2312:	94 40       	sbci	r25, 0x04	; 4
    2314:	11 f4       	brne	.+4      	; 0x231a <__stack+0x11b>
    2316:	0c 94 bf 19 	jmp	0x337e	; 0x337e <__stack+0x117f>
    231a:	0c 94 80 1a 	jmp	0x3500	; 0x3500 <__stack+0x1301>
    231e:	8a 34       	cpi	r24, 0x4A	; 74
    2320:	2c e9       	ldi	r18, 0x9C	; 156
    2322:	92 07       	cpc	r25, r18
    2324:	09 f4       	brne	.+2      	; 0x2328 <__stack+0x129>
    2326:	9b c1       	rjmp	.+822    	; 0x265e <__stack+0x45f>
    2328:	8b 34       	cpi	r24, 0x4B	; 75
    232a:	ec e9       	ldi	r30, 0x9C	; 156
    232c:	9e 07       	cpc	r25, r30
    232e:	08 f0       	brcs	.+2      	; 0x2332 <__stack+0x133>
    2330:	3f c0       	rjmp	.+126    	; 0x23b0 <__stack+0x1b1>
    2332:	82 34       	cpi	r24, 0x42	; 66
    2334:	fc e9       	ldi	r31, 0x9C	; 156
    2336:	9f 07       	cpc	r25, r31
    2338:	09 f4       	brne	.+2      	; 0x233c <__stack+0x13d>
    233a:	b6 c0       	rjmp	.+364    	; 0x24a8 <__stack+0x2a9>
    233c:	83 34       	cpi	r24, 0x43	; 67
    233e:	2c e9       	ldi	r18, 0x9C	; 156
    2340:	92 07       	cpc	r25, r18
    2342:	b8 f4       	brcc	.+46     	; 0x2372 <__stack+0x173>
    2344:	85 33       	cpi	r24, 0x35	; 53
    2346:	e4 e0       	ldi	r30, 0x04	; 4
    2348:	9e 07       	cpc	r25, r30
    234a:	11 f4       	brne	.+4      	; 0x2350 <__stack+0x151>
    234c:	0c 94 0b 1a 	jmp	0x3416	; 0x3416 <__stack+0x1217>
    2350:	85 33       	cpi	r24, 0x35	; 53
    2352:	f4 e0       	ldi	r31, 0x04	; 4
    2354:	9f 07       	cpc	r25, r31
    2356:	10 f4       	brcc	.+4      	; 0x235c <__stack+0x15d>
    2358:	0c 94 fe 19 	jmp	0x33fc	; 0x33fc <__stack+0x11fd>
    235c:	80 34       	cpi	r24, 0x40	; 64
    235e:	2c e9       	ldi	r18, 0x9C	; 156
    2360:	92 07       	cpc	r25, r18
    2362:	09 f4       	brne	.+2      	; 0x2366 <__stack+0x167>
    2364:	6f c0       	rjmp	.+222    	; 0x2444 <__stack+0x245>
    2366:	81 34       	cpi	r24, 0x41	; 65
    2368:	9c 49       	sbci	r25, 0x9C	; 156
    236a:	09 f4       	brne	.+2      	; 0x236e <__stack+0x16f>
    236c:	7a c0       	rjmp	.+244    	; 0x2462 <__stack+0x263>
    236e:	0c 94 80 1a 	jmp	0x3500	; 0x3500 <__stack+0x1301>
    2372:	85 34       	cpi	r24, 0x45	; 69
    2374:	fc e9       	ldi	r31, 0x9C	; 156
    2376:	9f 07       	cpc	r25, r31
    2378:	09 f4       	brne	.+2      	; 0x237c <__stack+0x17d>
    237a:	f0 c0       	rjmp	.+480    	; 0x255c <__stack+0x35d>
    237c:	86 34       	cpi	r24, 0x46	; 70
    237e:	2c e9       	ldi	r18, 0x9C	; 156
    2380:	92 07       	cpc	r25, r18
    2382:	58 f4       	brcc	.+22     	; 0x239a <__stack+0x19b>
    2384:	83 34       	cpi	r24, 0x43	; 67
    2386:	ec e9       	ldi	r30, 0x9C	; 156
    2388:	9e 07       	cpc	r25, r30
    238a:	09 f4       	brne	.+2      	; 0x238e <__stack+0x18f>
    238c:	9c c0       	rjmp	.+312    	; 0x24c6 <__stack+0x2c7>
    238e:	84 34       	cpi	r24, 0x44	; 68
    2390:	9c 49       	sbci	r25, 0x9C	; 156
    2392:	09 f4       	brne	.+2      	; 0x2396 <__stack+0x197>
    2394:	ba c0       	rjmp	.+372    	; 0x250a <__stack+0x30b>
    2396:	0c 94 80 1a 	jmp	0x3500	; 0x3500 <__stack+0x1301>
    239a:	86 34       	cpi	r24, 0x46	; 70
    239c:	2c e9       	ldi	r18, 0x9C	; 156
    239e:	92 07       	cpc	r25, r18
    23a0:	09 f4       	brne	.+2      	; 0x23a4 <__stack+0x1a5>
    23a2:	b4 c1       	rjmp	.+872    	; 0x270c <__stack+0x50d>
    23a4:	88 34       	cpi	r24, 0x48	; 72
    23a6:	9c 49       	sbci	r25, 0x9C	; 156
    23a8:	09 f4       	brne	.+2      	; 0x23ac <__stack+0x1ad>
    23aa:	3c c1       	rjmp	.+632    	; 0x2624 <__stack+0x425>
    23ac:	0c 94 80 1a 	jmp	0x3500	; 0x3500 <__stack+0x1301>
    23b0:	86 3a       	cpi	r24, 0xA6	; 166
    23b2:	fc e9       	ldi	r31, 0x9C	; 156
    23b4:	9f 07       	cpc	r25, r31
    23b6:	11 f4       	brne	.+4      	; 0x23bc <__stack+0x1bd>
    23b8:	0c 94 32 1a 	jmp	0x3464	; 0x3464 <__stack+0x1265>
    23bc:	87 3a       	cpi	r24, 0xA7	; 167
    23be:	2c e9       	ldi	r18, 0x9C	; 156
    23c0:	92 07       	cpc	r25, r18
    23c2:	e0 f4       	brcc	.+56     	; 0x23fc <__stack+0x1fd>
    23c4:	8e 34       	cpi	r24, 0x4E	; 78
    23c6:	ec e9       	ldi	r30, 0x9C	; 156
    23c8:	9e 07       	cpc	r25, r30
    23ca:	09 f4       	brne	.+2      	; 0x23ce <__stack+0x1cf>
    23cc:	82 c1       	rjmp	.+772    	; 0x26d2 <__stack+0x4d3>
    23ce:	8f 34       	cpi	r24, 0x4F	; 79
    23d0:	fc e9       	ldi	r31, 0x9C	; 156
    23d2:	9f 07       	cpc	r25, r31
    23d4:	30 f4       	brcc	.+12     	; 0x23e2 <__stack+0x1e3>
    23d6:	8c 34       	cpi	r24, 0x4C	; 76
    23d8:	9c 49       	sbci	r25, 0x9C	; 156
    23da:	09 f4       	brne	.+2      	; 0x23de <__stack+0x1df>
    23dc:	5d c1       	rjmp	.+698    	; 0x2698 <__stack+0x499>
    23de:	0c 94 80 1a 	jmp	0x3500	; 0x3500 <__stack+0x1301>
    23e2:	84 3a       	cpi	r24, 0xA4	; 164
    23e4:	ec e9       	ldi	r30, 0x9C	; 156
    23e6:	9e 07       	cpc	r25, r30
    23e8:	11 f4       	brne	.+4      	; 0x23ee <__stack+0x1ef>
    23ea:	0c 94 18 1a 	jmp	0x3430	; 0x3430 <__stack+0x1231>
    23ee:	85 3a       	cpi	r24, 0xA5	; 165
    23f0:	9c 49       	sbci	r25, 0x9C	; 156
    23f2:	11 f4       	brne	.+4      	; 0x23f8 <__stack+0x1f9>
    23f4:	0c 94 25 1a 	jmp	0x344a	; 0x344a <__stack+0x124b>
    23f8:	0c 94 80 1a 	jmp	0x3500	; 0x3500 <__stack+0x1301>
    23fc:	8f 3a       	cpi	r24, 0xAF	; 175
    23fe:	2c e9       	ldi	r18, 0x9C	; 156
    2400:	92 07       	cpc	r25, r18
    2402:	11 f4       	brne	.+4      	; 0x2408 <__stack+0x209>
    2404:	0c 94 59 1a 	jmp	0x34b2	; 0x34b2 <__stack+0x12b3>
    2408:	80 3b       	cpi	r24, 0xB0	; 176
    240a:	ec e9       	ldi	r30, 0x9C	; 156
    240c:	9e 07       	cpc	r25, r30
    240e:	68 f4       	brcc	.+26     	; 0x242a <__stack+0x22b>
    2410:	87 3a       	cpi	r24, 0xA7	; 167
    2412:	fc e9       	ldi	r31, 0x9C	; 156
    2414:	9f 07       	cpc	r25, r31
    2416:	11 f4       	brne	.+4      	; 0x241c <__stack+0x21d>
    2418:	0c 94 3f 1a 	jmp	0x347e	; 0x347e <__stack+0x127f>
    241c:	8e 3a       	cpi	r24, 0xAE	; 174
    241e:	9c 49       	sbci	r25, 0x9C	; 156
    2420:	11 f4       	brne	.+4      	; 0x2426 <__stack+0x227>
    2422:	0c 94 4c 1a 	jmp	0x3498	; 0x3498 <__stack+0x1299>
    2426:	0c 94 80 1a 	jmp	0x3500	; 0x3500 <__stack+0x1301>
    242a:	80 3b       	cpi	r24, 0xB0	; 176
    242c:	ec e9       	ldi	r30, 0x9C	; 156
    242e:	9e 07       	cpc	r25, r30
    2430:	11 f4       	brne	.+4      	; 0x2436 <__stack+0x237>
    2432:	0c 94 66 1a 	jmp	0x34cc	; 0x34cc <__stack+0x12cd>
    2436:	81 3b       	cpi	r24, 0xB1	; 177
    2438:	9c 49       	sbci	r25, 0x9C	; 156
    243a:	11 f4       	brne	.+4      	; 0x2440 <__stack+0x241>
    243c:	0c 94 73 1a 	jmp	0x34e6	; 0x34e6 <__stack+0x12e7>
    2440:	0c 94 80 1a 	jmp	0x3500	; 0x3500 <__stack+0x1301>
			case MODBUS_EXT0_READ_TEMP_ADR:
				//get_int16_t_data(0x0101, &data_counter, data);
				get_int16_t_data(tempController[EXT0].currentTemperature, &data_counter, data);			
    2444:	80 91 f7 08 	lds	r24, 0x08F7	; 0x8008f7 <tempController+0x4>
    2448:	90 91 f8 08 	lds	r25, 0x08F8	; 0x8008f8 <tempController+0x5>
    244c:	fc 01       	movw	r30, r24
    244e:	2d 85       	ldd	r18, Y+13	; 0x0d
    2450:	3e 85       	ldd	r19, Y+14	; 0x0e
    2452:	ce 01       	movw	r24, r28
    2454:	0c 96       	adiw	r24, 0x0c	; 12
    2456:	a9 01       	movw	r20, r18
    2458:	bc 01       	movw	r22, r24
    245a:	cf 01       	movw	r24, r30
    245c:	43 dd       	rcall	.-1402   	; 0x1ee4 <get_int16_t_data>
			break;
    245e:	0c 94 80 1a 	jmp	0x3500	; 0x3500 <__stack+0x1301>
			case MODBUS_EXT0_READ_TEMPC_ADR:
				//get_int16_t_data(0x0202, &data_counter, data);
				get_int16_t_data((uint16_t)(tempController[EXT0].currentTemperatureC*100), &data_counter, data);
    2462:	80 91 fb 08 	lds	r24, 0x08FB	; 0x8008fb <tempController+0x8>
    2466:	90 91 fc 08 	lds	r25, 0x08FC	; 0x8008fc <tempController+0x9>
    246a:	a0 91 fd 08 	lds	r26, 0x08FD	; 0x8008fd <tempController+0xa>
    246e:	b0 91 fe 08 	lds	r27, 0x08FE	; 0x8008fe <tempController+0xb>
    2472:	20 e0       	ldi	r18, 0x00	; 0
    2474:	30 e0       	ldi	r19, 0x00	; 0
    2476:	48 ec       	ldi	r20, 0xC8	; 200
    2478:	52 e4       	ldi	r21, 0x42	; 66
    247a:	bc 01       	movw	r22, r24
    247c:	cd 01       	movw	r24, r26
    247e:	0e 94 a3 2a 	call	0x5546	; 0x5546 <__mulsf3>
    2482:	dc 01       	movw	r26, r24
    2484:	cb 01       	movw	r24, r22
    2486:	bc 01       	movw	r22, r24
    2488:	cd 01       	movw	r24, r26
    248a:	0e 94 c1 29 	call	0x5382	; 0x5382 <__fixunssfsi>
    248e:	dc 01       	movw	r26, r24
    2490:	cb 01       	movw	r24, r22
    2492:	fc 01       	movw	r30, r24
    2494:	2d 85       	ldd	r18, Y+13	; 0x0d
    2496:	3e 85       	ldd	r19, Y+14	; 0x0e
    2498:	ce 01       	movw	r24, r28
    249a:	0c 96       	adiw	r24, 0x0c	; 12
    249c:	a9 01       	movw	r20, r18
    249e:	bc 01       	movw	r22, r24
    24a0:	cf 01       	movw	r24, r30
    24a2:	20 dd       	rcall	.-1472   	; 0x1ee4 <get_int16_t_data>
			break;	
    24a4:	0c 94 80 1a 	jmp	0x3500	; 0x3500 <__stack+0x1301>
			case MODBUS_EXT1_READ_TEMP_ADR:
				//get_int16_t_data(0x0303, &data_counter, data);
				get_int16_t_data(tempController[EXT1].currentTemperature, &data_counter, data);
    24a8:	80 91 39 09 	lds	r24, 0x0939	; 0x800939 <tempController+0x46>
    24ac:	90 91 3a 09 	lds	r25, 0x093A	; 0x80093a <tempController+0x47>
    24b0:	fc 01       	movw	r30, r24
    24b2:	2d 85       	ldd	r18, Y+13	; 0x0d
    24b4:	3e 85       	ldd	r19, Y+14	; 0x0e
    24b6:	ce 01       	movw	r24, r28
    24b8:	0c 96       	adiw	r24, 0x0c	; 12
    24ba:	a9 01       	movw	r20, r18
    24bc:	bc 01       	movw	r22, r24
    24be:	cf 01       	movw	r24, r30
    24c0:	11 dd       	rcall	.-1502   	; 0x1ee4 <get_int16_t_data>
			break;
    24c2:	0c 94 80 1a 	jmp	0x3500	; 0x3500 <__stack+0x1301>
			case MODBUS_EXT1_READ_TEMPC_ADR:
				//get_int16_t_data(0x0404, &data_counter, data);
				get_int16_t_data((uint16_t)(tempController[EXT1].currentTemperatureC*100), &data_counter, data);
    24c6:	80 91 3d 09 	lds	r24, 0x093D	; 0x80093d <tempController+0x4a>
    24ca:	90 91 3e 09 	lds	r25, 0x093E	; 0x80093e <tempController+0x4b>
    24ce:	a0 91 3f 09 	lds	r26, 0x093F	; 0x80093f <tempController+0x4c>
    24d2:	b0 91 40 09 	lds	r27, 0x0940	; 0x800940 <tempController+0x4d>
    24d6:	20 e0       	ldi	r18, 0x00	; 0
    24d8:	30 e0       	ldi	r19, 0x00	; 0
    24da:	48 ec       	ldi	r20, 0xC8	; 200
    24dc:	52 e4       	ldi	r21, 0x42	; 66
    24de:	bc 01       	movw	r22, r24
    24e0:	cd 01       	movw	r24, r26
    24e2:	0e 94 a3 2a 	call	0x5546	; 0x5546 <__mulsf3>
    24e6:	dc 01       	movw	r26, r24
    24e8:	cb 01       	movw	r24, r22
    24ea:	bc 01       	movw	r22, r24
    24ec:	cd 01       	movw	r24, r26
    24ee:	0e 94 c1 29 	call	0x5382	; 0x5382 <__fixunssfsi>
    24f2:	dc 01       	movw	r26, r24
    24f4:	cb 01       	movw	r24, r22
    24f6:	fc 01       	movw	r30, r24
    24f8:	2d 85       	ldd	r18, Y+13	; 0x0d
    24fa:	3e 85       	ldd	r19, Y+14	; 0x0e
    24fc:	ce 01       	movw	r24, r28
    24fe:	0c 96       	adiw	r24, 0x0c	; 12
    2500:	a9 01       	movw	r20, r18
    2502:	bc 01       	movw	r22, r24
    2504:	cf 01       	movw	r24, r30
    2506:	ee dc       	rcall	.-1572   	; 0x1ee4 <get_int16_t_data>
			break;	
    2508:	fb c7       	rjmp	.+4086   	; 0x3500 <__stack+0x1301>
			case MODBUS_BED_READ_TEMP_ADR:
				tmp = ((tempController[BED0].currentTemperature+tempController[BED1].currentTemperature+tempController[BED2].currentTemperature+tempController[BED3].currentTemperature)/4);
    250a:	20 91 7b 09 	lds	r18, 0x097B	; 0x80097b <tempController+0x88>
    250e:	30 91 7c 09 	lds	r19, 0x097C	; 0x80097c <tempController+0x89>
    2512:	80 91 bd 09 	lds	r24, 0x09BD	; 0x8009bd <tempController+0xca>
    2516:	90 91 be 09 	lds	r25, 0x09BE	; 0x8009be <tempController+0xcb>
    251a:	28 0f       	add	r18, r24
    251c:	39 1f       	adc	r19, r25
    251e:	80 91 ff 09 	lds	r24, 0x09FF	; 0x8009ff <tempController+0x10c>
    2522:	90 91 00 0a 	lds	r25, 0x0A00	; 0x800a00 <tempController+0x10d>
    2526:	28 0f       	add	r18, r24
    2528:	39 1f       	adc	r19, r25
    252a:	80 91 41 0a 	lds	r24, 0x0A41	; 0x800a41 <tempController+0x14e>
    252e:	90 91 42 0a 	lds	r25, 0x0A42	; 0x800a42 <tempController+0x14f>
    2532:	82 0f       	add	r24, r18
    2534:	93 1f       	adc	r25, r19
    2536:	99 23       	and	r25, r25
    2538:	0c f4       	brge	.+2      	; 0x253c <__stack+0x33d>
    253a:	03 96       	adiw	r24, 0x03	; 3
    253c:	95 95       	asr	r25
    253e:	87 95       	ror	r24
    2540:	95 95       	asr	r25
    2542:	87 95       	ror	r24
    2544:	9f 83       	std	Y+7, r25	; 0x07
    2546:	8e 83       	std	Y+6, r24	; 0x06
				//get_int16_t_data(0x0505, &data_counter, data);	
				get_int16_t_data(tmp, &data_counter, data);			
    2548:	4d 85       	ldd	r20, Y+13	; 0x0d
    254a:	5e 85       	ldd	r21, Y+14	; 0x0e
    254c:	9e 01       	movw	r18, r28
    254e:	24 5f       	subi	r18, 0xF4	; 244
    2550:	3f 4f       	sbci	r19, 0xFF	; 255
    2552:	8e 81       	ldd	r24, Y+6	; 0x06
    2554:	9f 81       	ldd	r25, Y+7	; 0x07
    2556:	b9 01       	movw	r22, r18
    2558:	c5 dc       	rcall	.-1654   	; 0x1ee4 <get_int16_t_data>
			break;
    255a:	d2 c7       	rjmp	.+4004   	; 0x3500 <__stack+0x1301>
			case MODBUS_BED_READ_TEMPC_ADR:
				tmpf = (((tempController[BED0].currentTemperatureC+tempController[BED1].currentTemperatureC+tempController[BED2].currentTemperatureC+tempController[BED3].currentTemperatureC)/4)*100);
    255c:	80 91 7f 09 	lds	r24, 0x097F	; 0x80097f <tempController+0x8c>
    2560:	90 91 80 09 	lds	r25, 0x0980	; 0x800980 <tempController+0x8d>
    2564:	a0 91 81 09 	lds	r26, 0x0981	; 0x800981 <tempController+0x8e>
    2568:	b0 91 82 09 	lds	r27, 0x0982	; 0x800982 <tempController+0x8f>
    256c:	20 91 c1 09 	lds	r18, 0x09C1	; 0x8009c1 <tempController+0xce>
    2570:	30 91 c2 09 	lds	r19, 0x09C2	; 0x8009c2 <tempController+0xcf>
    2574:	40 91 c3 09 	lds	r20, 0x09C3	; 0x8009c3 <tempController+0xd0>
    2578:	50 91 c4 09 	lds	r21, 0x09C4	; 0x8009c4 <tempController+0xd1>
    257c:	bc 01       	movw	r22, r24
    257e:	cd 01       	movw	r24, r26
    2580:	0e 94 ec 28 	call	0x51d8	; 0x51d8 <__addsf3>
    2584:	dc 01       	movw	r26, r24
    2586:	cb 01       	movw	r24, r22
    2588:	7c 01       	movw	r14, r24
    258a:	8d 01       	movw	r16, r26
    258c:	80 91 03 0a 	lds	r24, 0x0A03	; 0x800a03 <tempController+0x110>
    2590:	90 91 04 0a 	lds	r25, 0x0A04	; 0x800a04 <tempController+0x111>
    2594:	a0 91 05 0a 	lds	r26, 0x0A05	; 0x800a05 <tempController+0x112>
    2598:	b0 91 06 0a 	lds	r27, 0x0A06	; 0x800a06 <tempController+0x113>
    259c:	9c 01       	movw	r18, r24
    259e:	ad 01       	movw	r20, r26
    25a0:	c8 01       	movw	r24, r16
    25a2:	b7 01       	movw	r22, r14
    25a4:	0e 94 ec 28 	call	0x51d8	; 0x51d8 <__addsf3>
    25a8:	dc 01       	movw	r26, r24
    25aa:	cb 01       	movw	r24, r22
    25ac:	7c 01       	movw	r14, r24
    25ae:	8d 01       	movw	r16, r26
    25b0:	80 91 45 0a 	lds	r24, 0x0A45	; 0x800a45 <tempController+0x152>
    25b4:	90 91 46 0a 	lds	r25, 0x0A46	; 0x800a46 <tempController+0x153>
    25b8:	a0 91 47 0a 	lds	r26, 0x0A47	; 0x800a47 <tempController+0x154>
    25bc:	b0 91 48 0a 	lds	r27, 0x0A48	; 0x800a48 <tempController+0x155>
    25c0:	9c 01       	movw	r18, r24
    25c2:	ad 01       	movw	r20, r26
    25c4:	c8 01       	movw	r24, r16
    25c6:	b7 01       	movw	r22, r14
    25c8:	0e 94 ec 28 	call	0x51d8	; 0x51d8 <__addsf3>
    25cc:	dc 01       	movw	r26, r24
    25ce:	cb 01       	movw	r24, r22
    25d0:	20 e0       	ldi	r18, 0x00	; 0
    25d2:	30 e0       	ldi	r19, 0x00	; 0
    25d4:	40 e8       	ldi	r20, 0x80	; 128
    25d6:	50 e4       	ldi	r21, 0x40	; 64
    25d8:	bc 01       	movw	r22, r24
    25da:	cd 01       	movw	r24, r26
    25dc:	0e 94 54 29 	call	0x52a8	; 0x52a8 <__divsf3>
    25e0:	dc 01       	movw	r26, r24
    25e2:	cb 01       	movw	r24, r22
    25e4:	20 e0       	ldi	r18, 0x00	; 0
    25e6:	30 e0       	ldi	r19, 0x00	; 0
    25e8:	48 ec       	ldi	r20, 0xC8	; 200
    25ea:	52 e4       	ldi	r21, 0x42	; 66
    25ec:	bc 01       	movw	r22, r24
    25ee:	cd 01       	movw	r24, r26
    25f0:	0e 94 a3 2a 	call	0x5546	; 0x5546 <__mulsf3>
    25f4:	dc 01       	movw	r26, r24
    25f6:	cb 01       	movw	r24, r22
    25f8:	88 87       	std	Y+8, r24	; 0x08
    25fa:	99 87       	std	Y+9, r25	; 0x09
    25fc:	aa 87       	std	Y+10, r26	; 0x0a
    25fe:	bb 87       	std	Y+11, r27	; 0x0b
				//get_int16_t_data(0x0606, &data_counter, data);
				get_int16_t_data((uint16_t)tmpf, &data_counter, data);			
    2600:	68 85       	ldd	r22, Y+8	; 0x08
    2602:	79 85       	ldd	r23, Y+9	; 0x09
    2604:	8a 85       	ldd	r24, Y+10	; 0x0a
    2606:	9b 85       	ldd	r25, Y+11	; 0x0b
    2608:	0e 94 c1 29 	call	0x5382	; 0x5382 <__fixunssfsi>
    260c:	dc 01       	movw	r26, r24
    260e:	cb 01       	movw	r24, r22
    2610:	fc 01       	movw	r30, r24
    2612:	2d 85       	ldd	r18, Y+13	; 0x0d
    2614:	3e 85       	ldd	r19, Y+14	; 0x0e
    2616:	ce 01       	movw	r24, r28
    2618:	0c 96       	adiw	r24, 0x0c	; 12
    261a:	a9 01       	movw	r20, r18
    261c:	bc 01       	movw	r22, r24
    261e:	cf 01       	movw	r24, r30
    2620:	61 dc       	rcall	.-1854   	; 0x1ee4 <get_int16_t_data>
			break;							
    2622:	6e c7       	rjmp	.+3804   	; 0x3500 <__stack+0x1301>
			case MODBUS_BED0_READ_TEMP_ADR:
				get_int16_t_data((uint16_t)tempController[BED0].currentTemperatureC*100, &data_counter, data);			
    2624:	80 91 7f 09 	lds	r24, 0x097F	; 0x80097f <tempController+0x8c>
    2628:	90 91 80 09 	lds	r25, 0x0980	; 0x800980 <tempController+0x8d>
    262c:	a0 91 81 09 	lds	r26, 0x0981	; 0x800981 <tempController+0x8e>
    2630:	b0 91 82 09 	lds	r27, 0x0982	; 0x800982 <tempController+0x8f>
    2634:	bc 01       	movw	r22, r24
    2636:	cd 01       	movw	r24, r26
    2638:	0e 94 c1 29 	call	0x5382	; 0x5382 <__fixunssfsi>
    263c:	dc 01       	movw	r26, r24
    263e:	cb 01       	movw	r24, r22
    2640:	9c 01       	movw	r18, r24
    2642:	44 e6       	ldi	r20, 0x64	; 100
    2644:	42 9f       	mul	r20, r18
    2646:	c0 01       	movw	r24, r0
    2648:	43 9f       	mul	r20, r19
    264a:	90 0d       	add	r25, r0
    264c:	11 24       	eor	r1, r1
    264e:	4d 85       	ldd	r20, Y+13	; 0x0d
    2650:	5e 85       	ldd	r21, Y+14	; 0x0e
    2652:	9e 01       	movw	r18, r28
    2654:	24 5f       	subi	r18, 0xF4	; 244
    2656:	3f 4f       	sbci	r19, 0xFF	; 255
    2658:	b9 01       	movw	r22, r18
    265a:	44 dc       	rcall	.-1912   	; 0x1ee4 <get_int16_t_data>
			break;
    265c:	51 c7       	rjmp	.+3746   	; 0x3500 <__stack+0x1301>
			case MODBUS_BED1_READ_TEMP_ADR:
				get_int16_t_data((uint16_t)tempController[BED1].currentTemperatureC*100, &data_counter, data);		
    265e:	80 91 c1 09 	lds	r24, 0x09C1	; 0x8009c1 <tempController+0xce>
    2662:	90 91 c2 09 	lds	r25, 0x09C2	; 0x8009c2 <tempController+0xcf>
    2666:	a0 91 c3 09 	lds	r26, 0x09C3	; 0x8009c3 <tempController+0xd0>
    266a:	b0 91 c4 09 	lds	r27, 0x09C4	; 0x8009c4 <tempController+0xd1>
    266e:	bc 01       	movw	r22, r24
    2670:	cd 01       	movw	r24, r26
    2672:	0e 94 c1 29 	call	0x5382	; 0x5382 <__fixunssfsi>
    2676:	dc 01       	movw	r26, r24
    2678:	cb 01       	movw	r24, r22
    267a:	9c 01       	movw	r18, r24
    267c:	44 e6       	ldi	r20, 0x64	; 100
    267e:	42 9f       	mul	r20, r18
    2680:	c0 01       	movw	r24, r0
    2682:	43 9f       	mul	r20, r19
    2684:	90 0d       	add	r25, r0
    2686:	11 24       	eor	r1, r1
    2688:	4d 85       	ldd	r20, Y+13	; 0x0d
    268a:	5e 85       	ldd	r21, Y+14	; 0x0e
    268c:	9e 01       	movw	r18, r28
    268e:	24 5f       	subi	r18, 0xF4	; 244
    2690:	3f 4f       	sbci	r19, 0xFF	; 255
    2692:	b9 01       	movw	r22, r18
    2694:	27 dc       	rcall	.-1970   	; 0x1ee4 <get_int16_t_data>
			break;
    2696:	34 c7       	rjmp	.+3688   	; 0x3500 <__stack+0x1301>
			case MODBUS_BED2_READ_TEMP_ADR:
				get_int16_t_data((uint16_t)tempController[BED2].currentTemperatureC*100, &data_counter, data);	
    2698:	80 91 03 0a 	lds	r24, 0x0A03	; 0x800a03 <tempController+0x110>
    269c:	90 91 04 0a 	lds	r25, 0x0A04	; 0x800a04 <tempController+0x111>
    26a0:	a0 91 05 0a 	lds	r26, 0x0A05	; 0x800a05 <tempController+0x112>
    26a4:	b0 91 06 0a 	lds	r27, 0x0A06	; 0x800a06 <tempController+0x113>
    26a8:	bc 01       	movw	r22, r24
    26aa:	cd 01       	movw	r24, r26
    26ac:	0e 94 c1 29 	call	0x5382	; 0x5382 <__fixunssfsi>
    26b0:	dc 01       	movw	r26, r24
    26b2:	cb 01       	movw	r24, r22
    26b4:	9c 01       	movw	r18, r24
    26b6:	44 e6       	ldi	r20, 0x64	; 100
    26b8:	42 9f       	mul	r20, r18
    26ba:	c0 01       	movw	r24, r0
    26bc:	43 9f       	mul	r20, r19
    26be:	90 0d       	add	r25, r0
    26c0:	11 24       	eor	r1, r1
    26c2:	4d 85       	ldd	r20, Y+13	; 0x0d
    26c4:	5e 85       	ldd	r21, Y+14	; 0x0e
    26c6:	9e 01       	movw	r18, r28
    26c8:	24 5f       	subi	r18, 0xF4	; 244
    26ca:	3f 4f       	sbci	r19, 0xFF	; 255
    26cc:	b9 01       	movw	r22, r18
    26ce:	0a dc       	rcall	.-2028   	; 0x1ee4 <get_int16_t_data>
			break;
    26d0:	17 c7       	rjmp	.+3630   	; 0x3500 <__stack+0x1301>
			case MODBUS_BED3_READ_TEMP_ADR:
				get_int16_t_data((uint16_t)tempController[BED3].currentTemperatureC*100, &data_counter, data);
    26d2:	80 91 45 0a 	lds	r24, 0x0A45	; 0x800a45 <tempController+0x152>
    26d6:	90 91 46 0a 	lds	r25, 0x0A46	; 0x800a46 <tempController+0x153>
    26da:	a0 91 47 0a 	lds	r26, 0x0A47	; 0x800a47 <tempController+0x154>
    26de:	b0 91 48 0a 	lds	r27, 0x0A48	; 0x800a48 <tempController+0x155>
    26e2:	bc 01       	movw	r22, r24
    26e4:	cd 01       	movw	r24, r26
    26e6:	0e 94 c1 29 	call	0x5382	; 0x5382 <__fixunssfsi>
    26ea:	dc 01       	movw	r26, r24
    26ec:	cb 01       	movw	r24, r22
    26ee:	9c 01       	movw	r18, r24
    26f0:	44 e6       	ldi	r20, 0x64	; 100
    26f2:	42 9f       	mul	r20, r18
    26f4:	c0 01       	movw	r24, r0
    26f6:	43 9f       	mul	r20, r19
    26f8:	90 0d       	add	r25, r0
    26fa:	11 24       	eor	r1, r1
    26fc:	4d 85       	ldd	r20, Y+13	; 0x0d
    26fe:	5e 85       	ldd	r21, Y+14	; 0x0e
    2700:	9e 01       	movw	r18, r28
    2702:	24 5f       	subi	r18, 0xF4	; 244
    2704:	3f 4f       	sbci	r19, 0xFF	; 255
    2706:	b9 01       	movw	r22, r18
    2708:	ed db       	rcall	.-2086   	; 0x1ee4 <get_int16_t_data>
			break;
    270a:	fa c6       	rjmp	.+3572   	; 0x3500 <__stack+0x1301>
			case MODBUS_CHAMBER0_READ_TEMP_ADR:
				get_int16_t_data((uint16_t)tempController[CHAMB0].currentTemperatureC*100, &data_counter, data);	
    270c:	80 91 87 0a 	lds	r24, 0x0A87	; 0x800a87 <tempController+0x194>
    2710:	90 91 88 0a 	lds	r25, 0x0A88	; 0x800a88 <tempController+0x195>
    2714:	a0 91 89 0a 	lds	r26, 0x0A89	; 0x800a89 <tempController+0x196>
    2718:	b0 91 8a 0a 	lds	r27, 0x0A8A	; 0x800a8a <tempController+0x197>
    271c:	bc 01       	movw	r22, r24
    271e:	cd 01       	movw	r24, r26
    2720:	0e 94 c1 29 	call	0x5382	; 0x5382 <__fixunssfsi>
    2724:	dc 01       	movw	r26, r24
    2726:	cb 01       	movw	r24, r22
    2728:	9c 01       	movw	r18, r24
    272a:	44 e6       	ldi	r20, 0x64	; 100
    272c:	42 9f       	mul	r20, r18
    272e:	c0 01       	movw	r24, r0
    2730:	43 9f       	mul	r20, r19
    2732:	90 0d       	add	r25, r0
    2734:	11 24       	eor	r1, r1
    2736:	4d 85       	ldd	r20, Y+13	; 0x0d
    2738:	5e 85       	ldd	r21, Y+14	; 0x0e
    273a:	9e 01       	movw	r18, r28
    273c:	24 5f       	subi	r18, 0xF4	; 244
    273e:	3f 4f       	sbci	r19, 0xFF	; 255
    2740:	b9 01       	movw	r22, r18
    2742:	d0 db       	rcall	.-2144   	; 0x1ee4 <get_int16_t_data>
			break;	
    2744:	dd c6       	rjmp	.+3514   	; 0x3500 <__stack+0x1301>
			case MODBUS_AUTOTUNE_PID_STATUS:
				data_counter++;
    2746:	8c 85       	ldd	r24, Y+12	; 0x0c
    2748:	8f 5f       	subi	r24, 0xFF	; 255
    274a:	8c 87       	std	Y+12, r24	; 0x0c
				data[data_counter+3] = PIDTune_status >> 8;
    274c:	8c 85       	ldd	r24, Y+12	; 0x0c
    274e:	88 2f       	mov	r24, r24
    2750:	90 e0       	ldi	r25, 0x00	; 0
    2752:	03 96       	adiw	r24, 0x03	; 3
    2754:	2d 85       	ldd	r18, Y+13	; 0x0d
    2756:	3e 85       	ldd	r19, Y+14	; 0x0e
    2758:	82 0f       	add	r24, r18
    275a:	93 1f       	adc	r25, r19
    275c:	20 91 ad 07 	lds	r18, 0x07AD	; 0x8007ad <PIDTune_status>
    2760:	30 91 ae 07 	lds	r19, 0x07AE	; 0x8007ae <PIDTune_status+0x1>
    2764:	23 2f       	mov	r18, r19
    2766:	33 27       	eor	r19, r19
    2768:	fc 01       	movw	r30, r24
    276a:	20 83       	st	Z, r18
				data_counter++;
    276c:	8c 85       	ldd	r24, Y+12	; 0x0c
    276e:	8f 5f       	subi	r24, 0xFF	; 255
    2770:	8c 87       	std	Y+12, r24	; 0x0c
				data[data_counter+3] = PIDTune_status & 0x00ff;	
    2772:	8c 85       	ldd	r24, Y+12	; 0x0c
    2774:	88 2f       	mov	r24, r24
    2776:	90 e0       	ldi	r25, 0x00	; 0
    2778:	03 96       	adiw	r24, 0x03	; 3
    277a:	2d 85       	ldd	r18, Y+13	; 0x0d
    277c:	3e 85       	ldd	r19, Y+14	; 0x0e
    277e:	82 0f       	add	r24, r18
    2780:	93 1f       	adc	r25, r19
    2782:	20 91 ad 07 	lds	r18, 0x07AD	; 0x8007ad <PIDTune_status>
    2786:	30 91 ae 07 	lds	r19, 0x07AE	; 0x8007ae <PIDTune_status+0x1>
    278a:	fc 01       	movw	r30, r24
    278c:	20 83       	st	Z, r18
			break;
    278e:	b8 c6       	rjmp	.+3440   	; 0x3500 <__stack+0x1301>
			case MODBUS_EXT0_R_W_SENSOR_TYPE_ADR:
			get_int16_t_data((uint16_t)tempController[EXT0].sensorType, &data_counter, data);
    2790:	80 91 f5 08 	lds	r24, 0x08F5	; 0x8008f5 <tempController+0x2>
    2794:	88 2f       	mov	r24, r24
    2796:	90 e0       	ldi	r25, 0x00	; 0
    2798:	4d 85       	ldd	r20, Y+13	; 0x0d
    279a:	5e 85       	ldd	r21, Y+14	; 0x0e
    279c:	9e 01       	movw	r18, r28
    279e:	24 5f       	subi	r18, 0xF4	; 244
    27a0:	3f 4f       	sbci	r19, 0xFF	; 255
    27a2:	b9 01       	movw	r22, r18
    27a4:	9f db       	rcall	.-2242   	; 0x1ee4 <get_int16_t_data>
			break;
    27a6:	ac c6       	rjmp	.+3416   	; 0x3500 <__stack+0x1301>
			case MODBUS_EXT0_R_W_HEAT_MANAGER_ADR:
			get_int16_t_data((uint16_t)tempController[EXT0].heatManager, &data_counter, data);
    27a8:	80 91 07 09 	lds	r24, 0x0907	; 0x800907 <tempController+0x14>
    27ac:	08 2e       	mov	r0, r24
    27ae:	00 0c       	add	r0, r0
    27b0:	99 0b       	sbc	r25, r25
    27b2:	4d 85       	ldd	r20, Y+13	; 0x0d
    27b4:	5e 85       	ldd	r21, Y+14	; 0x0e
    27b6:	9e 01       	movw	r18, r28
    27b8:	24 5f       	subi	r18, 0xF4	; 244
    27ba:	3f 4f       	sbci	r19, 0xFF	; 255
    27bc:	b9 01       	movw	r22, r18
    27be:	92 db       	rcall	.-2268   	; 0x1ee4 <get_int16_t_data>
			break;
    27c0:	9f c6       	rjmp	.+3390   	; 0x3500 <__stack+0x1301>
			case MODBUS_EXT0_R_W_PID_P_ADR:
			get_int16_t_data((uint16_t)tempController[EXT0].pidPGain*100.0, &data_counter, data);
    27c2:	80 91 0e 09 	lds	r24, 0x090E	; 0x80090e <tempController+0x1b>
    27c6:	90 91 0f 09 	lds	r25, 0x090F	; 0x80090f <tempController+0x1c>
    27ca:	a0 91 10 09 	lds	r26, 0x0910	; 0x800910 <tempController+0x1d>
    27ce:	b0 91 11 09 	lds	r27, 0x0911	; 0x800911 <tempController+0x1e>
    27d2:	bc 01       	movw	r22, r24
    27d4:	cd 01       	movw	r24, r26
    27d6:	0e 94 c1 29 	call	0x5382	; 0x5382 <__fixunssfsi>
    27da:	dc 01       	movw	r26, r24
    27dc:	cb 01       	movw	r24, r22
    27de:	cc 01       	movw	r24, r24
    27e0:	a0 e0       	ldi	r26, 0x00	; 0
    27e2:	b0 e0       	ldi	r27, 0x00	; 0
    27e4:	bc 01       	movw	r22, r24
    27e6:	cd 01       	movw	r24, r26
    27e8:	0e 94 ed 29 	call	0x53da	; 0x53da <__floatunsisf>
    27ec:	dc 01       	movw	r26, r24
    27ee:	cb 01       	movw	r24, r22
    27f0:	20 e0       	ldi	r18, 0x00	; 0
    27f2:	30 e0       	ldi	r19, 0x00	; 0
    27f4:	48 ec       	ldi	r20, 0xC8	; 200
    27f6:	52 e4       	ldi	r21, 0x42	; 66
    27f8:	bc 01       	movw	r22, r24
    27fa:	cd 01       	movw	r24, r26
    27fc:	0e 94 a3 2a 	call	0x5546	; 0x5546 <__mulsf3>
    2800:	dc 01       	movw	r26, r24
    2802:	cb 01       	movw	r24, r22
    2804:	bc 01       	movw	r22, r24
    2806:	cd 01       	movw	r24, r26
    2808:	0e 94 c1 29 	call	0x5382	; 0x5382 <__fixunssfsi>
    280c:	dc 01       	movw	r26, r24
    280e:	cb 01       	movw	r24, r22
    2810:	fc 01       	movw	r30, r24
    2812:	2d 85       	ldd	r18, Y+13	; 0x0d
    2814:	3e 85       	ldd	r19, Y+14	; 0x0e
    2816:	ce 01       	movw	r24, r28
    2818:	0c 96       	adiw	r24, 0x0c	; 12
    281a:	a9 01       	movw	r20, r18
    281c:	bc 01       	movw	r22, r24
    281e:	cf 01       	movw	r24, r30
    2820:	61 db       	rcall	.-2366   	; 0x1ee4 <get_int16_t_data>
			break;
    2822:	6e c6       	rjmp	.+3292   	; 0x3500 <__stack+0x1301>
			case MODBUS_EXT0_R_W_PID_I_ADR:
			get_int16_t_data((uint16_t)tempController[EXT0].pidIGain*100.0, &data_counter, data);
    2824:	80 91 12 09 	lds	r24, 0x0912	; 0x800912 <tempController+0x1f>
    2828:	90 91 13 09 	lds	r25, 0x0913	; 0x800913 <tempController+0x20>
    282c:	a0 91 14 09 	lds	r26, 0x0914	; 0x800914 <tempController+0x21>
    2830:	b0 91 15 09 	lds	r27, 0x0915	; 0x800915 <tempController+0x22>
    2834:	bc 01       	movw	r22, r24
    2836:	cd 01       	movw	r24, r26
    2838:	0e 94 c1 29 	call	0x5382	; 0x5382 <__fixunssfsi>
    283c:	dc 01       	movw	r26, r24
    283e:	cb 01       	movw	r24, r22
    2840:	cc 01       	movw	r24, r24
    2842:	a0 e0       	ldi	r26, 0x00	; 0
    2844:	b0 e0       	ldi	r27, 0x00	; 0
    2846:	bc 01       	movw	r22, r24
    2848:	cd 01       	movw	r24, r26
    284a:	0e 94 ed 29 	call	0x53da	; 0x53da <__floatunsisf>
    284e:	dc 01       	movw	r26, r24
    2850:	cb 01       	movw	r24, r22
    2852:	20 e0       	ldi	r18, 0x00	; 0
    2854:	30 e0       	ldi	r19, 0x00	; 0
    2856:	48 ec       	ldi	r20, 0xC8	; 200
    2858:	52 e4       	ldi	r21, 0x42	; 66
    285a:	bc 01       	movw	r22, r24
    285c:	cd 01       	movw	r24, r26
    285e:	0e 94 a3 2a 	call	0x5546	; 0x5546 <__mulsf3>
    2862:	dc 01       	movw	r26, r24
    2864:	cb 01       	movw	r24, r22
    2866:	bc 01       	movw	r22, r24
    2868:	cd 01       	movw	r24, r26
    286a:	0e 94 c1 29 	call	0x5382	; 0x5382 <__fixunssfsi>
    286e:	dc 01       	movw	r26, r24
    2870:	cb 01       	movw	r24, r22
    2872:	fc 01       	movw	r30, r24
    2874:	2d 85       	ldd	r18, Y+13	; 0x0d
    2876:	3e 85       	ldd	r19, Y+14	; 0x0e
    2878:	ce 01       	movw	r24, r28
    287a:	0c 96       	adiw	r24, 0x0c	; 12
    287c:	a9 01       	movw	r20, r18
    287e:	bc 01       	movw	r22, r24
    2880:	cf 01       	movw	r24, r30
    2882:	30 db       	rcall	.-2464   	; 0x1ee4 <get_int16_t_data>
			break;
    2884:	3d c6       	rjmp	.+3194   	; 0x3500 <__stack+0x1301>
			case MODBUS_EXT0_R_W_PID_D_ADR:
			get_int16_t_data((uint16_t)tempController[EXT0].pidDGain*100.0, &data_counter, data);
    2886:	80 91 16 09 	lds	r24, 0x0916	; 0x800916 <tempController+0x23>
    288a:	90 91 17 09 	lds	r25, 0x0917	; 0x800917 <tempController+0x24>
    288e:	a0 91 18 09 	lds	r26, 0x0918	; 0x800918 <tempController+0x25>
    2892:	b0 91 19 09 	lds	r27, 0x0919	; 0x800919 <tempController+0x26>
    2896:	bc 01       	movw	r22, r24
    2898:	cd 01       	movw	r24, r26
    289a:	0e 94 c1 29 	call	0x5382	; 0x5382 <__fixunssfsi>
    289e:	dc 01       	movw	r26, r24
    28a0:	cb 01       	movw	r24, r22
    28a2:	cc 01       	movw	r24, r24
    28a4:	a0 e0       	ldi	r26, 0x00	; 0
    28a6:	b0 e0       	ldi	r27, 0x00	; 0
    28a8:	bc 01       	movw	r22, r24
    28aa:	cd 01       	movw	r24, r26
    28ac:	0e 94 ed 29 	call	0x53da	; 0x53da <__floatunsisf>
    28b0:	dc 01       	movw	r26, r24
    28b2:	cb 01       	movw	r24, r22
    28b4:	20 e0       	ldi	r18, 0x00	; 0
    28b6:	30 e0       	ldi	r19, 0x00	; 0
    28b8:	48 ec       	ldi	r20, 0xC8	; 200
    28ba:	52 e4       	ldi	r21, 0x42	; 66
    28bc:	bc 01       	movw	r22, r24
    28be:	cd 01       	movw	r24, r26
    28c0:	0e 94 a3 2a 	call	0x5546	; 0x5546 <__mulsf3>
    28c4:	dc 01       	movw	r26, r24
    28c6:	cb 01       	movw	r24, r22
    28c8:	bc 01       	movw	r22, r24
    28ca:	cd 01       	movw	r24, r26
    28cc:	0e 94 c1 29 	call	0x5382	; 0x5382 <__fixunssfsi>
    28d0:	dc 01       	movw	r26, r24
    28d2:	cb 01       	movw	r24, r22
    28d4:	fc 01       	movw	r30, r24
    28d6:	2d 85       	ldd	r18, Y+13	; 0x0d
    28d8:	3e 85       	ldd	r19, Y+14	; 0x0e
    28da:	ce 01       	movw	r24, r28
    28dc:	0c 96       	adiw	r24, 0x0c	; 12
    28de:	a9 01       	movw	r20, r18
    28e0:	bc 01       	movw	r22, r24
    28e2:	cf 01       	movw	r24, r30
    28e4:	ff da       	rcall	.-2562   	; 0x1ee4 <get_int16_t_data>
			break;
    28e6:	0c c6       	rjmp	.+3096   	; 0x3500 <__stack+0x1301>
			case MODBUS_EXT0_R_W_DRIVE_MAX_ADR:
			get_int16_t_data((uint16_t)tempController[EXT0].pidDriveMax, &data_counter, data);
    28e8:	80 91 0c 09 	lds	r24, 0x090C	; 0x80090c <tempController+0x19>
    28ec:	88 2f       	mov	r24, r24
    28ee:	90 e0       	ldi	r25, 0x00	; 0
    28f0:	4d 85       	ldd	r20, Y+13	; 0x0d
    28f2:	5e 85       	ldd	r21, Y+14	; 0x0e
    28f4:	9e 01       	movw	r18, r28
    28f6:	24 5f       	subi	r18, 0xF4	; 244
    28f8:	3f 4f       	sbci	r19, 0xFF	; 255
    28fa:	b9 01       	movw	r22, r18
    28fc:	f3 da       	rcall	.-2586   	; 0x1ee4 <get_int16_t_data>
			break;
    28fe:	00 c6       	rjmp	.+3072   	; 0x3500 <__stack+0x1301>
			case MODBUS_EXT0_R_W_DRVE_MIN_ADR:
			get_int16_t_data((uint16_t)tempController[EXT0].pidDriveMin, &data_counter, data);
    2900:	80 91 0d 09 	lds	r24, 0x090D	; 0x80090d <tempController+0x1a>
    2904:	88 2f       	mov	r24, r24
    2906:	90 e0       	ldi	r25, 0x00	; 0
    2908:	4d 85       	ldd	r20, Y+13	; 0x0d
    290a:	5e 85       	ldd	r21, Y+14	; 0x0e
    290c:	9e 01       	movw	r18, r28
    290e:	24 5f       	subi	r18, 0xF4	; 244
    2910:	3f 4f       	sbci	r19, 0xFF	; 255
    2912:	b9 01       	movw	r22, r18
    2914:	e7 da       	rcall	.-2610   	; 0x1ee4 <get_int16_t_data>
			break;
    2916:	f4 c5       	rjmp	.+3048   	; 0x3500 <__stack+0x1301>
			case MODBUS_EXT0_R_W_PID_MAX_ADR:
			get_int16_t_data((uint16_t)tempController[EXT0].pidMax, &data_counter, data);
    2918:	80 91 1a 09 	lds	r24, 0x091A	; 0x80091a <tempController+0x27>
    291c:	88 2f       	mov	r24, r24
    291e:	90 e0       	ldi	r25, 0x00	; 0
    2920:	4d 85       	ldd	r20, Y+13	; 0x0d
    2922:	5e 85       	ldd	r21, Y+14	; 0x0e
    2924:	9e 01       	movw	r18, r28
    2926:	24 5f       	subi	r18, 0xF4	; 244
    2928:	3f 4f       	sbci	r19, 0xFF	; 255
    292a:	b9 01       	movw	r22, r18
    292c:	db da       	rcall	.-2634   	; 0x1ee4 <get_int16_t_data>
			break;
    292e:	e8 c5       	rjmp	.+3024   	; 0x3500 <__stack+0x1301>
			//--------------EXT1---------------
			case MODBUS_EXT1_R_W_SENSOR_TYPE_ADR:
			get_int16_t_data((uint16_t)tempController[EXT1].sensorType, &data_counter, data);
    2930:	80 91 37 09 	lds	r24, 0x0937	; 0x800937 <tempController+0x44>
    2934:	88 2f       	mov	r24, r24
    2936:	90 e0       	ldi	r25, 0x00	; 0
    2938:	4d 85       	ldd	r20, Y+13	; 0x0d
    293a:	5e 85       	ldd	r21, Y+14	; 0x0e
    293c:	9e 01       	movw	r18, r28
    293e:	24 5f       	subi	r18, 0xF4	; 244
    2940:	3f 4f       	sbci	r19, 0xFF	; 255
    2942:	b9 01       	movw	r22, r18
    2944:	cf da       	rcall	.-2658   	; 0x1ee4 <get_int16_t_data>
			break;
    2946:	dc c5       	rjmp	.+3000   	; 0x3500 <__stack+0x1301>
			case MODBUS_EXT1_R_W_HEAT_MANAGER_ADR:
			get_int16_t_data((uint16_t)tempController[EXT1].heatManager, &data_counter, data);
    2948:	80 91 49 09 	lds	r24, 0x0949	; 0x800949 <tempController+0x56>
    294c:	08 2e       	mov	r0, r24
    294e:	00 0c       	add	r0, r0
    2950:	99 0b       	sbc	r25, r25
    2952:	4d 85       	ldd	r20, Y+13	; 0x0d
    2954:	5e 85       	ldd	r21, Y+14	; 0x0e
    2956:	9e 01       	movw	r18, r28
    2958:	24 5f       	subi	r18, 0xF4	; 244
    295a:	3f 4f       	sbci	r19, 0xFF	; 255
    295c:	b9 01       	movw	r22, r18
    295e:	c2 da       	rcall	.-2684   	; 0x1ee4 <get_int16_t_data>
			break;
    2960:	cf c5       	rjmp	.+2974   	; 0x3500 <__stack+0x1301>
			case MODBUS_EXT1_R_W_PID_P_ADR:
			get_int16_t_data((uint16_t)tempController[EXT1].pidPGain*100.0, &data_counter, data);
    2962:	80 91 50 09 	lds	r24, 0x0950	; 0x800950 <tempController+0x5d>
    2966:	90 91 51 09 	lds	r25, 0x0951	; 0x800951 <tempController+0x5e>
    296a:	a0 91 52 09 	lds	r26, 0x0952	; 0x800952 <tempController+0x5f>
    296e:	b0 91 53 09 	lds	r27, 0x0953	; 0x800953 <tempController+0x60>
    2972:	bc 01       	movw	r22, r24
    2974:	cd 01       	movw	r24, r26
    2976:	0e 94 c1 29 	call	0x5382	; 0x5382 <__fixunssfsi>
    297a:	dc 01       	movw	r26, r24
    297c:	cb 01       	movw	r24, r22
    297e:	cc 01       	movw	r24, r24
    2980:	a0 e0       	ldi	r26, 0x00	; 0
    2982:	b0 e0       	ldi	r27, 0x00	; 0
    2984:	bc 01       	movw	r22, r24
    2986:	cd 01       	movw	r24, r26
    2988:	0e 94 ed 29 	call	0x53da	; 0x53da <__floatunsisf>
    298c:	dc 01       	movw	r26, r24
    298e:	cb 01       	movw	r24, r22
    2990:	20 e0       	ldi	r18, 0x00	; 0
    2992:	30 e0       	ldi	r19, 0x00	; 0
    2994:	48 ec       	ldi	r20, 0xC8	; 200
    2996:	52 e4       	ldi	r21, 0x42	; 66
    2998:	bc 01       	movw	r22, r24
    299a:	cd 01       	movw	r24, r26
    299c:	0e 94 a3 2a 	call	0x5546	; 0x5546 <__mulsf3>
    29a0:	dc 01       	movw	r26, r24
    29a2:	cb 01       	movw	r24, r22
    29a4:	bc 01       	movw	r22, r24
    29a6:	cd 01       	movw	r24, r26
    29a8:	0e 94 c1 29 	call	0x5382	; 0x5382 <__fixunssfsi>
    29ac:	dc 01       	movw	r26, r24
    29ae:	cb 01       	movw	r24, r22
    29b0:	fc 01       	movw	r30, r24
    29b2:	2d 85       	ldd	r18, Y+13	; 0x0d
    29b4:	3e 85       	ldd	r19, Y+14	; 0x0e
    29b6:	ce 01       	movw	r24, r28
    29b8:	0c 96       	adiw	r24, 0x0c	; 12
    29ba:	a9 01       	movw	r20, r18
    29bc:	bc 01       	movw	r22, r24
    29be:	cf 01       	movw	r24, r30
    29c0:	91 da       	rcall	.-2782   	; 0x1ee4 <get_int16_t_data>
			break;
    29c2:	9e c5       	rjmp	.+2876   	; 0x3500 <__stack+0x1301>
			case MODBUS_EXT1_R_W_PID_I_ADR:
			get_int16_t_data((uint16_t)tempController[EXT1].pidIGain*100.0, &data_counter, data);
    29c4:	80 91 54 09 	lds	r24, 0x0954	; 0x800954 <tempController+0x61>
    29c8:	90 91 55 09 	lds	r25, 0x0955	; 0x800955 <tempController+0x62>
    29cc:	a0 91 56 09 	lds	r26, 0x0956	; 0x800956 <tempController+0x63>
    29d0:	b0 91 57 09 	lds	r27, 0x0957	; 0x800957 <tempController+0x64>
    29d4:	bc 01       	movw	r22, r24
    29d6:	cd 01       	movw	r24, r26
    29d8:	0e 94 c1 29 	call	0x5382	; 0x5382 <__fixunssfsi>
    29dc:	dc 01       	movw	r26, r24
    29de:	cb 01       	movw	r24, r22
    29e0:	cc 01       	movw	r24, r24
    29e2:	a0 e0       	ldi	r26, 0x00	; 0
    29e4:	b0 e0       	ldi	r27, 0x00	; 0
    29e6:	bc 01       	movw	r22, r24
    29e8:	cd 01       	movw	r24, r26
    29ea:	0e 94 ed 29 	call	0x53da	; 0x53da <__floatunsisf>
    29ee:	dc 01       	movw	r26, r24
    29f0:	cb 01       	movw	r24, r22
    29f2:	20 e0       	ldi	r18, 0x00	; 0
    29f4:	30 e0       	ldi	r19, 0x00	; 0
    29f6:	48 ec       	ldi	r20, 0xC8	; 200
    29f8:	52 e4       	ldi	r21, 0x42	; 66
    29fa:	bc 01       	movw	r22, r24
    29fc:	cd 01       	movw	r24, r26
    29fe:	0e 94 a3 2a 	call	0x5546	; 0x5546 <__mulsf3>
    2a02:	dc 01       	movw	r26, r24
    2a04:	cb 01       	movw	r24, r22
    2a06:	bc 01       	movw	r22, r24
    2a08:	cd 01       	movw	r24, r26
    2a0a:	0e 94 c1 29 	call	0x5382	; 0x5382 <__fixunssfsi>
    2a0e:	dc 01       	movw	r26, r24
    2a10:	cb 01       	movw	r24, r22
    2a12:	fc 01       	movw	r30, r24
    2a14:	2d 85       	ldd	r18, Y+13	; 0x0d
    2a16:	3e 85       	ldd	r19, Y+14	; 0x0e
    2a18:	ce 01       	movw	r24, r28
    2a1a:	0c 96       	adiw	r24, 0x0c	; 12
    2a1c:	a9 01       	movw	r20, r18
    2a1e:	bc 01       	movw	r22, r24
    2a20:	cf 01       	movw	r24, r30
    2a22:	60 da       	rcall	.-2880   	; 0x1ee4 <get_int16_t_data>
			break;
    2a24:	6d c5       	rjmp	.+2778   	; 0x3500 <__stack+0x1301>
			case MODBUS_EXT1_R_W_PID_D_ADR:
			get_int16_t_data((uint16_t)tempController[EXT1].pidDGain*100.0, &data_counter, data);
    2a26:	80 91 58 09 	lds	r24, 0x0958	; 0x800958 <tempController+0x65>
    2a2a:	90 91 59 09 	lds	r25, 0x0959	; 0x800959 <tempController+0x66>
    2a2e:	a0 91 5a 09 	lds	r26, 0x095A	; 0x80095a <tempController+0x67>
    2a32:	b0 91 5b 09 	lds	r27, 0x095B	; 0x80095b <tempController+0x68>
    2a36:	bc 01       	movw	r22, r24
    2a38:	cd 01       	movw	r24, r26
    2a3a:	0e 94 c1 29 	call	0x5382	; 0x5382 <__fixunssfsi>
    2a3e:	dc 01       	movw	r26, r24
    2a40:	cb 01       	movw	r24, r22
    2a42:	cc 01       	movw	r24, r24
    2a44:	a0 e0       	ldi	r26, 0x00	; 0
    2a46:	b0 e0       	ldi	r27, 0x00	; 0
    2a48:	bc 01       	movw	r22, r24
    2a4a:	cd 01       	movw	r24, r26
    2a4c:	0e 94 ed 29 	call	0x53da	; 0x53da <__floatunsisf>
    2a50:	dc 01       	movw	r26, r24
    2a52:	cb 01       	movw	r24, r22
    2a54:	20 e0       	ldi	r18, 0x00	; 0
    2a56:	30 e0       	ldi	r19, 0x00	; 0
    2a58:	48 ec       	ldi	r20, 0xC8	; 200
    2a5a:	52 e4       	ldi	r21, 0x42	; 66
    2a5c:	bc 01       	movw	r22, r24
    2a5e:	cd 01       	movw	r24, r26
    2a60:	0e 94 a3 2a 	call	0x5546	; 0x5546 <__mulsf3>
    2a64:	dc 01       	movw	r26, r24
    2a66:	cb 01       	movw	r24, r22
    2a68:	bc 01       	movw	r22, r24
    2a6a:	cd 01       	movw	r24, r26
    2a6c:	0e 94 c1 29 	call	0x5382	; 0x5382 <__fixunssfsi>
    2a70:	dc 01       	movw	r26, r24
    2a72:	cb 01       	movw	r24, r22
    2a74:	fc 01       	movw	r30, r24
    2a76:	2d 85       	ldd	r18, Y+13	; 0x0d
    2a78:	3e 85       	ldd	r19, Y+14	; 0x0e
    2a7a:	ce 01       	movw	r24, r28
    2a7c:	0c 96       	adiw	r24, 0x0c	; 12
    2a7e:	a9 01       	movw	r20, r18
    2a80:	bc 01       	movw	r22, r24
    2a82:	cf 01       	movw	r24, r30
    2a84:	2f da       	rcall	.-2978   	; 0x1ee4 <get_int16_t_data>
			break;
    2a86:	3c c5       	rjmp	.+2680   	; 0x3500 <__stack+0x1301>
			case MODBUS_EXT1_R_W_DRIVE_MAX_ADR:
			get_int16_t_data((uint16_t)tempController[EXT1].pidDriveMax, &data_counter, data);
    2a88:	80 91 4e 09 	lds	r24, 0x094E	; 0x80094e <tempController+0x5b>
    2a8c:	88 2f       	mov	r24, r24
    2a8e:	90 e0       	ldi	r25, 0x00	; 0
    2a90:	4d 85       	ldd	r20, Y+13	; 0x0d
    2a92:	5e 85       	ldd	r21, Y+14	; 0x0e
    2a94:	9e 01       	movw	r18, r28
    2a96:	24 5f       	subi	r18, 0xF4	; 244
    2a98:	3f 4f       	sbci	r19, 0xFF	; 255
    2a9a:	b9 01       	movw	r22, r18
    2a9c:	23 da       	rcall	.-3002   	; 0x1ee4 <get_int16_t_data>
			break;
    2a9e:	30 c5       	rjmp	.+2656   	; 0x3500 <__stack+0x1301>
			case MODBUS_EXT1_R_W_DRVE_MIN_ADR:
			get_int16_t_data((uint16_t)tempController[EXT1].pidDriveMin, &data_counter, data);
    2aa0:	80 91 4f 09 	lds	r24, 0x094F	; 0x80094f <tempController+0x5c>
    2aa4:	88 2f       	mov	r24, r24
    2aa6:	90 e0       	ldi	r25, 0x00	; 0
    2aa8:	4d 85       	ldd	r20, Y+13	; 0x0d
    2aaa:	5e 85       	ldd	r21, Y+14	; 0x0e
    2aac:	9e 01       	movw	r18, r28
    2aae:	24 5f       	subi	r18, 0xF4	; 244
    2ab0:	3f 4f       	sbci	r19, 0xFF	; 255
    2ab2:	b9 01       	movw	r22, r18
    2ab4:	17 da       	rcall	.-3026   	; 0x1ee4 <get_int16_t_data>
			break;
    2ab6:	24 c5       	rjmp	.+2632   	; 0x3500 <__stack+0x1301>
			case MODBUS_EXT1_R_W_PID_MAX_ADR:
			get_int16_t_data((uint16_t)tempController[EXT1].pidMax, &data_counter, data);
    2ab8:	80 91 5c 09 	lds	r24, 0x095C	; 0x80095c <tempController+0x69>
    2abc:	88 2f       	mov	r24, r24
    2abe:	90 e0       	ldi	r25, 0x00	; 0
    2ac0:	4d 85       	ldd	r20, Y+13	; 0x0d
    2ac2:	5e 85       	ldd	r21, Y+14	; 0x0e
    2ac4:	9e 01       	movw	r18, r28
    2ac6:	24 5f       	subi	r18, 0xF4	; 244
    2ac8:	3f 4f       	sbci	r19, 0xFF	; 255
    2aca:	b9 01       	movw	r22, r18
    2acc:	0b da       	rcall	.-3050   	; 0x1ee4 <get_int16_t_data>
			break;
    2ace:	18 c5       	rjmp	.+2608   	; 0x3500 <__stack+0x1301>
			//--------------BED---------------
			case MODBUS_BED_R_W_SENSOR_TYPE_ADR:
			get_int16_t_data((uint16_t)tempController[BED0].pidMax, &data_counter, data);
    2ad0:	80 91 9e 09 	lds	r24, 0x099E	; 0x80099e <tempController+0xab>
    2ad4:	88 2f       	mov	r24, r24
    2ad6:	90 e0       	ldi	r25, 0x00	; 0
    2ad8:	4d 85       	ldd	r20, Y+13	; 0x0d
    2ada:	5e 85       	ldd	r21, Y+14	; 0x0e
    2adc:	9e 01       	movw	r18, r28
    2ade:	24 5f       	subi	r18, 0xF4	; 244
    2ae0:	3f 4f       	sbci	r19, 0xFF	; 255
    2ae2:	b9 01       	movw	r22, r18
    2ae4:	ff d9       	rcall	.-3074   	; 0x1ee4 <get_int16_t_data>
			//get_int16_t_data((uint16_t)tempController[BED1].pidMax, &data_counter, data);
			//get_int16_t_data((uint16_t)tempController[BED2].pidMax, &data_counter, data);
			//get_int16_t_data((uint16_t)tempController[BED3].pidMax, &data_counter, data);
			break;
    2ae6:	0c c5       	rjmp	.+2584   	; 0x3500 <__stack+0x1301>
			case MODBUS_BED_R_W_HEAT_MANAGER_ADR:
			get_int16_t_data((uint16_t)tempController[BED0].heatManager, &data_counter, data);
    2ae8:	80 91 8b 09 	lds	r24, 0x098B	; 0x80098b <tempController+0x98>
    2aec:	08 2e       	mov	r0, r24
    2aee:	00 0c       	add	r0, r0
    2af0:	99 0b       	sbc	r25, r25
    2af2:	4d 85       	ldd	r20, Y+13	; 0x0d
    2af4:	5e 85       	ldd	r21, Y+14	; 0x0e
    2af6:	9e 01       	movw	r18, r28
    2af8:	24 5f       	subi	r18, 0xF4	; 244
    2afa:	3f 4f       	sbci	r19, 0xFF	; 255
    2afc:	b9 01       	movw	r22, r18
    2afe:	f2 d9       	rcall	.-3100   	; 0x1ee4 <get_int16_t_data>
			//get_int16_t_data((uint16_t)tempController[BED1].heatManager, &data_counter, data);
			//get_int16_t_data((uint16_t)tempController[BED2].heatManager, &data_counter, data);
			//get_int16_t_data((uint16_t)tempController[BED3].heatManager, &data_counter, data);
			break;
    2b00:	ff c4       	rjmp	.+2558   	; 0x3500 <__stack+0x1301>
			case MODBUS_BED_R_W_PID_P_ADR:
			get_int16_t_data((uint16_t)tempController[BED0].pidIGain*100.0, &data_counter, data);
    2b02:	80 91 96 09 	lds	r24, 0x0996	; 0x800996 <tempController+0xa3>
    2b06:	90 91 97 09 	lds	r25, 0x0997	; 0x800997 <tempController+0xa4>
    2b0a:	a0 91 98 09 	lds	r26, 0x0998	; 0x800998 <tempController+0xa5>
    2b0e:	b0 91 99 09 	lds	r27, 0x0999	; 0x800999 <tempController+0xa6>
    2b12:	bc 01       	movw	r22, r24
    2b14:	cd 01       	movw	r24, r26
    2b16:	0e 94 c1 29 	call	0x5382	; 0x5382 <__fixunssfsi>
    2b1a:	dc 01       	movw	r26, r24
    2b1c:	cb 01       	movw	r24, r22
    2b1e:	cc 01       	movw	r24, r24
    2b20:	a0 e0       	ldi	r26, 0x00	; 0
    2b22:	b0 e0       	ldi	r27, 0x00	; 0
    2b24:	bc 01       	movw	r22, r24
    2b26:	cd 01       	movw	r24, r26
    2b28:	0e 94 ed 29 	call	0x53da	; 0x53da <__floatunsisf>
    2b2c:	dc 01       	movw	r26, r24
    2b2e:	cb 01       	movw	r24, r22
    2b30:	20 e0       	ldi	r18, 0x00	; 0
    2b32:	30 e0       	ldi	r19, 0x00	; 0
    2b34:	48 ec       	ldi	r20, 0xC8	; 200
    2b36:	52 e4       	ldi	r21, 0x42	; 66
    2b38:	bc 01       	movw	r22, r24
    2b3a:	cd 01       	movw	r24, r26
    2b3c:	0e 94 a3 2a 	call	0x5546	; 0x5546 <__mulsf3>
    2b40:	dc 01       	movw	r26, r24
    2b42:	cb 01       	movw	r24, r22
    2b44:	bc 01       	movw	r22, r24
    2b46:	cd 01       	movw	r24, r26
    2b48:	0e 94 c1 29 	call	0x5382	; 0x5382 <__fixunssfsi>
    2b4c:	dc 01       	movw	r26, r24
    2b4e:	cb 01       	movw	r24, r22
    2b50:	fc 01       	movw	r30, r24
    2b52:	2d 85       	ldd	r18, Y+13	; 0x0d
    2b54:	3e 85       	ldd	r19, Y+14	; 0x0e
    2b56:	ce 01       	movw	r24, r28
    2b58:	0c 96       	adiw	r24, 0x0c	; 12
    2b5a:	a9 01       	movw	r20, r18
    2b5c:	bc 01       	movw	r22, r24
    2b5e:	cf 01       	movw	r24, r30
    2b60:	c1 d9       	rcall	.-3198   	; 0x1ee4 <get_int16_t_data>
			//get_int16_t_data((uint16_t)tempController[BED1].pidIGain*100.0, &data_counter, data);
			//get_int16_t_data((uint16_t)tempController[BED2].pidIGain*100.0, &data_counter, data);
			//get_int16_t_data((uint16_t)tempController[BED3].pidIGain*100.0, &data_counter, data);
			break;
    2b62:	ce c4       	rjmp	.+2460   	; 0x3500 <__stack+0x1301>
			case MODBUS_BED_R_W_PID_I_ADR:
			get_int16_t_data((uint16_t)tempController[BED0].pidIGain*100.0, &data_counter, data);
    2b64:	80 91 96 09 	lds	r24, 0x0996	; 0x800996 <tempController+0xa3>
    2b68:	90 91 97 09 	lds	r25, 0x0997	; 0x800997 <tempController+0xa4>
    2b6c:	a0 91 98 09 	lds	r26, 0x0998	; 0x800998 <tempController+0xa5>
    2b70:	b0 91 99 09 	lds	r27, 0x0999	; 0x800999 <tempController+0xa6>
    2b74:	bc 01       	movw	r22, r24
    2b76:	cd 01       	movw	r24, r26
    2b78:	0e 94 c1 29 	call	0x5382	; 0x5382 <__fixunssfsi>
    2b7c:	dc 01       	movw	r26, r24
    2b7e:	cb 01       	movw	r24, r22
    2b80:	cc 01       	movw	r24, r24
    2b82:	a0 e0       	ldi	r26, 0x00	; 0
    2b84:	b0 e0       	ldi	r27, 0x00	; 0
    2b86:	bc 01       	movw	r22, r24
    2b88:	cd 01       	movw	r24, r26
    2b8a:	0e 94 ed 29 	call	0x53da	; 0x53da <__floatunsisf>
    2b8e:	dc 01       	movw	r26, r24
    2b90:	cb 01       	movw	r24, r22
    2b92:	20 e0       	ldi	r18, 0x00	; 0
    2b94:	30 e0       	ldi	r19, 0x00	; 0
    2b96:	48 ec       	ldi	r20, 0xC8	; 200
    2b98:	52 e4       	ldi	r21, 0x42	; 66
    2b9a:	bc 01       	movw	r22, r24
    2b9c:	cd 01       	movw	r24, r26
    2b9e:	0e 94 a3 2a 	call	0x5546	; 0x5546 <__mulsf3>
    2ba2:	dc 01       	movw	r26, r24
    2ba4:	cb 01       	movw	r24, r22
    2ba6:	bc 01       	movw	r22, r24
    2ba8:	cd 01       	movw	r24, r26
    2baa:	0e 94 c1 29 	call	0x5382	; 0x5382 <__fixunssfsi>
    2bae:	dc 01       	movw	r26, r24
    2bb0:	cb 01       	movw	r24, r22
    2bb2:	fc 01       	movw	r30, r24
    2bb4:	2d 85       	ldd	r18, Y+13	; 0x0d
    2bb6:	3e 85       	ldd	r19, Y+14	; 0x0e
    2bb8:	ce 01       	movw	r24, r28
    2bba:	0c 96       	adiw	r24, 0x0c	; 12
    2bbc:	a9 01       	movw	r20, r18
    2bbe:	bc 01       	movw	r22, r24
    2bc0:	cf 01       	movw	r24, r30
    2bc2:	90 d9       	rcall	.-3296   	; 0x1ee4 <get_int16_t_data>
			//get_int16_t_data((uint16_t)tempController[BED1].pidIGain*100.0, &data_counter, data);
			//get_int16_t_data((uint16_t)tempController[BED2].pidIGain*100.0, &data_counter, data);
			//get_int16_t_data((uint16_t)tempController[BED3].pidIGain*100.0, &data_counter, data);
			break;
    2bc4:	9d c4       	rjmp	.+2362   	; 0x3500 <__stack+0x1301>
			case MODBUS_BED_R_W_PID_D_ADR:
			get_int16_t_data((uint16_t)tempController[BED0].pidDGain*100.0, &data_counter, data);
    2bc6:	80 91 9a 09 	lds	r24, 0x099A	; 0x80099a <tempController+0xa7>
    2bca:	90 91 9b 09 	lds	r25, 0x099B	; 0x80099b <tempController+0xa8>
    2bce:	a0 91 9c 09 	lds	r26, 0x099C	; 0x80099c <tempController+0xa9>
    2bd2:	b0 91 9d 09 	lds	r27, 0x099D	; 0x80099d <tempController+0xaa>
    2bd6:	bc 01       	movw	r22, r24
    2bd8:	cd 01       	movw	r24, r26
    2bda:	0e 94 c1 29 	call	0x5382	; 0x5382 <__fixunssfsi>
    2bde:	dc 01       	movw	r26, r24
    2be0:	cb 01       	movw	r24, r22
    2be2:	cc 01       	movw	r24, r24
    2be4:	a0 e0       	ldi	r26, 0x00	; 0
    2be6:	b0 e0       	ldi	r27, 0x00	; 0
    2be8:	bc 01       	movw	r22, r24
    2bea:	cd 01       	movw	r24, r26
    2bec:	0e 94 ed 29 	call	0x53da	; 0x53da <__floatunsisf>
    2bf0:	dc 01       	movw	r26, r24
    2bf2:	cb 01       	movw	r24, r22
    2bf4:	20 e0       	ldi	r18, 0x00	; 0
    2bf6:	30 e0       	ldi	r19, 0x00	; 0
    2bf8:	48 ec       	ldi	r20, 0xC8	; 200
    2bfa:	52 e4       	ldi	r21, 0x42	; 66
    2bfc:	bc 01       	movw	r22, r24
    2bfe:	cd 01       	movw	r24, r26
    2c00:	0e 94 a3 2a 	call	0x5546	; 0x5546 <__mulsf3>
    2c04:	dc 01       	movw	r26, r24
    2c06:	cb 01       	movw	r24, r22
    2c08:	bc 01       	movw	r22, r24
    2c0a:	cd 01       	movw	r24, r26
    2c0c:	0e 94 c1 29 	call	0x5382	; 0x5382 <__fixunssfsi>
    2c10:	dc 01       	movw	r26, r24
    2c12:	cb 01       	movw	r24, r22
    2c14:	fc 01       	movw	r30, r24
    2c16:	2d 85       	ldd	r18, Y+13	; 0x0d
    2c18:	3e 85       	ldd	r19, Y+14	; 0x0e
    2c1a:	ce 01       	movw	r24, r28
    2c1c:	0c 96       	adiw	r24, 0x0c	; 12
    2c1e:	a9 01       	movw	r20, r18
    2c20:	bc 01       	movw	r22, r24
    2c22:	cf 01       	movw	r24, r30
    2c24:	5f d9       	rcall	.-3394   	; 0x1ee4 <get_int16_t_data>
			//get_int16_t_data((uint16_t)tempController[BED1].pidDGain*100.0, &data_counter, data);
			//get_int16_t_data((uint16_t)tempController[BED2].pidDGain*100.0, &data_counter, data);
			//get_int16_t_data((uint16_t)tempController[BED3].pidDGain*100.0, &data_counter, data);
			break;
    2c26:	6c c4       	rjmp	.+2264   	; 0x3500 <__stack+0x1301>
			case MODBUS_BED_R_W_DRIVE_MAX_ADR:
			get_int16_t_data((uint16_t)tempController[BED0].pidDriveMax, &data_counter, data);
    2c28:	80 91 90 09 	lds	r24, 0x0990	; 0x800990 <tempController+0x9d>
    2c2c:	88 2f       	mov	r24, r24
    2c2e:	90 e0       	ldi	r25, 0x00	; 0
    2c30:	4d 85       	ldd	r20, Y+13	; 0x0d
    2c32:	5e 85       	ldd	r21, Y+14	; 0x0e
    2c34:	9e 01       	movw	r18, r28
    2c36:	24 5f       	subi	r18, 0xF4	; 244
    2c38:	3f 4f       	sbci	r19, 0xFF	; 255
    2c3a:	b9 01       	movw	r22, r18
    2c3c:	53 d9       	rcall	.-3418   	; 0x1ee4 <get_int16_t_data>
			//get_int16_t_data((uint16_t)tempController[BED1].pidDriveMax, &data_counter, data);
			//get_int16_t_data((uint16_t)tempController[BED2].pidDriveMax, &data_counter, data);
			//get_int16_t_data((uint16_t)tempController[BED3].pidDriveMax, &data_counter, data);
			break;
    2c3e:	60 c4       	rjmp	.+2240   	; 0x3500 <__stack+0x1301>
			case MODBUS_BED_R_W_DRVE_MIN_ADR:
			get_int16_t_data((uint16_t)tempController[BED0].pidDriveMin, &data_counter, data);
    2c40:	80 91 91 09 	lds	r24, 0x0991	; 0x800991 <tempController+0x9e>
    2c44:	88 2f       	mov	r24, r24
    2c46:	90 e0       	ldi	r25, 0x00	; 0
    2c48:	4d 85       	ldd	r20, Y+13	; 0x0d
    2c4a:	5e 85       	ldd	r21, Y+14	; 0x0e
    2c4c:	9e 01       	movw	r18, r28
    2c4e:	24 5f       	subi	r18, 0xF4	; 244
    2c50:	3f 4f       	sbci	r19, 0xFF	; 255
    2c52:	b9 01       	movw	r22, r18
    2c54:	47 d9       	rcall	.-3442   	; 0x1ee4 <get_int16_t_data>
			//get_int16_t_data((uint16_t)tempController[BED1].pidDriveMin, &data_counter, data);
			//get_int16_t_data((uint16_t)tempController[BED2].pidDriveMin, &data_counter, data);
			//get_int16_t_data((uint16_t)tempController[BED3].pidDriveMin, &data_counter, data);
			break;
    2c56:	54 c4       	rjmp	.+2216   	; 0x3500 <__stack+0x1301>
			case MODBUS_BED_R_W_PID_MAX_ADR:
			get_int16_t_data((uint16_t)tempController[BED0].pidMax, &data_counter, data);
    2c58:	80 91 9e 09 	lds	r24, 0x099E	; 0x80099e <tempController+0xab>
    2c5c:	88 2f       	mov	r24, r24
    2c5e:	90 e0       	ldi	r25, 0x00	; 0
    2c60:	4d 85       	ldd	r20, Y+13	; 0x0d
    2c62:	5e 85       	ldd	r21, Y+14	; 0x0e
    2c64:	9e 01       	movw	r18, r28
    2c66:	24 5f       	subi	r18, 0xF4	; 244
    2c68:	3f 4f       	sbci	r19, 0xFF	; 255
    2c6a:	b9 01       	movw	r22, r18
    2c6c:	3b d9       	rcall	.-3466   	; 0x1ee4 <get_int16_t_data>
			//get_int16_t_data((uint16_t)tempController[BED1].pidMax, &data_counter, data);
			//get_int16_t_data((uint16_t)tempController[BED2].pidMax, &data_counter, data);
			//get_int16_t_data((uint16_t)tempController[BED3].pidMax, &data_counter, data);
			break;
    2c6e:	48 c4       	rjmp	.+2192   	; 0x3500 <__stack+0x1301>
			//--------------CHAMBER0---------------
			case MODBUS_CHAMBER0_R_W_SENSOR_TYPE_ADR:
			get_int16_t_data(tempController[CHAMB0].sensorType, &data_counter, data);
    2c70:	80 91 81 0a 	lds	r24, 0x0A81	; 0x800a81 <tempController+0x18e>
    2c74:	88 2f       	mov	r24, r24
    2c76:	90 e0       	ldi	r25, 0x00	; 0
    2c78:	4d 85       	ldd	r20, Y+13	; 0x0d
    2c7a:	5e 85       	ldd	r21, Y+14	; 0x0e
    2c7c:	9e 01       	movw	r18, r28
    2c7e:	24 5f       	subi	r18, 0xF4	; 244
    2c80:	3f 4f       	sbci	r19, 0xFF	; 255
    2c82:	b9 01       	movw	r22, r18
    2c84:	2f d9       	rcall	.-3490   	; 0x1ee4 <get_int16_t_data>
			break;
    2c86:	3c c4       	rjmp	.+2168   	; 0x3500 <__stack+0x1301>
			case MODBUS_CHAMBER0_R_W_HEAT_MANAGER_ADR:
			get_int16_t_data(tempController[CHAMB0].heatManager, &data_counter, data);
    2c88:	80 91 93 0a 	lds	r24, 0x0A93	; 0x800a93 <tempController+0x1a0>
    2c8c:	08 2e       	mov	r0, r24
    2c8e:	00 0c       	add	r0, r0
    2c90:	99 0b       	sbc	r25, r25
    2c92:	4d 85       	ldd	r20, Y+13	; 0x0d
    2c94:	5e 85       	ldd	r21, Y+14	; 0x0e
    2c96:	9e 01       	movw	r18, r28
    2c98:	24 5f       	subi	r18, 0xF4	; 244
    2c9a:	3f 4f       	sbci	r19, 0xFF	; 255
    2c9c:	b9 01       	movw	r22, r18
    2c9e:	22 d9       	rcall	.-3516   	; 0x1ee4 <get_int16_t_data>
			break;
    2ca0:	2f c4       	rjmp	.+2142   	; 0x3500 <__stack+0x1301>
			case MODBUS_CHAMBER0_R_W_PID_P_ADR:
			get_int16_t_data(tempController[CHAMB0].pidPGain, &data_counter, data);
    2ca2:	80 91 9a 0a 	lds	r24, 0x0A9A	; 0x800a9a <tempController+0x1a7>
    2ca6:	90 91 9b 0a 	lds	r25, 0x0A9B	; 0x800a9b <tempController+0x1a8>
    2caa:	a0 91 9c 0a 	lds	r26, 0x0A9C	; 0x800a9c <tempController+0x1a9>
    2cae:	b0 91 9d 0a 	lds	r27, 0x0A9D	; 0x800a9d <tempController+0x1aa>
    2cb2:	bc 01       	movw	r22, r24
    2cb4:	cd 01       	movw	r24, r26
    2cb6:	0e 94 c1 29 	call	0x5382	; 0x5382 <__fixunssfsi>
    2cba:	dc 01       	movw	r26, r24
    2cbc:	cb 01       	movw	r24, r22
    2cbe:	fc 01       	movw	r30, r24
    2cc0:	2d 85       	ldd	r18, Y+13	; 0x0d
    2cc2:	3e 85       	ldd	r19, Y+14	; 0x0e
    2cc4:	ce 01       	movw	r24, r28
    2cc6:	0c 96       	adiw	r24, 0x0c	; 12
    2cc8:	a9 01       	movw	r20, r18
    2cca:	bc 01       	movw	r22, r24
    2ccc:	cf 01       	movw	r24, r30
    2cce:	0a d9       	rcall	.-3564   	; 0x1ee4 <get_int16_t_data>
			break;
    2cd0:	17 c4       	rjmp	.+2094   	; 0x3500 <__stack+0x1301>
			case MODBUS_CHAMBER0_R_W_PID_I_ADR:
			get_int16_t_data(tempController[CHAMB0].pidIGain, &data_counter, data);
    2cd2:	80 91 9e 0a 	lds	r24, 0x0A9E	; 0x800a9e <tempController+0x1ab>
    2cd6:	90 91 9f 0a 	lds	r25, 0x0A9F	; 0x800a9f <tempController+0x1ac>
    2cda:	a0 91 a0 0a 	lds	r26, 0x0AA0	; 0x800aa0 <tempController+0x1ad>
    2cde:	b0 91 a1 0a 	lds	r27, 0x0AA1	; 0x800aa1 <tempController+0x1ae>
    2ce2:	bc 01       	movw	r22, r24
    2ce4:	cd 01       	movw	r24, r26
    2ce6:	0e 94 c1 29 	call	0x5382	; 0x5382 <__fixunssfsi>
    2cea:	dc 01       	movw	r26, r24
    2cec:	cb 01       	movw	r24, r22
    2cee:	fc 01       	movw	r30, r24
    2cf0:	2d 85       	ldd	r18, Y+13	; 0x0d
    2cf2:	3e 85       	ldd	r19, Y+14	; 0x0e
    2cf4:	ce 01       	movw	r24, r28
    2cf6:	0c 96       	adiw	r24, 0x0c	; 12
    2cf8:	a9 01       	movw	r20, r18
    2cfa:	bc 01       	movw	r22, r24
    2cfc:	cf 01       	movw	r24, r30
    2cfe:	f2 d8       	rcall	.-3612   	; 0x1ee4 <get_int16_t_data>
			break;
    2d00:	ff c3       	rjmp	.+2046   	; 0x3500 <__stack+0x1301>
			case MODBUS_CHAMBER0_R_W_PID_D_ADR:
			get_int16_t_data(tempController[CHAMB0].pidDGain, &data_counter, data);
    2d02:	80 91 a2 0a 	lds	r24, 0x0AA2	; 0x800aa2 <tempController+0x1af>
    2d06:	90 91 a3 0a 	lds	r25, 0x0AA3	; 0x800aa3 <tempController+0x1b0>
    2d0a:	a0 91 a4 0a 	lds	r26, 0x0AA4	; 0x800aa4 <tempController+0x1b1>
    2d0e:	b0 91 a5 0a 	lds	r27, 0x0AA5	; 0x800aa5 <tempController+0x1b2>
    2d12:	bc 01       	movw	r22, r24
    2d14:	cd 01       	movw	r24, r26
    2d16:	0e 94 c1 29 	call	0x5382	; 0x5382 <__fixunssfsi>
    2d1a:	dc 01       	movw	r26, r24
    2d1c:	cb 01       	movw	r24, r22
    2d1e:	fc 01       	movw	r30, r24
    2d20:	2d 85       	ldd	r18, Y+13	; 0x0d
    2d22:	3e 85       	ldd	r19, Y+14	; 0x0e
    2d24:	ce 01       	movw	r24, r28
    2d26:	0c 96       	adiw	r24, 0x0c	; 12
    2d28:	a9 01       	movw	r20, r18
    2d2a:	bc 01       	movw	r22, r24
    2d2c:	cf 01       	movw	r24, r30
    2d2e:	da d8       	rcall	.-3660   	; 0x1ee4 <get_int16_t_data>
			break;
    2d30:	e7 c3       	rjmp	.+1998   	; 0x3500 <__stack+0x1301>
			case MODBUS_CHAMBER0_R_W_DRIVE_MAX_ADR:
			get_int16_t_data(tempController[CHAMB0].pidDriveMax, &data_counter, data);
    2d32:	80 91 98 0a 	lds	r24, 0x0A98	; 0x800a98 <tempController+0x1a5>
    2d36:	88 2f       	mov	r24, r24
    2d38:	90 e0       	ldi	r25, 0x00	; 0
    2d3a:	4d 85       	ldd	r20, Y+13	; 0x0d
    2d3c:	5e 85       	ldd	r21, Y+14	; 0x0e
    2d3e:	9e 01       	movw	r18, r28
    2d40:	24 5f       	subi	r18, 0xF4	; 244
    2d42:	3f 4f       	sbci	r19, 0xFF	; 255
    2d44:	b9 01       	movw	r22, r18
    2d46:	ce d8       	rcall	.-3684   	; 0x1ee4 <get_int16_t_data>
			break;
    2d48:	db c3       	rjmp	.+1974   	; 0x3500 <__stack+0x1301>
			case MODBUS_CHAMBER0_R_W_DRVE_MIN_ADR:
			get_int16_t_data(tempController[CHAMB0].pidDriveMin, &data_counter, data);
    2d4a:	80 91 99 0a 	lds	r24, 0x0A99	; 0x800a99 <tempController+0x1a6>
    2d4e:	88 2f       	mov	r24, r24
    2d50:	90 e0       	ldi	r25, 0x00	; 0
    2d52:	4d 85       	ldd	r20, Y+13	; 0x0d
    2d54:	5e 85       	ldd	r21, Y+14	; 0x0e
    2d56:	9e 01       	movw	r18, r28
    2d58:	24 5f       	subi	r18, 0xF4	; 244
    2d5a:	3f 4f       	sbci	r19, 0xFF	; 255
    2d5c:	b9 01       	movw	r22, r18
    2d5e:	c2 d8       	rcall	.-3708   	; 0x1ee4 <get_int16_t_data>
			break;
    2d60:	cf c3       	rjmp	.+1950   	; 0x3500 <__stack+0x1301>
			case MODBUS_CHAMBER0_R_W_PID_MAX_ADR:
			get_int16_t_data(tempController[CHAMB0].pidMax, &data_counter, data);
    2d62:	80 91 a6 0a 	lds	r24, 0x0AA6	; 0x800aa6 <tempController+0x1b3>
    2d66:	88 2f       	mov	r24, r24
    2d68:	90 e0       	ldi	r25, 0x00	; 0
    2d6a:	4d 85       	ldd	r20, Y+13	; 0x0d
    2d6c:	5e 85       	ldd	r21, Y+14	; 0x0e
    2d6e:	9e 01       	movw	r18, r28
    2d70:	24 5f       	subi	r18, 0xF4	; 244
    2d72:	3f 4f       	sbci	r19, 0xFF	; 255
    2d74:	b9 01       	movw	r22, r18
    2d76:	b6 d8       	rcall	.-3732   	; 0x1ee4 <get_int16_t_data>
			break;
    2d78:	c3 c3       	rjmp	.+1926   	; 0x3500 <__stack+0x1301>

			//--------------BED0---------------
			case MODBUS_BED0_R_W_SENSOR_TYPE_ADR:
			get_int16_t_data((uint16_t)tempController[BED0].sensorType, &data_counter, data);
    2d7a:	80 91 79 09 	lds	r24, 0x0979	; 0x800979 <tempController+0x86>
    2d7e:	88 2f       	mov	r24, r24
    2d80:	90 e0       	ldi	r25, 0x00	; 0
    2d82:	4d 85       	ldd	r20, Y+13	; 0x0d
    2d84:	5e 85       	ldd	r21, Y+14	; 0x0e
    2d86:	9e 01       	movw	r18, r28
    2d88:	24 5f       	subi	r18, 0xF4	; 244
    2d8a:	3f 4f       	sbci	r19, 0xFF	; 255
    2d8c:	b9 01       	movw	r22, r18
    2d8e:	aa d8       	rcall	.-3756   	; 0x1ee4 <get_int16_t_data>
			break;
    2d90:	b7 c3       	rjmp	.+1902   	; 0x3500 <__stack+0x1301>
			case MODBUS_BED0_R_W_HEAT_MANAGER_ADR:
			get_int16_t_data((uint16_t)tempController[BED0].heatManager, &data_counter, data);
    2d92:	80 91 8b 09 	lds	r24, 0x098B	; 0x80098b <tempController+0x98>
    2d96:	08 2e       	mov	r0, r24
    2d98:	00 0c       	add	r0, r0
    2d9a:	99 0b       	sbc	r25, r25
    2d9c:	4d 85       	ldd	r20, Y+13	; 0x0d
    2d9e:	5e 85       	ldd	r21, Y+14	; 0x0e
    2da0:	9e 01       	movw	r18, r28
    2da2:	24 5f       	subi	r18, 0xF4	; 244
    2da4:	3f 4f       	sbci	r19, 0xFF	; 255
    2da6:	b9 01       	movw	r22, r18
    2da8:	9d d8       	rcall	.-3782   	; 0x1ee4 <get_int16_t_data>
			break;
    2daa:	aa c3       	rjmp	.+1876   	; 0x3500 <__stack+0x1301>
			case MODBUS_BED0_R_W_PID_P_ADR:
			get_int16_t_data((uint16_t)tempController[BED0].pidPGain*100.0, &data_counter, data);
    2dac:	80 91 92 09 	lds	r24, 0x0992	; 0x800992 <tempController+0x9f>
    2db0:	90 91 93 09 	lds	r25, 0x0993	; 0x800993 <tempController+0xa0>
    2db4:	a0 91 94 09 	lds	r26, 0x0994	; 0x800994 <tempController+0xa1>
    2db8:	b0 91 95 09 	lds	r27, 0x0995	; 0x800995 <tempController+0xa2>
    2dbc:	bc 01       	movw	r22, r24
    2dbe:	cd 01       	movw	r24, r26
    2dc0:	0e 94 c1 29 	call	0x5382	; 0x5382 <__fixunssfsi>
    2dc4:	dc 01       	movw	r26, r24
    2dc6:	cb 01       	movw	r24, r22
    2dc8:	cc 01       	movw	r24, r24
    2dca:	a0 e0       	ldi	r26, 0x00	; 0
    2dcc:	b0 e0       	ldi	r27, 0x00	; 0
    2dce:	bc 01       	movw	r22, r24
    2dd0:	cd 01       	movw	r24, r26
    2dd2:	0e 94 ed 29 	call	0x53da	; 0x53da <__floatunsisf>
    2dd6:	dc 01       	movw	r26, r24
    2dd8:	cb 01       	movw	r24, r22
    2dda:	20 e0       	ldi	r18, 0x00	; 0
    2ddc:	30 e0       	ldi	r19, 0x00	; 0
    2dde:	48 ec       	ldi	r20, 0xC8	; 200
    2de0:	52 e4       	ldi	r21, 0x42	; 66
    2de2:	bc 01       	movw	r22, r24
    2de4:	cd 01       	movw	r24, r26
    2de6:	0e 94 a3 2a 	call	0x5546	; 0x5546 <__mulsf3>
    2dea:	dc 01       	movw	r26, r24
    2dec:	cb 01       	movw	r24, r22
    2dee:	bc 01       	movw	r22, r24
    2df0:	cd 01       	movw	r24, r26
    2df2:	0e 94 c1 29 	call	0x5382	; 0x5382 <__fixunssfsi>
    2df6:	dc 01       	movw	r26, r24
    2df8:	cb 01       	movw	r24, r22
    2dfa:	fc 01       	movw	r30, r24
    2dfc:	2d 85       	ldd	r18, Y+13	; 0x0d
    2dfe:	3e 85       	ldd	r19, Y+14	; 0x0e
    2e00:	ce 01       	movw	r24, r28
    2e02:	0c 96       	adiw	r24, 0x0c	; 12
    2e04:	a9 01       	movw	r20, r18
    2e06:	bc 01       	movw	r22, r24
    2e08:	cf 01       	movw	r24, r30
    2e0a:	6c d8       	rcall	.-3880   	; 0x1ee4 <get_int16_t_data>
			break;
    2e0c:	79 c3       	rjmp	.+1778   	; 0x3500 <__stack+0x1301>
			case MODBUS_BED0_R_W_PID_I_ADR:
			get_int16_t_data((uint16_t)tempController[BED0].pidIGain*100.0, &data_counter, data);
    2e0e:	80 91 96 09 	lds	r24, 0x0996	; 0x800996 <tempController+0xa3>
    2e12:	90 91 97 09 	lds	r25, 0x0997	; 0x800997 <tempController+0xa4>
    2e16:	a0 91 98 09 	lds	r26, 0x0998	; 0x800998 <tempController+0xa5>
    2e1a:	b0 91 99 09 	lds	r27, 0x0999	; 0x800999 <tempController+0xa6>
    2e1e:	bc 01       	movw	r22, r24
    2e20:	cd 01       	movw	r24, r26
    2e22:	0e 94 c1 29 	call	0x5382	; 0x5382 <__fixunssfsi>
    2e26:	dc 01       	movw	r26, r24
    2e28:	cb 01       	movw	r24, r22
    2e2a:	cc 01       	movw	r24, r24
    2e2c:	a0 e0       	ldi	r26, 0x00	; 0
    2e2e:	b0 e0       	ldi	r27, 0x00	; 0
    2e30:	bc 01       	movw	r22, r24
    2e32:	cd 01       	movw	r24, r26
    2e34:	0e 94 ed 29 	call	0x53da	; 0x53da <__floatunsisf>
    2e38:	dc 01       	movw	r26, r24
    2e3a:	cb 01       	movw	r24, r22
    2e3c:	20 e0       	ldi	r18, 0x00	; 0
    2e3e:	30 e0       	ldi	r19, 0x00	; 0
    2e40:	48 ec       	ldi	r20, 0xC8	; 200
    2e42:	52 e4       	ldi	r21, 0x42	; 66
    2e44:	bc 01       	movw	r22, r24
    2e46:	cd 01       	movw	r24, r26
    2e48:	0e 94 a3 2a 	call	0x5546	; 0x5546 <__mulsf3>
    2e4c:	dc 01       	movw	r26, r24
    2e4e:	cb 01       	movw	r24, r22
    2e50:	bc 01       	movw	r22, r24
    2e52:	cd 01       	movw	r24, r26
    2e54:	0e 94 c1 29 	call	0x5382	; 0x5382 <__fixunssfsi>
    2e58:	dc 01       	movw	r26, r24
    2e5a:	cb 01       	movw	r24, r22
    2e5c:	fc 01       	movw	r30, r24
    2e5e:	2d 85       	ldd	r18, Y+13	; 0x0d
    2e60:	3e 85       	ldd	r19, Y+14	; 0x0e
    2e62:	ce 01       	movw	r24, r28
    2e64:	0c 96       	adiw	r24, 0x0c	; 12
    2e66:	a9 01       	movw	r20, r18
    2e68:	bc 01       	movw	r22, r24
    2e6a:	cf 01       	movw	r24, r30
    2e6c:	3b d8       	rcall	.-3978   	; 0x1ee4 <get_int16_t_data>
			break;
    2e6e:	48 c3       	rjmp	.+1680   	; 0x3500 <__stack+0x1301>
			case MODBUS_BED0_R_W_PID_D_ADR:
			get_int16_t_data((uint16_t)tempController[BED0].pidDGain*100.0, &data_counter, data);
    2e70:	80 91 9a 09 	lds	r24, 0x099A	; 0x80099a <tempController+0xa7>
    2e74:	90 91 9b 09 	lds	r25, 0x099B	; 0x80099b <tempController+0xa8>
    2e78:	a0 91 9c 09 	lds	r26, 0x099C	; 0x80099c <tempController+0xa9>
    2e7c:	b0 91 9d 09 	lds	r27, 0x099D	; 0x80099d <tempController+0xaa>
    2e80:	bc 01       	movw	r22, r24
    2e82:	cd 01       	movw	r24, r26
    2e84:	0e 94 c1 29 	call	0x5382	; 0x5382 <__fixunssfsi>
    2e88:	dc 01       	movw	r26, r24
    2e8a:	cb 01       	movw	r24, r22
    2e8c:	cc 01       	movw	r24, r24
    2e8e:	a0 e0       	ldi	r26, 0x00	; 0
    2e90:	b0 e0       	ldi	r27, 0x00	; 0
    2e92:	bc 01       	movw	r22, r24
    2e94:	cd 01       	movw	r24, r26
    2e96:	0e 94 ed 29 	call	0x53da	; 0x53da <__floatunsisf>
    2e9a:	dc 01       	movw	r26, r24
    2e9c:	cb 01       	movw	r24, r22
    2e9e:	20 e0       	ldi	r18, 0x00	; 0
    2ea0:	30 e0       	ldi	r19, 0x00	; 0
    2ea2:	48 ec       	ldi	r20, 0xC8	; 200
    2ea4:	52 e4       	ldi	r21, 0x42	; 66
    2ea6:	bc 01       	movw	r22, r24
    2ea8:	cd 01       	movw	r24, r26
    2eaa:	0e 94 a3 2a 	call	0x5546	; 0x5546 <__mulsf3>
    2eae:	dc 01       	movw	r26, r24
    2eb0:	cb 01       	movw	r24, r22
    2eb2:	bc 01       	movw	r22, r24
    2eb4:	cd 01       	movw	r24, r26
    2eb6:	0e 94 c1 29 	call	0x5382	; 0x5382 <__fixunssfsi>
    2eba:	dc 01       	movw	r26, r24
    2ebc:	cb 01       	movw	r24, r22
    2ebe:	fc 01       	movw	r30, r24
    2ec0:	2d 85       	ldd	r18, Y+13	; 0x0d
    2ec2:	3e 85       	ldd	r19, Y+14	; 0x0e
    2ec4:	ce 01       	movw	r24, r28
    2ec6:	0c 96       	adiw	r24, 0x0c	; 12
    2ec8:	a9 01       	movw	r20, r18
    2eca:	bc 01       	movw	r22, r24
    2ecc:	cf 01       	movw	r24, r30
    2ece:	0a d8       	rcall	.-4076   	; 0x1ee4 <get_int16_t_data>
			break;
    2ed0:	17 c3       	rjmp	.+1582   	; 0x3500 <__stack+0x1301>
			case MODBUS_BED0_R_W_DRIVE_MAX_ADR:
			get_int16_t_data((uint16_t)tempController[BED0].pidDriveMax, &data_counter, data);
    2ed2:	80 91 90 09 	lds	r24, 0x0990	; 0x800990 <tempController+0x9d>
    2ed6:	88 2f       	mov	r24, r24
    2ed8:	90 e0       	ldi	r25, 0x00	; 0
    2eda:	4d 85       	ldd	r20, Y+13	; 0x0d
    2edc:	5e 85       	ldd	r21, Y+14	; 0x0e
    2ede:	9e 01       	movw	r18, r28
    2ee0:	24 5f       	subi	r18, 0xF4	; 244
    2ee2:	3f 4f       	sbci	r19, 0xFF	; 255
    2ee4:	b9 01       	movw	r22, r18
    2ee6:	0e 94 72 0f 	call	0x1ee4	; 0x1ee4 <get_int16_t_data>
			break;
    2eea:	0a c3       	rjmp	.+1556   	; 0x3500 <__stack+0x1301>
			case MODBUS_BED0_R_W_DRVE_MIN_ADR:
			get_int16_t_data((uint16_t)tempController[BED0].pidDriveMin, &data_counter, data);
    2eec:	80 91 91 09 	lds	r24, 0x0991	; 0x800991 <tempController+0x9e>
    2ef0:	88 2f       	mov	r24, r24
    2ef2:	90 e0       	ldi	r25, 0x00	; 0
    2ef4:	4d 85       	ldd	r20, Y+13	; 0x0d
    2ef6:	5e 85       	ldd	r21, Y+14	; 0x0e
    2ef8:	9e 01       	movw	r18, r28
    2efa:	24 5f       	subi	r18, 0xF4	; 244
    2efc:	3f 4f       	sbci	r19, 0xFF	; 255
    2efe:	b9 01       	movw	r22, r18
    2f00:	0e 94 72 0f 	call	0x1ee4	; 0x1ee4 <get_int16_t_data>
			break;
    2f04:	fd c2       	rjmp	.+1530   	; 0x3500 <__stack+0x1301>
			case MODBUS_BED0_R_W_PID_MAX_ADR:
			get_int16_t_data((uint16_t)tempController[BED0].pidMax, &data_counter, data);
    2f06:	80 91 9e 09 	lds	r24, 0x099E	; 0x80099e <tempController+0xab>
    2f0a:	88 2f       	mov	r24, r24
    2f0c:	90 e0       	ldi	r25, 0x00	; 0
    2f0e:	4d 85       	ldd	r20, Y+13	; 0x0d
    2f10:	5e 85       	ldd	r21, Y+14	; 0x0e
    2f12:	9e 01       	movw	r18, r28
    2f14:	24 5f       	subi	r18, 0xF4	; 244
    2f16:	3f 4f       	sbci	r19, 0xFF	; 255
    2f18:	b9 01       	movw	r22, r18
    2f1a:	0e 94 72 0f 	call	0x1ee4	; 0x1ee4 <get_int16_t_data>
			break;
    2f1e:	f0 c2       	rjmp	.+1504   	; 0x3500 <__stack+0x1301>
			//--------------BED1---------------
			case MODBUS_BED1_R_W_SENSOR_TYPE_ADR:
			get_int16_t_data((uint16_t)tempController[BED1].sensorType, &data_counter, data);
    2f20:	80 91 bb 09 	lds	r24, 0x09BB	; 0x8009bb <tempController+0xc8>
    2f24:	88 2f       	mov	r24, r24
    2f26:	90 e0       	ldi	r25, 0x00	; 0
    2f28:	4d 85       	ldd	r20, Y+13	; 0x0d
    2f2a:	5e 85       	ldd	r21, Y+14	; 0x0e
    2f2c:	9e 01       	movw	r18, r28
    2f2e:	24 5f       	subi	r18, 0xF4	; 244
    2f30:	3f 4f       	sbci	r19, 0xFF	; 255
    2f32:	b9 01       	movw	r22, r18
    2f34:	0e 94 72 0f 	call	0x1ee4	; 0x1ee4 <get_int16_t_data>
			break;
    2f38:	e3 c2       	rjmp	.+1478   	; 0x3500 <__stack+0x1301>
			case MODBUS_BED1_R_W_HEAT_MANAGER_ADR:
			get_int16_t_data((uint16_t)tempController[BED1].heatManager, &data_counter, data);
    2f3a:	80 91 cd 09 	lds	r24, 0x09CD	; 0x8009cd <tempController+0xda>
    2f3e:	08 2e       	mov	r0, r24
    2f40:	00 0c       	add	r0, r0
    2f42:	99 0b       	sbc	r25, r25
    2f44:	4d 85       	ldd	r20, Y+13	; 0x0d
    2f46:	5e 85       	ldd	r21, Y+14	; 0x0e
    2f48:	9e 01       	movw	r18, r28
    2f4a:	24 5f       	subi	r18, 0xF4	; 244
    2f4c:	3f 4f       	sbci	r19, 0xFF	; 255
    2f4e:	b9 01       	movw	r22, r18
    2f50:	0e 94 72 0f 	call	0x1ee4	; 0x1ee4 <get_int16_t_data>
			break;
    2f54:	d5 c2       	rjmp	.+1450   	; 0x3500 <__stack+0x1301>
			case MODBUS_BED1_R_W_PID_P_ADR:
			get_int16_t_data((uint16_t)tempController[BED1].pidPGain*100.0, &data_counter, data);
    2f56:	80 91 d4 09 	lds	r24, 0x09D4	; 0x8009d4 <tempController+0xe1>
    2f5a:	90 91 d5 09 	lds	r25, 0x09D5	; 0x8009d5 <tempController+0xe2>
    2f5e:	a0 91 d6 09 	lds	r26, 0x09D6	; 0x8009d6 <tempController+0xe3>
    2f62:	b0 91 d7 09 	lds	r27, 0x09D7	; 0x8009d7 <tempController+0xe4>
    2f66:	bc 01       	movw	r22, r24
    2f68:	cd 01       	movw	r24, r26
    2f6a:	0e 94 c1 29 	call	0x5382	; 0x5382 <__fixunssfsi>
    2f6e:	dc 01       	movw	r26, r24
    2f70:	cb 01       	movw	r24, r22
    2f72:	cc 01       	movw	r24, r24
    2f74:	a0 e0       	ldi	r26, 0x00	; 0
    2f76:	b0 e0       	ldi	r27, 0x00	; 0
    2f78:	bc 01       	movw	r22, r24
    2f7a:	cd 01       	movw	r24, r26
    2f7c:	0e 94 ed 29 	call	0x53da	; 0x53da <__floatunsisf>
    2f80:	dc 01       	movw	r26, r24
    2f82:	cb 01       	movw	r24, r22
    2f84:	20 e0       	ldi	r18, 0x00	; 0
    2f86:	30 e0       	ldi	r19, 0x00	; 0
    2f88:	48 ec       	ldi	r20, 0xC8	; 200
    2f8a:	52 e4       	ldi	r21, 0x42	; 66
    2f8c:	bc 01       	movw	r22, r24
    2f8e:	cd 01       	movw	r24, r26
    2f90:	0e 94 a3 2a 	call	0x5546	; 0x5546 <__mulsf3>
    2f94:	dc 01       	movw	r26, r24
    2f96:	cb 01       	movw	r24, r22
    2f98:	bc 01       	movw	r22, r24
    2f9a:	cd 01       	movw	r24, r26
    2f9c:	0e 94 c1 29 	call	0x5382	; 0x5382 <__fixunssfsi>
    2fa0:	dc 01       	movw	r26, r24
    2fa2:	cb 01       	movw	r24, r22
    2fa4:	fc 01       	movw	r30, r24
    2fa6:	2d 85       	ldd	r18, Y+13	; 0x0d
    2fa8:	3e 85       	ldd	r19, Y+14	; 0x0e
    2faa:	ce 01       	movw	r24, r28
    2fac:	0c 96       	adiw	r24, 0x0c	; 12
    2fae:	a9 01       	movw	r20, r18
    2fb0:	bc 01       	movw	r22, r24
    2fb2:	cf 01       	movw	r24, r30
    2fb4:	0e 94 72 0f 	call	0x1ee4	; 0x1ee4 <get_int16_t_data>
			break;
    2fb8:	a3 c2       	rjmp	.+1350   	; 0x3500 <__stack+0x1301>
			case MODBUS_BED1_R_W_PID_I_ADR:
			get_int16_t_data((uint16_t)tempController[BED1].pidIGain*100.0, &data_counter, data);
    2fba:	80 91 d8 09 	lds	r24, 0x09D8	; 0x8009d8 <tempController+0xe5>
    2fbe:	90 91 d9 09 	lds	r25, 0x09D9	; 0x8009d9 <tempController+0xe6>
    2fc2:	a0 91 da 09 	lds	r26, 0x09DA	; 0x8009da <tempController+0xe7>
    2fc6:	b0 91 db 09 	lds	r27, 0x09DB	; 0x8009db <tempController+0xe8>
    2fca:	bc 01       	movw	r22, r24
    2fcc:	cd 01       	movw	r24, r26
    2fce:	0e 94 c1 29 	call	0x5382	; 0x5382 <__fixunssfsi>
    2fd2:	dc 01       	movw	r26, r24
    2fd4:	cb 01       	movw	r24, r22
    2fd6:	cc 01       	movw	r24, r24
    2fd8:	a0 e0       	ldi	r26, 0x00	; 0
    2fda:	b0 e0       	ldi	r27, 0x00	; 0
    2fdc:	bc 01       	movw	r22, r24
    2fde:	cd 01       	movw	r24, r26
    2fe0:	0e 94 ed 29 	call	0x53da	; 0x53da <__floatunsisf>
    2fe4:	dc 01       	movw	r26, r24
    2fe6:	cb 01       	movw	r24, r22
    2fe8:	20 e0       	ldi	r18, 0x00	; 0
    2fea:	30 e0       	ldi	r19, 0x00	; 0
    2fec:	48 ec       	ldi	r20, 0xC8	; 200
    2fee:	52 e4       	ldi	r21, 0x42	; 66
    2ff0:	bc 01       	movw	r22, r24
    2ff2:	cd 01       	movw	r24, r26
    2ff4:	0e 94 a3 2a 	call	0x5546	; 0x5546 <__mulsf3>
    2ff8:	dc 01       	movw	r26, r24
    2ffa:	cb 01       	movw	r24, r22
    2ffc:	bc 01       	movw	r22, r24
    2ffe:	cd 01       	movw	r24, r26
    3000:	0e 94 c1 29 	call	0x5382	; 0x5382 <__fixunssfsi>
    3004:	dc 01       	movw	r26, r24
    3006:	cb 01       	movw	r24, r22
    3008:	fc 01       	movw	r30, r24
    300a:	2d 85       	ldd	r18, Y+13	; 0x0d
    300c:	3e 85       	ldd	r19, Y+14	; 0x0e
    300e:	ce 01       	movw	r24, r28
    3010:	0c 96       	adiw	r24, 0x0c	; 12
    3012:	a9 01       	movw	r20, r18
    3014:	bc 01       	movw	r22, r24
    3016:	cf 01       	movw	r24, r30
    3018:	0e 94 72 0f 	call	0x1ee4	; 0x1ee4 <get_int16_t_data>
			break;
    301c:	71 c2       	rjmp	.+1250   	; 0x3500 <__stack+0x1301>
			case MODBUS_BED1_R_W_PID_D_ADR:
			get_int16_t_data((uint16_t)tempController[BED1].pidDGain*100.0, &data_counter, data);
    301e:	80 91 dc 09 	lds	r24, 0x09DC	; 0x8009dc <tempController+0xe9>
    3022:	90 91 dd 09 	lds	r25, 0x09DD	; 0x8009dd <tempController+0xea>
    3026:	a0 91 de 09 	lds	r26, 0x09DE	; 0x8009de <tempController+0xeb>
    302a:	b0 91 df 09 	lds	r27, 0x09DF	; 0x8009df <tempController+0xec>
    302e:	bc 01       	movw	r22, r24
    3030:	cd 01       	movw	r24, r26
    3032:	0e 94 c1 29 	call	0x5382	; 0x5382 <__fixunssfsi>
    3036:	dc 01       	movw	r26, r24
    3038:	cb 01       	movw	r24, r22
    303a:	cc 01       	movw	r24, r24
    303c:	a0 e0       	ldi	r26, 0x00	; 0
    303e:	b0 e0       	ldi	r27, 0x00	; 0
    3040:	bc 01       	movw	r22, r24
    3042:	cd 01       	movw	r24, r26
    3044:	0e 94 ed 29 	call	0x53da	; 0x53da <__floatunsisf>
    3048:	dc 01       	movw	r26, r24
    304a:	cb 01       	movw	r24, r22
    304c:	20 e0       	ldi	r18, 0x00	; 0
    304e:	30 e0       	ldi	r19, 0x00	; 0
    3050:	48 ec       	ldi	r20, 0xC8	; 200
    3052:	52 e4       	ldi	r21, 0x42	; 66
    3054:	bc 01       	movw	r22, r24
    3056:	cd 01       	movw	r24, r26
    3058:	0e 94 a3 2a 	call	0x5546	; 0x5546 <__mulsf3>
    305c:	dc 01       	movw	r26, r24
    305e:	cb 01       	movw	r24, r22
    3060:	bc 01       	movw	r22, r24
    3062:	cd 01       	movw	r24, r26
    3064:	0e 94 c1 29 	call	0x5382	; 0x5382 <__fixunssfsi>
    3068:	dc 01       	movw	r26, r24
    306a:	cb 01       	movw	r24, r22
    306c:	fc 01       	movw	r30, r24
    306e:	2d 85       	ldd	r18, Y+13	; 0x0d
    3070:	3e 85       	ldd	r19, Y+14	; 0x0e
    3072:	ce 01       	movw	r24, r28
    3074:	0c 96       	adiw	r24, 0x0c	; 12
    3076:	a9 01       	movw	r20, r18
    3078:	bc 01       	movw	r22, r24
    307a:	cf 01       	movw	r24, r30
    307c:	0e 94 72 0f 	call	0x1ee4	; 0x1ee4 <get_int16_t_data>
			break;
    3080:	3f c2       	rjmp	.+1150   	; 0x3500 <__stack+0x1301>
			case MODBUS_BED1_R_W_DRIVE_MAX_ADR:
			get_int16_t_data((uint16_t)tempController[BED1].pidDriveMax, &data_counter, data);
    3082:	80 91 d2 09 	lds	r24, 0x09D2	; 0x8009d2 <tempController+0xdf>
    3086:	88 2f       	mov	r24, r24
    3088:	90 e0       	ldi	r25, 0x00	; 0
    308a:	4d 85       	ldd	r20, Y+13	; 0x0d
    308c:	5e 85       	ldd	r21, Y+14	; 0x0e
    308e:	9e 01       	movw	r18, r28
    3090:	24 5f       	subi	r18, 0xF4	; 244
    3092:	3f 4f       	sbci	r19, 0xFF	; 255
    3094:	b9 01       	movw	r22, r18
    3096:	0e 94 72 0f 	call	0x1ee4	; 0x1ee4 <get_int16_t_data>
			break;
    309a:	32 c2       	rjmp	.+1124   	; 0x3500 <__stack+0x1301>
			case MODBUS_BED1_R_W_DRVE_MIN_ADR:
			get_int16_t_data((uint16_t)tempController[BED1].pidDriveMin, &data_counter, data);
    309c:	80 91 d3 09 	lds	r24, 0x09D3	; 0x8009d3 <tempController+0xe0>
    30a0:	88 2f       	mov	r24, r24
    30a2:	90 e0       	ldi	r25, 0x00	; 0
    30a4:	4d 85       	ldd	r20, Y+13	; 0x0d
    30a6:	5e 85       	ldd	r21, Y+14	; 0x0e
    30a8:	9e 01       	movw	r18, r28
    30aa:	24 5f       	subi	r18, 0xF4	; 244
    30ac:	3f 4f       	sbci	r19, 0xFF	; 255
    30ae:	b9 01       	movw	r22, r18
    30b0:	0e 94 72 0f 	call	0x1ee4	; 0x1ee4 <get_int16_t_data>
			break;
    30b4:	25 c2       	rjmp	.+1098   	; 0x3500 <__stack+0x1301>
			case MODBUS_BED1_R_W_PID_MAX_ADR:
			get_int16_t_data((uint16_t)tempController[BED1].pidMax, &data_counter, data);
    30b6:	80 91 e0 09 	lds	r24, 0x09E0	; 0x8009e0 <tempController+0xed>
    30ba:	88 2f       	mov	r24, r24
    30bc:	90 e0       	ldi	r25, 0x00	; 0
    30be:	4d 85       	ldd	r20, Y+13	; 0x0d
    30c0:	5e 85       	ldd	r21, Y+14	; 0x0e
    30c2:	9e 01       	movw	r18, r28
    30c4:	24 5f       	subi	r18, 0xF4	; 244
    30c6:	3f 4f       	sbci	r19, 0xFF	; 255
    30c8:	b9 01       	movw	r22, r18
    30ca:	0e 94 72 0f 	call	0x1ee4	; 0x1ee4 <get_int16_t_data>
			break;
    30ce:	18 c2       	rjmp	.+1072   	; 0x3500 <__stack+0x1301>
			//--------------BED2---------------
			case MODBUS_BED2_R_W_SENSOR_TYPE_ADR:
			get_int16_t_data((uint16_t)tempController[BED2].sensorType, &data_counter, data);
    30d0:	80 91 fd 09 	lds	r24, 0x09FD	; 0x8009fd <tempController+0x10a>
    30d4:	88 2f       	mov	r24, r24
    30d6:	90 e0       	ldi	r25, 0x00	; 0
    30d8:	4d 85       	ldd	r20, Y+13	; 0x0d
    30da:	5e 85       	ldd	r21, Y+14	; 0x0e
    30dc:	9e 01       	movw	r18, r28
    30de:	24 5f       	subi	r18, 0xF4	; 244
    30e0:	3f 4f       	sbci	r19, 0xFF	; 255
    30e2:	b9 01       	movw	r22, r18
    30e4:	0e 94 72 0f 	call	0x1ee4	; 0x1ee4 <get_int16_t_data>
			break;
    30e8:	0b c2       	rjmp	.+1046   	; 0x3500 <__stack+0x1301>
			case MODBUS_BED2_R_W_HEAT_MANAGER_ADR:
			get_int16_t_data((uint16_t)tempController[BED2].heatManager, &data_counter, data);
    30ea:	80 91 0f 0a 	lds	r24, 0x0A0F	; 0x800a0f <tempController+0x11c>
    30ee:	08 2e       	mov	r0, r24
    30f0:	00 0c       	add	r0, r0
    30f2:	99 0b       	sbc	r25, r25
    30f4:	4d 85       	ldd	r20, Y+13	; 0x0d
    30f6:	5e 85       	ldd	r21, Y+14	; 0x0e
    30f8:	9e 01       	movw	r18, r28
    30fa:	24 5f       	subi	r18, 0xF4	; 244
    30fc:	3f 4f       	sbci	r19, 0xFF	; 255
    30fe:	b9 01       	movw	r22, r18
    3100:	0e 94 72 0f 	call	0x1ee4	; 0x1ee4 <get_int16_t_data>
			break;
    3104:	fd c1       	rjmp	.+1018   	; 0x3500 <__stack+0x1301>
			case MODBUS_BED2_R_W_PID_P_ADR:
			get_int16_t_data((uint16_t)tempController[BED2].pidPGain*100.0, &data_counter, data);
    3106:	80 91 16 0a 	lds	r24, 0x0A16	; 0x800a16 <tempController+0x123>
    310a:	90 91 17 0a 	lds	r25, 0x0A17	; 0x800a17 <tempController+0x124>
    310e:	a0 91 18 0a 	lds	r26, 0x0A18	; 0x800a18 <tempController+0x125>
    3112:	b0 91 19 0a 	lds	r27, 0x0A19	; 0x800a19 <tempController+0x126>
    3116:	bc 01       	movw	r22, r24
    3118:	cd 01       	movw	r24, r26
    311a:	0e 94 c1 29 	call	0x5382	; 0x5382 <__fixunssfsi>
    311e:	dc 01       	movw	r26, r24
    3120:	cb 01       	movw	r24, r22
    3122:	cc 01       	movw	r24, r24
    3124:	a0 e0       	ldi	r26, 0x00	; 0
    3126:	b0 e0       	ldi	r27, 0x00	; 0
    3128:	bc 01       	movw	r22, r24
    312a:	cd 01       	movw	r24, r26
    312c:	0e 94 ed 29 	call	0x53da	; 0x53da <__floatunsisf>
    3130:	dc 01       	movw	r26, r24
    3132:	cb 01       	movw	r24, r22
    3134:	20 e0       	ldi	r18, 0x00	; 0
    3136:	30 e0       	ldi	r19, 0x00	; 0
    3138:	48 ec       	ldi	r20, 0xC8	; 200
    313a:	52 e4       	ldi	r21, 0x42	; 66
    313c:	bc 01       	movw	r22, r24
    313e:	cd 01       	movw	r24, r26
    3140:	0e 94 a3 2a 	call	0x5546	; 0x5546 <__mulsf3>
    3144:	dc 01       	movw	r26, r24
    3146:	cb 01       	movw	r24, r22
    3148:	bc 01       	movw	r22, r24
    314a:	cd 01       	movw	r24, r26
    314c:	0e 94 c1 29 	call	0x5382	; 0x5382 <__fixunssfsi>
    3150:	dc 01       	movw	r26, r24
    3152:	cb 01       	movw	r24, r22
    3154:	fc 01       	movw	r30, r24
    3156:	2d 85       	ldd	r18, Y+13	; 0x0d
    3158:	3e 85       	ldd	r19, Y+14	; 0x0e
    315a:	ce 01       	movw	r24, r28
    315c:	0c 96       	adiw	r24, 0x0c	; 12
    315e:	a9 01       	movw	r20, r18
    3160:	bc 01       	movw	r22, r24
    3162:	cf 01       	movw	r24, r30
    3164:	0e 94 72 0f 	call	0x1ee4	; 0x1ee4 <get_int16_t_data>
			break;
    3168:	cb c1       	rjmp	.+918    	; 0x3500 <__stack+0x1301>
			case MODBUS_BED2_R_W_PID_I_ADR:
			get_int16_t_data((uint16_t)tempController[BED2].pidIGain*100.0, &data_counter, data);
    316a:	80 91 1a 0a 	lds	r24, 0x0A1A	; 0x800a1a <tempController+0x127>
    316e:	90 91 1b 0a 	lds	r25, 0x0A1B	; 0x800a1b <tempController+0x128>
    3172:	a0 91 1c 0a 	lds	r26, 0x0A1C	; 0x800a1c <tempController+0x129>
    3176:	b0 91 1d 0a 	lds	r27, 0x0A1D	; 0x800a1d <tempController+0x12a>
    317a:	bc 01       	movw	r22, r24
    317c:	cd 01       	movw	r24, r26
    317e:	0e 94 c1 29 	call	0x5382	; 0x5382 <__fixunssfsi>
    3182:	dc 01       	movw	r26, r24
    3184:	cb 01       	movw	r24, r22
    3186:	cc 01       	movw	r24, r24
    3188:	a0 e0       	ldi	r26, 0x00	; 0
    318a:	b0 e0       	ldi	r27, 0x00	; 0
    318c:	bc 01       	movw	r22, r24
    318e:	cd 01       	movw	r24, r26
    3190:	0e 94 ed 29 	call	0x53da	; 0x53da <__floatunsisf>
    3194:	dc 01       	movw	r26, r24
    3196:	cb 01       	movw	r24, r22
    3198:	20 e0       	ldi	r18, 0x00	; 0
    319a:	30 e0       	ldi	r19, 0x00	; 0
    319c:	48 ec       	ldi	r20, 0xC8	; 200
    319e:	52 e4       	ldi	r21, 0x42	; 66
    31a0:	bc 01       	movw	r22, r24
    31a2:	cd 01       	movw	r24, r26
    31a4:	0e 94 a3 2a 	call	0x5546	; 0x5546 <__mulsf3>
    31a8:	dc 01       	movw	r26, r24
    31aa:	cb 01       	movw	r24, r22
    31ac:	bc 01       	movw	r22, r24
    31ae:	cd 01       	movw	r24, r26
    31b0:	0e 94 c1 29 	call	0x5382	; 0x5382 <__fixunssfsi>
    31b4:	dc 01       	movw	r26, r24
    31b6:	cb 01       	movw	r24, r22
    31b8:	fc 01       	movw	r30, r24
    31ba:	2d 85       	ldd	r18, Y+13	; 0x0d
    31bc:	3e 85       	ldd	r19, Y+14	; 0x0e
    31be:	ce 01       	movw	r24, r28
    31c0:	0c 96       	adiw	r24, 0x0c	; 12
    31c2:	a9 01       	movw	r20, r18
    31c4:	bc 01       	movw	r22, r24
    31c6:	cf 01       	movw	r24, r30
    31c8:	0e 94 72 0f 	call	0x1ee4	; 0x1ee4 <get_int16_t_data>
			break;
    31cc:	99 c1       	rjmp	.+818    	; 0x3500 <__stack+0x1301>
			case MODBUS_BED2_R_W_PID_D_ADR:
			get_int16_t_data((uint16_t)tempController[BED2].pidDGain*100.0, &data_counter, data);
    31ce:	80 91 1e 0a 	lds	r24, 0x0A1E	; 0x800a1e <tempController+0x12b>
    31d2:	90 91 1f 0a 	lds	r25, 0x0A1F	; 0x800a1f <tempController+0x12c>
    31d6:	a0 91 20 0a 	lds	r26, 0x0A20	; 0x800a20 <tempController+0x12d>
    31da:	b0 91 21 0a 	lds	r27, 0x0A21	; 0x800a21 <tempController+0x12e>
    31de:	bc 01       	movw	r22, r24
    31e0:	cd 01       	movw	r24, r26
    31e2:	0e 94 c1 29 	call	0x5382	; 0x5382 <__fixunssfsi>
    31e6:	dc 01       	movw	r26, r24
    31e8:	cb 01       	movw	r24, r22
    31ea:	cc 01       	movw	r24, r24
    31ec:	a0 e0       	ldi	r26, 0x00	; 0
    31ee:	b0 e0       	ldi	r27, 0x00	; 0
    31f0:	bc 01       	movw	r22, r24
    31f2:	cd 01       	movw	r24, r26
    31f4:	0e 94 ed 29 	call	0x53da	; 0x53da <__floatunsisf>
    31f8:	dc 01       	movw	r26, r24
    31fa:	cb 01       	movw	r24, r22
    31fc:	20 e0       	ldi	r18, 0x00	; 0
    31fe:	30 e0       	ldi	r19, 0x00	; 0
    3200:	48 ec       	ldi	r20, 0xC8	; 200
    3202:	52 e4       	ldi	r21, 0x42	; 66
    3204:	bc 01       	movw	r22, r24
    3206:	cd 01       	movw	r24, r26
    3208:	0e 94 a3 2a 	call	0x5546	; 0x5546 <__mulsf3>
    320c:	dc 01       	movw	r26, r24
    320e:	cb 01       	movw	r24, r22
    3210:	bc 01       	movw	r22, r24
    3212:	cd 01       	movw	r24, r26
    3214:	0e 94 c1 29 	call	0x5382	; 0x5382 <__fixunssfsi>
    3218:	dc 01       	movw	r26, r24
    321a:	cb 01       	movw	r24, r22
    321c:	fc 01       	movw	r30, r24
    321e:	2d 85       	ldd	r18, Y+13	; 0x0d
    3220:	3e 85       	ldd	r19, Y+14	; 0x0e
    3222:	ce 01       	movw	r24, r28
    3224:	0c 96       	adiw	r24, 0x0c	; 12
    3226:	a9 01       	movw	r20, r18
    3228:	bc 01       	movw	r22, r24
    322a:	cf 01       	movw	r24, r30
    322c:	0e 94 72 0f 	call	0x1ee4	; 0x1ee4 <get_int16_t_data>
			break;
    3230:	67 c1       	rjmp	.+718    	; 0x3500 <__stack+0x1301>
			case MODBUS_BED2_R_W_DRIVE_MAX_ADR:
			get_int16_t_data((uint16_t)tempController[BED2].pidDriveMax, &data_counter, data);
    3232:	80 91 14 0a 	lds	r24, 0x0A14	; 0x800a14 <tempController+0x121>
    3236:	88 2f       	mov	r24, r24
    3238:	90 e0       	ldi	r25, 0x00	; 0
    323a:	4d 85       	ldd	r20, Y+13	; 0x0d
    323c:	5e 85       	ldd	r21, Y+14	; 0x0e
    323e:	9e 01       	movw	r18, r28
    3240:	24 5f       	subi	r18, 0xF4	; 244
    3242:	3f 4f       	sbci	r19, 0xFF	; 255
    3244:	b9 01       	movw	r22, r18
    3246:	0e 94 72 0f 	call	0x1ee4	; 0x1ee4 <get_int16_t_data>
			break;
    324a:	5a c1       	rjmp	.+692    	; 0x3500 <__stack+0x1301>
			case MODBUS_BED2_R_W_DRVE_MIN_ADR:
			get_int16_t_data((uint16_t)tempController[BED2].pidDriveMin, &data_counter, data);
    324c:	80 91 15 0a 	lds	r24, 0x0A15	; 0x800a15 <tempController+0x122>
    3250:	88 2f       	mov	r24, r24
    3252:	90 e0       	ldi	r25, 0x00	; 0
    3254:	4d 85       	ldd	r20, Y+13	; 0x0d
    3256:	5e 85       	ldd	r21, Y+14	; 0x0e
    3258:	9e 01       	movw	r18, r28
    325a:	24 5f       	subi	r18, 0xF4	; 244
    325c:	3f 4f       	sbci	r19, 0xFF	; 255
    325e:	b9 01       	movw	r22, r18
    3260:	0e 94 72 0f 	call	0x1ee4	; 0x1ee4 <get_int16_t_data>
			break;
    3264:	4d c1       	rjmp	.+666    	; 0x3500 <__stack+0x1301>
			case MODBUS_BED2_R_W_PID_MAX_ADR:
			get_int16_t_data((uint16_t)tempController[BED2].pidMax, &data_counter, data);
    3266:	80 91 22 0a 	lds	r24, 0x0A22	; 0x800a22 <tempController+0x12f>
    326a:	88 2f       	mov	r24, r24
    326c:	90 e0       	ldi	r25, 0x00	; 0
    326e:	4d 85       	ldd	r20, Y+13	; 0x0d
    3270:	5e 85       	ldd	r21, Y+14	; 0x0e
    3272:	9e 01       	movw	r18, r28
    3274:	24 5f       	subi	r18, 0xF4	; 244
    3276:	3f 4f       	sbci	r19, 0xFF	; 255
    3278:	b9 01       	movw	r22, r18
    327a:	0e 94 72 0f 	call	0x1ee4	; 0x1ee4 <get_int16_t_data>
			break;
    327e:	40 c1       	rjmp	.+640    	; 0x3500 <__stack+0x1301>
			
			//--------------BED3---------------
			case MODBUS_BED3_R_W_SENSOR_TYPE_ADR:
			get_int16_t_data((uint16_t)tempController[BED3].sensorType, &data_counter, data);
    3280:	80 91 3f 0a 	lds	r24, 0x0A3F	; 0x800a3f <tempController+0x14c>
    3284:	88 2f       	mov	r24, r24
    3286:	90 e0       	ldi	r25, 0x00	; 0
    3288:	4d 85       	ldd	r20, Y+13	; 0x0d
    328a:	5e 85       	ldd	r21, Y+14	; 0x0e
    328c:	9e 01       	movw	r18, r28
    328e:	24 5f       	subi	r18, 0xF4	; 244
    3290:	3f 4f       	sbci	r19, 0xFF	; 255
    3292:	b9 01       	movw	r22, r18
    3294:	0e 94 72 0f 	call	0x1ee4	; 0x1ee4 <get_int16_t_data>
			break;
    3298:	33 c1       	rjmp	.+614    	; 0x3500 <__stack+0x1301>
			case MODBUS_BED3_R_W_HEAT_MANAGER_ADR:
			get_int16_t_data((uint16_t)tempController[BED3].heatManager, &data_counter, data);
    329a:	80 91 51 0a 	lds	r24, 0x0A51	; 0x800a51 <tempController+0x15e>
    329e:	08 2e       	mov	r0, r24
    32a0:	00 0c       	add	r0, r0
    32a2:	99 0b       	sbc	r25, r25
    32a4:	4d 85       	ldd	r20, Y+13	; 0x0d
    32a6:	5e 85       	ldd	r21, Y+14	; 0x0e
    32a8:	9e 01       	movw	r18, r28
    32aa:	24 5f       	subi	r18, 0xF4	; 244
    32ac:	3f 4f       	sbci	r19, 0xFF	; 255
    32ae:	b9 01       	movw	r22, r18
    32b0:	0e 94 72 0f 	call	0x1ee4	; 0x1ee4 <get_int16_t_data>
			break;
    32b4:	25 c1       	rjmp	.+586    	; 0x3500 <__stack+0x1301>
			case MODBUS_BED3_R_W_PID_P_ADR:
			get_int16_t_data((uint16_t)tempController[BED3].pidPGain*100.0, &data_counter, data);
    32b6:	80 91 58 0a 	lds	r24, 0x0A58	; 0x800a58 <tempController+0x165>
    32ba:	90 91 59 0a 	lds	r25, 0x0A59	; 0x800a59 <tempController+0x166>
    32be:	a0 91 5a 0a 	lds	r26, 0x0A5A	; 0x800a5a <tempController+0x167>
    32c2:	b0 91 5b 0a 	lds	r27, 0x0A5B	; 0x800a5b <tempController+0x168>
    32c6:	bc 01       	movw	r22, r24
    32c8:	cd 01       	movw	r24, r26
    32ca:	0e 94 c1 29 	call	0x5382	; 0x5382 <__fixunssfsi>
    32ce:	dc 01       	movw	r26, r24
    32d0:	cb 01       	movw	r24, r22
    32d2:	cc 01       	movw	r24, r24
    32d4:	a0 e0       	ldi	r26, 0x00	; 0
    32d6:	b0 e0       	ldi	r27, 0x00	; 0
    32d8:	bc 01       	movw	r22, r24
    32da:	cd 01       	movw	r24, r26
    32dc:	0e 94 ed 29 	call	0x53da	; 0x53da <__floatunsisf>
    32e0:	dc 01       	movw	r26, r24
    32e2:	cb 01       	movw	r24, r22
    32e4:	20 e0       	ldi	r18, 0x00	; 0
    32e6:	30 e0       	ldi	r19, 0x00	; 0
    32e8:	48 ec       	ldi	r20, 0xC8	; 200
    32ea:	52 e4       	ldi	r21, 0x42	; 66
    32ec:	bc 01       	movw	r22, r24
    32ee:	cd 01       	movw	r24, r26
    32f0:	0e 94 a3 2a 	call	0x5546	; 0x5546 <__mulsf3>
    32f4:	dc 01       	movw	r26, r24
    32f6:	cb 01       	movw	r24, r22
    32f8:	bc 01       	movw	r22, r24
    32fa:	cd 01       	movw	r24, r26
    32fc:	0e 94 c1 29 	call	0x5382	; 0x5382 <__fixunssfsi>
    3300:	dc 01       	movw	r26, r24
    3302:	cb 01       	movw	r24, r22
    3304:	fc 01       	movw	r30, r24
    3306:	2d 85       	ldd	r18, Y+13	; 0x0d
    3308:	3e 85       	ldd	r19, Y+14	; 0x0e
    330a:	ce 01       	movw	r24, r28
    330c:	0c 96       	adiw	r24, 0x0c	; 12
    330e:	a9 01       	movw	r20, r18
    3310:	bc 01       	movw	r22, r24
    3312:	cf 01       	movw	r24, r30
    3314:	0e 94 72 0f 	call	0x1ee4	; 0x1ee4 <get_int16_t_data>
			break;
    3318:	f3 c0       	rjmp	.+486    	; 0x3500 <__stack+0x1301>
			case MODBUS_BED3_R_W_PID_I_ADR:
			get_int16_t_data((uint16_t)tempController[BED3].pidIGain*100.0, &data_counter, data);
    331a:	80 91 5c 0a 	lds	r24, 0x0A5C	; 0x800a5c <tempController+0x169>
    331e:	90 91 5d 0a 	lds	r25, 0x0A5D	; 0x800a5d <tempController+0x16a>
    3322:	a0 91 5e 0a 	lds	r26, 0x0A5E	; 0x800a5e <tempController+0x16b>
    3326:	b0 91 5f 0a 	lds	r27, 0x0A5F	; 0x800a5f <tempController+0x16c>
    332a:	bc 01       	movw	r22, r24
    332c:	cd 01       	movw	r24, r26
    332e:	0e 94 c1 29 	call	0x5382	; 0x5382 <__fixunssfsi>
    3332:	dc 01       	movw	r26, r24
    3334:	cb 01       	movw	r24, r22
    3336:	cc 01       	movw	r24, r24
    3338:	a0 e0       	ldi	r26, 0x00	; 0
    333a:	b0 e0       	ldi	r27, 0x00	; 0
    333c:	bc 01       	movw	r22, r24
    333e:	cd 01       	movw	r24, r26
    3340:	0e 94 ed 29 	call	0x53da	; 0x53da <__floatunsisf>
    3344:	dc 01       	movw	r26, r24
    3346:	cb 01       	movw	r24, r22
    3348:	20 e0       	ldi	r18, 0x00	; 0
    334a:	30 e0       	ldi	r19, 0x00	; 0
    334c:	48 ec       	ldi	r20, 0xC8	; 200
    334e:	52 e4       	ldi	r21, 0x42	; 66
    3350:	bc 01       	movw	r22, r24
    3352:	cd 01       	movw	r24, r26
    3354:	0e 94 a3 2a 	call	0x5546	; 0x5546 <__mulsf3>
    3358:	dc 01       	movw	r26, r24
    335a:	cb 01       	movw	r24, r22
    335c:	bc 01       	movw	r22, r24
    335e:	cd 01       	movw	r24, r26
    3360:	0e 94 c1 29 	call	0x5382	; 0x5382 <__fixunssfsi>
    3364:	dc 01       	movw	r26, r24
    3366:	cb 01       	movw	r24, r22
    3368:	fc 01       	movw	r30, r24
    336a:	2d 85       	ldd	r18, Y+13	; 0x0d
    336c:	3e 85       	ldd	r19, Y+14	; 0x0e
    336e:	ce 01       	movw	r24, r28
    3370:	0c 96       	adiw	r24, 0x0c	; 12
    3372:	a9 01       	movw	r20, r18
    3374:	bc 01       	movw	r22, r24
    3376:	cf 01       	movw	r24, r30
    3378:	0e 94 72 0f 	call	0x1ee4	; 0x1ee4 <get_int16_t_data>
			break;
    337c:	c1 c0       	rjmp	.+386    	; 0x3500 <__stack+0x1301>
			case MODBUS_BED3_R_W_PID_D_ADR:
			get_int16_t_data((uint16_t)tempController[BED3].pidDGain*100.0, &data_counter, data);
    337e:	80 91 60 0a 	lds	r24, 0x0A60	; 0x800a60 <tempController+0x16d>
    3382:	90 91 61 0a 	lds	r25, 0x0A61	; 0x800a61 <tempController+0x16e>
    3386:	a0 91 62 0a 	lds	r26, 0x0A62	; 0x800a62 <tempController+0x16f>
    338a:	b0 91 63 0a 	lds	r27, 0x0A63	; 0x800a63 <tempController+0x170>
    338e:	bc 01       	movw	r22, r24
    3390:	cd 01       	movw	r24, r26
    3392:	0e 94 c1 29 	call	0x5382	; 0x5382 <__fixunssfsi>
    3396:	dc 01       	movw	r26, r24
    3398:	cb 01       	movw	r24, r22
    339a:	cc 01       	movw	r24, r24
    339c:	a0 e0       	ldi	r26, 0x00	; 0
    339e:	b0 e0       	ldi	r27, 0x00	; 0
    33a0:	bc 01       	movw	r22, r24
    33a2:	cd 01       	movw	r24, r26
    33a4:	0e 94 ed 29 	call	0x53da	; 0x53da <__floatunsisf>
    33a8:	dc 01       	movw	r26, r24
    33aa:	cb 01       	movw	r24, r22
    33ac:	20 e0       	ldi	r18, 0x00	; 0
    33ae:	30 e0       	ldi	r19, 0x00	; 0
    33b0:	48 ec       	ldi	r20, 0xC8	; 200
    33b2:	52 e4       	ldi	r21, 0x42	; 66
    33b4:	bc 01       	movw	r22, r24
    33b6:	cd 01       	movw	r24, r26
    33b8:	0e 94 a3 2a 	call	0x5546	; 0x5546 <__mulsf3>
    33bc:	dc 01       	movw	r26, r24
    33be:	cb 01       	movw	r24, r22
    33c0:	bc 01       	movw	r22, r24
    33c2:	cd 01       	movw	r24, r26
    33c4:	0e 94 c1 29 	call	0x5382	; 0x5382 <__fixunssfsi>
    33c8:	dc 01       	movw	r26, r24
    33ca:	cb 01       	movw	r24, r22
    33cc:	fc 01       	movw	r30, r24
    33ce:	2d 85       	ldd	r18, Y+13	; 0x0d
    33d0:	3e 85       	ldd	r19, Y+14	; 0x0e
    33d2:	ce 01       	movw	r24, r28
    33d4:	0c 96       	adiw	r24, 0x0c	; 12
    33d6:	a9 01       	movw	r20, r18
    33d8:	bc 01       	movw	r22, r24
    33da:	cf 01       	movw	r24, r30
    33dc:	0e 94 72 0f 	call	0x1ee4	; 0x1ee4 <get_int16_t_data>
			break;
    33e0:	8f c0       	rjmp	.+286    	; 0x3500 <__stack+0x1301>
			case MODBUS_BED3_R_W_DRIVE_MAX_ADR:
			get_int16_t_data((uint16_t)tempController[BED3].pidDriveMax, &data_counter, data);
    33e2:	80 91 56 0a 	lds	r24, 0x0A56	; 0x800a56 <tempController+0x163>
    33e6:	88 2f       	mov	r24, r24
    33e8:	90 e0       	ldi	r25, 0x00	; 0
    33ea:	4d 85       	ldd	r20, Y+13	; 0x0d
    33ec:	5e 85       	ldd	r21, Y+14	; 0x0e
    33ee:	9e 01       	movw	r18, r28
    33f0:	24 5f       	subi	r18, 0xF4	; 244
    33f2:	3f 4f       	sbci	r19, 0xFF	; 255
    33f4:	b9 01       	movw	r22, r18
    33f6:	0e 94 72 0f 	call	0x1ee4	; 0x1ee4 <get_int16_t_data>
			break;
    33fa:	82 c0       	rjmp	.+260    	; 0x3500 <__stack+0x1301>
			case MODBUS_BED3_R_W_DRVE_MIN_ADR:
			get_int16_t_data((uint16_t)tempController[BED3].pidDriveMin, &data_counter, data);
    33fc:	80 91 57 0a 	lds	r24, 0x0A57	; 0x800a57 <tempController+0x164>
    3400:	88 2f       	mov	r24, r24
    3402:	90 e0       	ldi	r25, 0x00	; 0
    3404:	4d 85       	ldd	r20, Y+13	; 0x0d
    3406:	5e 85       	ldd	r21, Y+14	; 0x0e
    3408:	9e 01       	movw	r18, r28
    340a:	24 5f       	subi	r18, 0xF4	; 244
    340c:	3f 4f       	sbci	r19, 0xFF	; 255
    340e:	b9 01       	movw	r22, r18
    3410:	0e 94 72 0f 	call	0x1ee4	; 0x1ee4 <get_int16_t_data>
			break;
    3414:	75 c0       	rjmp	.+234    	; 0x3500 <__stack+0x1301>
			case MODBUS_BED3_R_W_PID_MAX_ADR:
			get_int16_t_data((uint16_t)tempController[BED3].pidMax, &data_counter, data);
    3416:	80 91 64 0a 	lds	r24, 0x0A64	; 0x800a64 <tempController+0x171>
    341a:	88 2f       	mov	r24, r24
    341c:	90 e0       	ldi	r25, 0x00	; 0
    341e:	4d 85       	ldd	r20, Y+13	; 0x0d
    3420:	5e 85       	ldd	r21, Y+14	; 0x0e
    3422:	9e 01       	movw	r18, r28
    3424:	24 5f       	subi	r18, 0xF4	; 244
    3426:	3f 4f       	sbci	r19, 0xFF	; 255
    3428:	b9 01       	movw	r22, r18
    342a:	0e 94 72 0f 	call	0x1ee4	; 0x1ee4 <get_int16_t_data>
			break;
    342e:	68 c0       	rjmp	.+208    	; 0x3500 <__stack+0x1301>
			///////// TENSOMETER_0 //////////
			case MODBUS_TENS_0_RAW_VALUE_WEIGHT_R_ADR:
			get_int16_t_data((uint16_t)tensometer[TENSOMETER_0].RAW_Value, &data_counter, data);
    3430:	80 91 52 0b 	lds	r24, 0x0B52	; 0x800b52 <tensometer>
    3434:	90 91 53 0b 	lds	r25, 0x0B53	; 0x800b53 <tensometer+0x1>
    3438:	4d 85       	ldd	r20, Y+13	; 0x0d
    343a:	5e 85       	ldd	r21, Y+14	; 0x0e
    343c:	9e 01       	movw	r18, r28
    343e:	24 5f       	subi	r18, 0xF4	; 244
    3440:	3f 4f       	sbci	r19, 0xFF	; 255
    3442:	b9 01       	movw	r22, r18
    3444:	0e 94 72 0f 	call	0x1ee4	; 0x1ee4 <get_int16_t_data>
			break;
    3448:	5b c0       	rjmp	.+182    	; 0x3500 <__stack+0x1301>
			case MODBUS_TENS_0_WEIGHT_R_W_ADR:
			get_int16_t_data((uint16_t)tensometer[TENSOMETER_0].weight, &data_counter, data);
    344a:	80 91 54 0b 	lds	r24, 0x0B54	; 0x800b54 <tensometer+0x2>
    344e:	90 91 55 0b 	lds	r25, 0x0B55	; 0x800b55 <tensometer+0x3>
    3452:	4d 85       	ldd	r20, Y+13	; 0x0d
    3454:	5e 85       	ldd	r21, Y+14	; 0x0e
    3456:	9e 01       	movw	r18, r28
    3458:	24 5f       	subi	r18, 0xF4	; 244
    345a:	3f 4f       	sbci	r19, 0xFF	; 255
    345c:	b9 01       	movw	r22, r18
    345e:	0e 94 72 0f 	call	0x1ee4	; 0x1ee4 <get_int16_t_data>
			break;
    3462:	4e c0       	rjmp	.+156    	; 0x3500 <__stack+0x1301>
			case MODBUS_TENS_0_FILAMENT_WEIGHT_R_ADR:
			get_int16_t_data((uint16_t)tensometer[TENSOMETER_0].filamentWeight, &data_counter, data);
    3464:	80 91 58 0b 	lds	r24, 0x0B58	; 0x800b58 <tensometer+0x6>
    3468:	90 91 59 0b 	lds	r25, 0x0B59	; 0x800b59 <tensometer+0x7>
    346c:	4d 85       	ldd	r20, Y+13	; 0x0d
    346e:	5e 85       	ldd	r21, Y+14	; 0x0e
    3470:	9e 01       	movw	r18, r28
    3472:	24 5f       	subi	r18, 0xF4	; 244
    3474:	3f 4f       	sbci	r19, 0xFF	; 255
    3476:	b9 01       	movw	r22, r18
    3478:	0e 94 72 0f 	call	0x1ee4	; 0x1ee4 <get_int16_t_data>
			break;
    347c:	41 c0       	rjmp	.+130    	; 0x3500 <__stack+0x1301>
			case MODBUS_TENS_0_ROLL_WEIGHT_R_ADR:
			get_int16_t_data((uint16_t)tensometer[TENSOMETER_0].rollWeight, &data_counter, data);
    347e:	80 91 56 0b 	lds	r24, 0x0B56	; 0x800b56 <tensometer+0x4>
    3482:	90 91 57 0b 	lds	r25, 0x0B57	; 0x800b57 <tensometer+0x5>
    3486:	4d 85       	ldd	r20, Y+13	; 0x0d
    3488:	5e 85       	ldd	r21, Y+14	; 0x0e
    348a:	9e 01       	movw	r18, r28
    348c:	24 5f       	subi	r18, 0xF4	; 244
    348e:	3f 4f       	sbci	r19, 0xFF	; 255
    3490:	b9 01       	movw	r22, r18
    3492:	0e 94 72 0f 	call	0x1ee4	; 0x1ee4 <get_int16_t_data>
			break;
    3496:	34 c0       	rjmp	.+104    	; 0x3500 <__stack+0x1301>
			///////// TENSOMETER_1 //////////
			case MODBUS_TENS_1_RAW_VALUE_WEIGHT_R_ADR:
			get_int16_t_data((uint16_t)tensometer[TENSOMETER_1].RAW_Value, &data_counter, data);
    3498:	80 91 61 0b 	lds	r24, 0x0B61	; 0x800b61 <tensometer+0xf>
    349c:	90 91 62 0b 	lds	r25, 0x0B62	; 0x800b62 <tensometer+0x10>
    34a0:	4d 85       	ldd	r20, Y+13	; 0x0d
    34a2:	5e 85       	ldd	r21, Y+14	; 0x0e
    34a4:	9e 01       	movw	r18, r28
    34a6:	24 5f       	subi	r18, 0xF4	; 244
    34a8:	3f 4f       	sbci	r19, 0xFF	; 255
    34aa:	b9 01       	movw	r22, r18
    34ac:	0e 94 72 0f 	call	0x1ee4	; 0x1ee4 <get_int16_t_data>
			break;
    34b0:	27 c0       	rjmp	.+78     	; 0x3500 <__stack+0x1301>
			case MODBUS_TENS_1_WEIGHT_R_W_ADR:
			get_int16_t_data((uint16_t)tensometer[TENSOMETER_1].weight, &data_counter, data);
    34b2:	80 91 63 0b 	lds	r24, 0x0B63	; 0x800b63 <tensometer+0x11>
    34b6:	90 91 64 0b 	lds	r25, 0x0B64	; 0x800b64 <tensometer+0x12>
    34ba:	4d 85       	ldd	r20, Y+13	; 0x0d
    34bc:	5e 85       	ldd	r21, Y+14	; 0x0e
    34be:	9e 01       	movw	r18, r28
    34c0:	24 5f       	subi	r18, 0xF4	; 244
    34c2:	3f 4f       	sbci	r19, 0xFF	; 255
    34c4:	b9 01       	movw	r22, r18
    34c6:	0e 94 72 0f 	call	0x1ee4	; 0x1ee4 <get_int16_t_data>
			break;
    34ca:	1a c0       	rjmp	.+52     	; 0x3500 <__stack+0x1301>
			case MODBUS_TENS_1_FILAMENT_WEIGHT_R_ADR:
			get_int16_t_data((uint16_t)tensometer[TENSOMETER_1].filamentWeight, &data_counter, data);
    34cc:	80 91 67 0b 	lds	r24, 0x0B67	; 0x800b67 <tensometer+0x15>
    34d0:	90 91 68 0b 	lds	r25, 0x0B68	; 0x800b68 <tensometer+0x16>
    34d4:	4d 85       	ldd	r20, Y+13	; 0x0d
    34d6:	5e 85       	ldd	r21, Y+14	; 0x0e
    34d8:	9e 01       	movw	r18, r28
    34da:	24 5f       	subi	r18, 0xF4	; 244
    34dc:	3f 4f       	sbci	r19, 0xFF	; 255
    34de:	b9 01       	movw	r22, r18
    34e0:	0e 94 72 0f 	call	0x1ee4	; 0x1ee4 <get_int16_t_data>
			break;
    34e4:	0d c0       	rjmp	.+26     	; 0x3500 <__stack+0x1301>
			case MODBUS_TENS_1_ROLL_WEIGHT_R_ADR:
			get_int16_t_data((uint16_t)tensometer[TENSOMETER_1].rollWeight, &data_counter, data);
    34e6:	80 91 65 0b 	lds	r24, 0x0B65	; 0x800b65 <tensometer+0x13>
    34ea:	90 91 66 0b 	lds	r25, 0x0B66	; 0x800b66 <tensometer+0x14>
    34ee:	4d 85       	ldd	r20, Y+13	; 0x0d
    34f0:	5e 85       	ldd	r21, Y+14	; 0x0e
    34f2:	9e 01       	movw	r18, r28
    34f4:	24 5f       	subi	r18, 0xF4	; 244
    34f6:	3f 4f       	sbci	r19, 0xFF	; 255
    34f8:	b9 01       	movw	r22, r18
    34fa:	0e 94 72 0f 	call	0x1ee4	; 0x1ee4 <get_int16_t_data>
			break;		
    34fe:	00 00       	nop
	const uint16_t number_of_registers = data[data[0]-1]; //na przed ostatniej pozycji znajduje siê w jednym bajcie iloæ rejestrów do odczytu
	const uint16_t first_register = data[DATA_POS]*256+data[DATA_POS+1]; 
	uint8_t data_counter = 0;
	uint16_t tmp = 0;
	float tmpf = 0;
	for (uint8_t i=0; i<number_of_registers; i++)
    3500:	89 81       	ldd	r24, Y+1	; 0x01
    3502:	8f 5f       	subi	r24, 0xFF	; 255
    3504:	89 83       	std	Y+1, r24	; 0x01
    3506:	89 81       	ldd	r24, Y+1	; 0x01
    3508:	28 2f       	mov	r18, r24
    350a:	30 e0       	ldi	r19, 0x00	; 0
    350c:	8a 81       	ldd	r24, Y+2	; 0x02
    350e:	9b 81       	ldd	r25, Y+3	; 0x03
    3510:	28 17       	cp	r18, r24
    3512:	39 07       	cpc	r19, r25
    3514:	10 f4       	brcc	.+4      	; 0x351a <__stack+0x131b>
    3516:	0c 94 f7 0f 	jmp	0x1fee	; 0x1fee <mod_read_input_register+0x7e>
			case MODBUS_TENS_1_ROLL_WEIGHT_R_ADR:
			get_int16_t_data((uint16_t)tensometer[TENSOMETER_1].rollWeight, &data_counter, data);
			break;		
		}
	}
	data[0] = data_counter+4; //4 - stala liczba - 1 bajt adres slave-a, 1 bajt funkcja, 1 bajt liczba danych oraz 1 bajt LRC
    351a:	8c 85       	ldd	r24, Y+12	; 0x0c
    351c:	24 e0       	ldi	r18, 0x04	; 4
    351e:	28 0f       	add	r18, r24
    3520:	8d 85       	ldd	r24, Y+13	; 0x0d
    3522:	9e 85       	ldd	r25, Y+14	; 0x0e
    3524:	fc 01       	movw	r30, r24
    3526:	20 83       	st	Z, r18
	data[3] = data_counter;
    3528:	8d 85       	ldd	r24, Y+13	; 0x0d
    352a:	9e 85       	ldd	r25, Y+14	; 0x0e
    352c:	03 96       	adiw	r24, 0x03	; 3
    352e:	2c 85       	ldd	r18, Y+12	; 0x0c
    3530:	fc 01       	movw	r30, r24
    3532:	20 83       	st	Z, r18
	data[4+data_counter] = calculate_LRC(data, data[0]); //obliczamy LRC wpisujac je na koncu struktury danych
    3534:	8c 85       	ldd	r24, Y+12	; 0x0c
    3536:	88 2f       	mov	r24, r24
    3538:	90 e0       	ldi	r25, 0x00	; 0
    353a:	04 96       	adiw	r24, 0x04	; 4
    353c:	9c 01       	movw	r18, r24
    353e:	8d 85       	ldd	r24, Y+13	; 0x0d
    3540:	9e 85       	ldd	r25, Y+14	; 0x0e
    3542:	8c 01       	movw	r16, r24
    3544:	02 0f       	add	r16, r18
    3546:	13 1f       	adc	r17, r19
    3548:	8d 85       	ldd	r24, Y+13	; 0x0d
    354a:	9e 85       	ldd	r25, Y+14	; 0x0e
    354c:	fc 01       	movw	r30, r24
    354e:	20 81       	ld	r18, Z
    3550:	8d 85       	ldd	r24, Y+13	; 0x0d
    3552:	9e 85       	ldd	r25, Y+14	; 0x0e
    3554:	62 2f       	mov	r22, r18
    3556:	0e 94 80 06 	call	0xd00	; 0xd00 <calculate_LRC>
    355a:	f8 01       	movw	r30, r16
    355c:	80 83       	st	Z, r24
	modbus_puts(data);
    355e:	8d 85       	ldd	r24, Y+13	; 0x0d
    3560:	9e 85       	ldd	r25, Y+14	; 0x0e
    3562:	0e 94 05 07 	call	0xe0a	; 0xe0a <modbus_puts>
	return 1;
    3566:	81 e0       	ldi	r24, 0x01	; 1
}
    3568:	2e 96       	adiw	r28, 0x0e	; 14
    356a:	0f b6       	in	r0, 0x3f	; 63
    356c:	f8 94       	cli
    356e:	de bf       	out	0x3e, r29	; 62
    3570:	0f be       	out	0x3f, r0	; 63
    3572:	cd bf       	out	0x3d, r28	; 61
    3574:	df 91       	pop	r29
    3576:	cf 91       	pop	r28
    3578:	1f 91       	pop	r17
    357a:	0f 91       	pop	r16
    357c:	ff 90       	pop	r15
    357e:	ef 90       	pop	r14
    3580:	08 95       	ret

00003582 <parse_uart_data>:
	//data[4+data_counter] = calculate_LRC(data, data[0]); //obliczamy LRC wpisujac je na koncu struktury danych
	//modbus_puts(data);
	//return 1;
//}

void parse_uart_data( char *pBuf ) {
    3582:	1f 93       	push	r17
    3584:	cf 93       	push	r28
    3586:	df 93       	push	r29
    3588:	1f 92       	push	r1
    358a:	1f 92       	push	r1
    358c:	cd b7       	in	r28, 0x3d	; 61
    358e:	de b7       	in	r29, 0x3e	; 62
    3590:	9a 83       	std	Y+2, r25	; 0x02
    3592:	89 83       	std	Y+1, r24	; 0x01

	if ((pBuf[ADDRESS_POS] == SLAVE_ADDRESS) || (pBuf[ADDRESS_POS] == ALL_SLAVES_ADR))
    3594:	89 81       	ldd	r24, Y+1	; 0x01
    3596:	9a 81       	ldd	r25, Y+2	; 0x02
    3598:	01 96       	adiw	r24, 0x01	; 1
    359a:	fc 01       	movw	r30, r24
    359c:	80 81       	ld	r24, Z
    359e:	84 36       	cpi	r24, 0x64	; 100
    35a0:	41 f0       	breq	.+16     	; 0x35b2 <parse_uart_data+0x30>
    35a2:	89 81       	ldd	r24, Y+1	; 0x01
    35a4:	9a 81       	ldd	r25, Y+2	; 0x02
    35a6:	01 96       	adiw	r24, 0x01	; 1
    35a8:	fc 01       	movw	r30, r24
    35aa:	80 81       	ld	r24, Z
    35ac:	88 23       	and	r24, r24
    35ae:	09 f0       	breq	.+2      	; 0x35b2 <parse_uart_data+0x30>
    35b0:	46 c0       	rjmp	.+140    	; 0x363e <parse_uart_data+0xbc>
	{
		if (pBuf[pBuf[0]] == calculate_LRC(pBuf, pBuf[0]))
    35b2:	89 81       	ldd	r24, Y+1	; 0x01
    35b4:	9a 81       	ldd	r25, Y+2	; 0x02
    35b6:	fc 01       	movw	r30, r24
    35b8:	80 81       	ld	r24, Z
    35ba:	88 2f       	mov	r24, r24
    35bc:	90 e0       	ldi	r25, 0x00	; 0
    35be:	29 81       	ldd	r18, Y+1	; 0x01
    35c0:	3a 81       	ldd	r19, Y+2	; 0x02
    35c2:	82 0f       	add	r24, r18
    35c4:	93 1f       	adc	r25, r19
    35c6:	fc 01       	movw	r30, r24
    35c8:	10 81       	ld	r17, Z
    35ca:	89 81       	ldd	r24, Y+1	; 0x01
    35cc:	9a 81       	ldd	r25, Y+2	; 0x02
    35ce:	fc 01       	movw	r30, r24
    35d0:	20 81       	ld	r18, Z
    35d2:	89 81       	ldd	r24, Y+1	; 0x01
    35d4:	9a 81       	ldd	r25, Y+2	; 0x02
    35d6:	62 2f       	mov	r22, r18
    35d8:	0e 94 80 06 	call	0xd00	; 0xd00 <calculate_LRC>
    35dc:	18 17       	cp	r17, r24
    35de:	79 f5       	brne	.+94     	; 0x363e <parse_uart_data+0xbc>
		{
			switch(pBuf[FUNCT_POS]){
    35e0:	89 81       	ldd	r24, Y+1	; 0x01
    35e2:	9a 81       	ldd	r25, Y+2	; 0x02
    35e4:	02 96       	adiw	r24, 0x02	; 2
    35e6:	fc 01       	movw	r30, r24
    35e8:	80 81       	ld	r24, Z
    35ea:	88 2f       	mov	r24, r24
    35ec:	90 e0       	ldi	r25, 0x00	; 0
    35ee:	09 2e       	mov	r0, r25
    35f0:	00 0c       	add	r0, r0
    35f2:	aa 0b       	sbc	r26, r26
    35f4:	bb 0b       	sbc	r27, r27
    35f6:	41 e0       	ldi	r20, 0x01	; 1
    35f8:	50 e0       	ldi	r21, 0x00	; 0
    35fa:	2f e0       	ldi	r18, 0x0F	; 15
    35fc:	30 e0       	ldi	r19, 0x00	; 0
    35fe:	84 1b       	sub	r24, r20
    3600:	95 0b       	sbc	r25, r21
    3602:	28 17       	cp	r18, r24
    3604:	39 07       	cpc	r19, r25
    3606:	d8 f0       	brcs	.+54     	; 0x363e <parse_uart_data+0xbc>
    3608:	fc 01       	movw	r30, r24
    360a:	88 27       	eor	r24, r24
    360c:	ee 58       	subi	r30, 0x8E	; 142
    360e:	ff 4f       	sbci	r31, 0xFF	; 255
    3610:	8f 4f       	sbci	r24, 0xFF	; 255
    3612:	0c 94 53 2b 	jmp	0x56a6	; 0x56a6 <__tablejump2__>
					//mod_read_discrete_inputs(pBuf[FUNCT_POS], data);
					break;
				
				case READ_HOLDING_REGISTER:
					//mod_read_holding_register(pBuf[FUNCT_POS],data);
					mod_read_input_register(pBuf);
    3616:	89 81       	ldd	r24, Y+1	; 0x01
    3618:	9a 81       	ldd	r25, Y+2	; 0x02
    361a:	0e 94 b8 0f 	call	0x1f70	; 0x1f70 <mod_read_input_register>
					break;
    361e:	0f c0       	rjmp	.+30     	; 0x363e <parse_uart_data+0xbc>
				
				case READ_INPUT_REGISTER:
					mod_read_input_register(pBuf);
    3620:	89 81       	ldd	r24, Y+1	; 0x01
    3622:	9a 81       	ldd	r25, Y+2	; 0x02
    3624:	0e 94 b8 0f 	call	0x1f70	; 0x1f70 <mod_read_input_register>
					break;
    3628:	0a c0       	rjmp	.+20     	; 0x363e <parse_uart_data+0xbc>
				
				case WRITE_SINGLE_COILS:
					break;
				
				case WRITE_SINGLE_REGISTER:
					mod_write_single_register(pBuf);
    362a:	89 81       	ldd	r24, Y+1	; 0x01
    362c:	9a 81       	ldd	r25, Y+2	; 0x02
    362e:	0e 94 35 07 	call	0xe6a	; 0xe6a <mod_write_single_register>
					break;
    3632:	05 c0       	rjmp	.+10     	; 0x363e <parse_uart_data+0xbc>
				
				case WIRTE_MULTIPLE_COILS:
					break;
				
				case WRITE_MULTIPLE_REGISTERS:
					mod_write_multiple_registers(pBuf);
    3634:	89 81       	ldd	r24, Y+1	; 0x01
    3636:	9a 81       	ldd	r25, Y+2	; 0x02
    3638:	0e 94 18 0e 	call	0x1c30	; 0x1c30 <mod_write_multiple_registers>
					break;
    363c:	00 00       	nop
				//default:
		
			}
		}
	}
}
    363e:	0f 90       	pop	r0
    3640:	0f 90       	pop	r0
    3642:	df 91       	pop	r29
    3644:	cf 91       	pop	r28
    3646:	1f 91       	pop	r17
    3648:	08 95       	ret

0000364a <MANAGE_TEMPETATURE_EVENT>:
void init_temperature_control(){
	createGenericTable(temptable_generic1,GENERIC_THERM1_MIN_TEMP, GENERIC_THERM1_MAX_TEMP, GENERIC_THERM1_BETA, GENERIC_THERM1_R0, GENERIC_THERM1_T0, GENERIC_THERM1_R1, GENERIC_THERM1_R2);
	for(uint8_t tmpContr = 0; tmpContr<ANALOG_INPUTS; tmpContr++){
		initTempControler(&tempController[tmpContr],tmpContr);
	}	
}
    364a:	cf 93       	push	r28
    364c:	df 93       	push	r29
    364e:	cd b7       	in	r28, 0x3d	; 61
    3650:	de b7       	in	r29, 0x3e	; 62
    3652:	80 91 af 07 	lds	r24, 0x07AF	; 0x8007af <temperature_event_callback>
    3656:	90 91 b0 07 	lds	r25, 0x07B0	; 0x8007b0 <temperature_event_callback+0x1>
    365a:	89 2b       	or	r24, r25
    365c:	31 f0       	breq	.+12     	; 0x366a <MANAGE_TEMPETATURE_EVENT+0x20>
    365e:	80 91 af 07 	lds	r24, 0x07AF	; 0x8007af <temperature_event_callback>
    3662:	90 91 b0 07 	lds	r25, 0x07B0	; 0x8007b0 <temperature_event_callback+0x1>
    3666:	fc 01       	movw	r30, r24
    3668:	19 95       	eicall
    366a:	df 91       	pop	r29
    366c:	cf 91       	pop	r28
    366e:	08 95       	ret

00003670 <disableAllHeater>:
    3670:	cf 93       	push	r28
    3672:	df 93       	push	r29
    3674:	1f 92       	push	r1
    3676:	cd b7       	in	r28, 0x3d	; 61
    3678:	de b7       	in	r29, 0x3e	; 62
    367a:	19 82       	std	Y+1, r1	; 0x01
    367c:	34 c0       	rjmp	.+104    	; 0x36e6 <disableAllHeater+0x76>
    367e:	89 81       	ldd	r24, Y+1	; 0x01
    3680:	28 2f       	mov	r18, r24
    3682:	30 e0       	ldi	r19, 0x00	; 0
    3684:	42 e4       	ldi	r20, 0x42	; 66
    3686:	42 9f       	mul	r20, r18
    3688:	c0 01       	movw	r24, r0
    368a:	43 9f       	mul	r20, r19
    368c:	90 0d       	add	r25, r0
    368e:	11 24       	eor	r1, r1
    3690:	81 50       	subi	r24, 0x01	; 1
    3692:	97 4f       	sbci	r25, 0xF7	; 247
    3694:	fc 01       	movw	r30, r24
    3696:	10 82       	st	Z, r1
    3698:	11 82       	std	Z+1, r1	; 0x01
    369a:	12 82       	std	Z+2, r1	; 0x02
    369c:	13 82       	std	Z+3, r1	; 0x03
    369e:	89 81       	ldd	r24, Y+1	; 0x01
    36a0:	28 2f       	mov	r18, r24
    36a2:	30 e0       	ldi	r19, 0x00	; 0
    36a4:	42 e4       	ldi	r20, 0x42	; 66
    36a6:	42 9f       	mul	r20, r18
    36a8:	c0 01       	movw	r24, r0
    36aa:	43 9f       	mul	r20, r19
    36ac:	90 0d       	add	r25, r0
    36ae:	11 24       	eor	r1, r1
    36b0:	87 50       	subi	r24, 0x07	; 7
    36b2:	97 4f       	sbci	r25, 0xF7	; 247
    36b4:	fc 01       	movw	r30, r24
    36b6:	11 82       	std	Z+1, r1	; 0x01
    36b8:	10 82       	st	Z, r1
    36ba:	89 81       	ldd	r24, Y+1	; 0x01
    36bc:	28 2f       	mov	r18, r24
    36be:	30 e0       	ldi	r19, 0x00	; 0
    36c0:	42 e4       	ldi	r20, 0x42	; 66
    36c2:	42 9f       	mul	r20, r18
    36c4:	c0 01       	movw	r24, r0
    36c6:	43 9f       	mul	r20, r19
    36c8:	90 0d       	add	r25, r0
    36ca:	11 24       	eor	r1, r1
    36cc:	8d 50       	subi	r24, 0x0D	; 13
    36ce:	97 4f       	sbci	r25, 0xF7	; 247
    36d0:	fc 01       	movw	r30, r24
    36d2:	80 81       	ld	r24, Z
    36d4:	88 2f       	mov	r24, r24
    36d6:	90 e0       	ldi	r25, 0x00	; 0
    36d8:	8e 54       	subi	r24, 0x4E	; 78
    36da:	98 4f       	sbci	r25, 0xF8	; 248
    36dc:	fc 01       	movw	r30, r24
    36de:	10 82       	st	Z, r1
    36e0:	89 81       	ldd	r24, Y+1	; 0x01
    36e2:	8f 5f       	subi	r24, 0xFF	; 255
    36e4:	89 83       	std	Y+1, r24	; 0x01
    36e6:	89 81       	ldd	r24, Y+1	; 0x01
    36e8:	88 30       	cpi	r24, 0x08	; 8
    36ea:	48 f2       	brcs	.-110    	; 0x367e <disableAllHeater+0xe>
    36ec:	8f ef       	ldi	r24, 0xFF	; 255
    36ee:	80 93 04 02 	sts	0x0204, r24	; 0x800204 <autotuneIndex>
    36f2:	0f 90       	pop	r0
    36f4:	df 91       	pop	r29
    36f6:	cf 91       	pop	r28
    36f8:	08 95       	ret

000036fa <setTargetTemperature>:



void setTargetTemperature(struct TemperatureController *temperatureCont, uint16_t tar)
{
    36fa:	ef 92       	push	r14
    36fc:	ff 92       	push	r15
    36fe:	0f 93       	push	r16
    3700:	1f 93       	push	r17
    3702:	cf 93       	push	r28
    3704:	df 93       	push	r29
    3706:	cd b7       	in	r28, 0x3d	; 61
    3708:	de b7       	in	r29, 0x3e	; 62
    370a:	ee 97       	sbiw	r28, 0x3e	; 62
    370c:	0f b6       	in	r0, 0x3f	; 63
    370e:	f8 94       	cli
    3710:	de bf       	out	0x3e, r29	; 62
    3712:	0f be       	out	0x3f, r0	; 63
    3714:	cd bf       	out	0x3d, r28	; 61
    3716:	98 a7       	std	Y+40, r25	; 0x28
    3718:	8f a3       	std	Y+39, r24	; 0x27
    371a:	7a a7       	std	Y+42, r23	; 0x2a
    371c:	69 a7       	std	Y+41, r22	; 0x29
	temperatureCont->targetTemperatureC = (float)tar/100.0f;
    371e:	89 a5       	ldd	r24, Y+41	; 0x29
    3720:	9a a5       	ldd	r25, Y+42	; 0x2a
    3722:	cc 01       	movw	r24, r24
    3724:	a0 e0       	ldi	r26, 0x00	; 0
    3726:	b0 e0       	ldi	r27, 0x00	; 0
    3728:	bc 01       	movw	r22, r24
    372a:	cd 01       	movw	r24, r26
    372c:	0e 94 ed 29 	call	0x53da	; 0x53da <__floatunsisf>
    3730:	dc 01       	movw	r26, r24
    3732:	cb 01       	movw	r24, r22
    3734:	20 e0       	ldi	r18, 0x00	; 0
    3736:	30 e0       	ldi	r19, 0x00	; 0
    3738:	48 ec       	ldi	r20, 0xC8	; 200
    373a:	52 e4       	ldi	r21, 0x42	; 66
    373c:	bc 01       	movw	r22, r24
    373e:	cd 01       	movw	r24, r26
    3740:	0e 94 54 29 	call	0x52a8	; 0x52a8 <__divsf3>
    3744:	dc 01       	movw	r26, r24
    3746:	cb 01       	movw	r24, r22
    3748:	2f a1       	ldd	r18, Y+39	; 0x27
    374a:	38 a5       	ldd	r19, Y+40	; 0x28
    374c:	f9 01       	movw	r30, r18
    374e:	84 87       	std	Z+12, r24	; 0x0c
    3750:	95 87       	std	Z+13, r25	; 0x0d
    3752:	a6 87       	std	Z+14, r26	; 0x0e
    3754:	b7 87       	std	Z+15, r27	; 0x0f
	int temp = TEMP_FLOAT_TO_INT(temperatureCont->targetTemperatureC);
    3756:	8f a1       	ldd	r24, Y+39	; 0x27
    3758:	98 a5       	ldd	r25, Y+40	; 0x28
    375a:	fc 01       	movw	r30, r24
    375c:	84 85       	ldd	r24, Z+12	; 0x0c
    375e:	95 85       	ldd	r25, Z+13	; 0x0d
    3760:	a6 85       	ldd	r26, Z+14	; 0x0e
    3762:	b7 85       	ldd	r27, Z+15	; 0x0f
    3764:	20 e0       	ldi	r18, 0x00	; 0
    3766:	30 e0       	ldi	r19, 0x00	; 0
    3768:	40 e0       	ldi	r20, 0x00	; 0
    376a:	51 e4       	ldi	r21, 0x41	; 65
    376c:	bc 01       	movw	r22, r24
    376e:	cd 01       	movw	r24, r26
    3770:	0e 94 a3 2a 	call	0x5546	; 0x5546 <__mulsf3>
    3774:	dc 01       	movw	r26, r24
    3776:	cb 01       	movw	r24, r22
    3778:	bc 01       	movw	r22, r24
    377a:	cd 01       	movw	r24, r26
    377c:	0e 94 bc 29 	call	0x5378	; 0x5378 <__fixsfsi>
    3780:	dc 01       	movw	r26, r24
    3782:	cb 01       	movw	r24, r22
    3784:	9a 8f       	std	Y+26, r25	; 0x1a
    3786:	89 8f       	std	Y+25, r24	; 0x19
	uint8_t type = temperatureCont->sensorType;
    3788:	8f a1       	ldd	r24, Y+39	; 0x27
    378a:	98 a5       	ldd	r25, Y+40	; 0x28
    378c:	fc 01       	movw	r30, r24
    378e:	82 81       	ldd	r24, Z+2	; 0x02
    3790:	89 83       	std	Y+1, r24	; 0x01
	switch(temperatureCont->sensorType)
    3792:	8f a1       	ldd	r24, Y+39	; 0x27
    3794:	98 a5       	ldd	r25, Y+40	; 0x28
    3796:	fc 01       	movw	r30, r24
    3798:	82 81       	ldd	r24, Z+2	; 0x02
    379a:	88 2f       	mov	r24, r24
    379c:	90 e0       	ldi	r25, 0x00	; 0
    379e:	8c 33       	cpi	r24, 0x3C	; 60
    37a0:	91 05       	cpc	r25, r1
    37a2:	09 f4       	brne	.+2      	; 0x37a6 <setTargetTemperature+0xac>
    37a4:	77 c1       	rjmp	.+750    	; 0x3a94 <setTargetTemperature+0x39a>
    37a6:	8d 33       	cpi	r24, 0x3D	; 61
    37a8:	91 05       	cpc	r25, r1
    37aa:	64 f4       	brge	.+24     	; 0x37c4 <setTargetTemperature+0xca>
    37ac:	81 30       	cpi	r24, 0x01	; 1
    37ae:	91 05       	cpc	r25, r1
    37b0:	0c f4       	brge	.+2      	; 0x37b4 <setTargetTemperature+0xba>
    37b2:	4f c2       	rjmp	.+1182   	; 0x3c52 <setTargetTemperature+0x558>
    37b4:	8d 30       	cpi	r24, 0x0D	; 13
    37b6:	91 05       	cpc	r25, r1
    37b8:	cc f0       	brlt	.+50     	; 0x37ec <setTargetTemperature+0xf2>
    37ba:	c2 97       	sbiw	r24, 0x32	; 50
    37bc:	03 97       	sbiw	r24, 0x03	; 3
    37be:	08 f0       	brcs	.+2      	; 0x37c2 <setTargetTemperature+0xc8>
    37c0:	48 c2       	rjmp	.+1168   	; 0x3c52 <setTargetTemperature+0x558>
    37c2:	c5 c0       	rjmp	.+394    	; 0x394e <setTargetTemperature+0x254>
    37c4:	84 36       	cpi	r24, 0x64	; 100
    37c6:	91 05       	cpc	r25, r1
    37c8:	09 f4       	brne	.+2      	; 0x37cc <setTargetTemperature+0xd2>
    37ca:	84 c1       	rjmp	.+776    	; 0x3ad4 <setTargetTemperature+0x3da>
    37cc:	85 36       	cpi	r24, 0x65	; 101
    37ce:	91 05       	cpc	r25, r1
    37d0:	2c f4       	brge	.+10     	; 0x37dc <setTargetTemperature+0xe2>
    37d2:	81 36       	cpi	r24, 0x61	; 97
    37d4:	91 05       	cpc	r25, r1
    37d6:	0c f4       	brge	.+2      	; 0x37da <setTargetTemperature+0xe0>
    37d8:	3c c2       	rjmp	.+1144   	; 0x3c52 <setTargetTemperature+0x558>
    37da:	9c c1       	rjmp	.+824    	; 0x3b14 <setTargetTemperature+0x41a>
    37dc:	8b 3c       	cpi	r24, 0xCB	; 203
    37de:	91 05       	cpc	r25, r1
    37e0:	09 f4       	brne	.+2      	; 0x37e4 <setTargetTemperature+0xea>
    37e2:	98 c1       	rjmp	.+816    	; 0x3b14 <setTargetTemperature+0x41a>
    37e4:	8c 3c       	cpi	r24, 0xCC	; 204
    37e6:	91 05       	cpc	r25, r1
    37e8:	09 f0       	breq	.+2      	; 0x37ec <setTargetTemperature+0xf2>
    37ea:	33 c2       	rjmp	.+1126   	; 0x3c52 <setTargetTemperature+0x558>
		case 10:
		case 11:
		case 12:
		case 204:
	    {
		    if (type == 204)
    37ec:	89 81       	ldd	r24, Y+1	; 0x01
    37ee:	8c 3c       	cpi	r24, 0xCC	; 204
    37f0:	11 f4       	brne	.+4      	; 0x37f6 <setTargetTemperature+0xfc>
		    {
			    type = 8;
    37f2:	88 e0       	ldi	r24, 0x08	; 8
    37f4:	89 83       	std	Y+1, r24	; 0x01
		    }
		    type--;
    37f6:	89 81       	ldd	r24, Y+1	; 0x01
    37f8:	81 50       	subi	r24, 0x01	; 1
    37fa:	89 83       	std	Y+1, r24	; 0x01
			uint8_t num = pgm_read_uint8_t(&temptables_num[type])<<1;
    37fc:	89 81       	ldd	r24, Y+1	; 0x01
    37fe:	88 2f       	mov	r24, r24
    3800:	90 e0       	ldi	r25, 0x00	; 0
    3802:	8b 57       	subi	r24, 0x7B	; 123
    3804:	98 4f       	sbci	r25, 0xF8	; 248
    3806:	fc 01       	movw	r30, r24
    3808:	80 81       	ld	r24, Z
    380a:	88 0f       	add	r24, r24
    380c:	8b 8f       	std	Y+27, r24	; 0x1b
			uint8_t i=2;
    380e:	82 e0       	ldi	r24, 0x02	; 2
    3810:	8a 83       	std	Y+2, r24	; 0x02
			const short *temptable = (const short *)pgm_read_word(&temptables[type]); //pgm_read_word(&temptables[type]);
    3812:	89 81       	ldd	r24, Y+1	; 0x01
    3814:	88 2f       	mov	r24, r24
    3816:	90 e0       	ldi	r25, 0x00	; 0
    3818:	88 0f       	add	r24, r24
    381a:	99 1f       	adc	r25, r25
    381c:	87 59       	subi	r24, 0x97	; 151
    381e:	98 4f       	sbci	r25, 0xF8	; 248
    3820:	fc 01       	movw	r30, r24
    3822:	80 81       	ld	r24, Z
    3824:	91 81       	ldd	r25, Z+1	; 0x01
    3826:	9d 8f       	std	Y+29, r25	; 0x1d
    3828:	8c 8f       	std	Y+28, r24	; 0x1c
			short oldraw = pgm_read_word(&temptable[0]);
    382a:	8c 8d       	ldd	r24, Y+28	; 0x1c
    382c:	9d 8d       	ldd	r25, Y+29	; 0x1d
    382e:	fc 01       	movw	r30, r24
    3830:	80 81       	ld	r24, Z
    3832:	91 81       	ldd	r25, Z+1	; 0x01
    3834:	9c 83       	std	Y+4, r25	; 0x04
    3836:	8b 83       	std	Y+3, r24	; 0x03
			short oldtemp = pgm_read_word(&temptable[1]);
    3838:	8c 8d       	ldd	r24, Y+28	; 0x1c
    383a:	9d 8d       	ldd	r25, Y+29	; 0x1d
    383c:	fc 01       	movw	r30, r24
    383e:	82 81       	ldd	r24, Z+2	; 0x02
    3840:	93 81       	ldd	r25, Z+3	; 0x03
    3842:	9e 83       	std	Y+6, r25	; 0x06
    3844:	8d 83       	std	Y+5, r24	; 0x05
			short newraw,newtemp;
			while(i<num)
    3846:	72 c0       	rjmp	.+228    	; 0x392c <setTargetTemperature+0x232>
			{
				newraw = pgm_read_word(&temptable[i++]);
    3848:	8a 81       	ldd	r24, Y+2	; 0x02
    384a:	91 e0       	ldi	r25, 0x01	; 1
    384c:	98 0f       	add	r25, r24
    384e:	9a 83       	std	Y+2, r25	; 0x02
    3850:	88 2f       	mov	r24, r24
    3852:	90 e0       	ldi	r25, 0x00	; 0
    3854:	88 0f       	add	r24, r24
    3856:	99 1f       	adc	r25, r25
    3858:	2c 8d       	ldd	r18, Y+28	; 0x1c
    385a:	3d 8d       	ldd	r19, Y+29	; 0x1d
    385c:	82 0f       	add	r24, r18
    385e:	93 1f       	adc	r25, r19
    3860:	fc 01       	movw	r30, r24
    3862:	80 81       	ld	r24, Z
    3864:	91 81       	ldd	r25, Z+1	; 0x01
    3866:	98 87       	std	Y+8, r25	; 0x08
    3868:	8f 83       	std	Y+7, r24	; 0x07
				newtemp = pgm_read_word(&temptable[i++]);
    386a:	8a 81       	ldd	r24, Y+2	; 0x02
    386c:	91 e0       	ldi	r25, 0x01	; 1
    386e:	98 0f       	add	r25, r24
    3870:	9a 83       	std	Y+2, r25	; 0x02
    3872:	88 2f       	mov	r24, r24
    3874:	90 e0       	ldi	r25, 0x00	; 0
    3876:	88 0f       	add	r24, r24
    3878:	99 1f       	adc	r25, r25
    387a:	2c 8d       	ldd	r18, Y+28	; 0x1c
    387c:	3d 8d       	ldd	r19, Y+29	; 0x1d
    387e:	82 0f       	add	r24, r18
    3880:	93 1f       	adc	r25, r19
    3882:	fc 01       	movw	r30, r24
    3884:	80 81       	ld	r24, Z
    3886:	91 81       	ldd	r25, Z+1	; 0x01
    3888:	9f 8f       	std	Y+31, r25	; 0x1f
    388a:	8e 8f       	std	Y+30, r24	; 0x1e
				if (newtemp < temp)
    388c:	2e 8d       	ldd	r18, Y+30	; 0x1e
    388e:	3f 8d       	ldd	r19, Y+31	; 0x1f
    3890:	89 8d       	ldd	r24, Y+25	; 0x19
    3892:	9a 8d       	ldd	r25, Y+26	; 0x1a
    3894:	28 17       	cp	r18, r24
    3896:	39 07       	cpc	r19, r25
    3898:	0c f0       	brlt	.+2      	; 0x389c <setTargetTemperature+0x1a2>
    389a:	40 c0       	rjmp	.+128    	; 0x391c <setTargetTemperature+0x222>
				{
					temperatureCont->targetTemperature = (1023<<(2-ANALOG_REDUCE_BITS))- oldraw + (int32_t)(oldtemp-temp)*(int32_t)(oldraw-newraw)/(oldtemp-newtemp);
    389c:	2d 81       	ldd	r18, Y+5	; 0x05
    389e:	3e 81       	ldd	r19, Y+6	; 0x06
    38a0:	89 8d       	ldd	r24, Y+25	; 0x19
    38a2:	9a 8d       	ldd	r25, Y+26	; 0x1a
    38a4:	a9 01       	movw	r20, r18
    38a6:	48 1b       	sub	r20, r24
    38a8:	59 0b       	sbc	r21, r25
    38aa:	ca 01       	movw	r24, r20
    38ac:	9c 01       	movw	r18, r24
    38ae:	99 0f       	add	r25, r25
    38b0:	44 0b       	sbc	r20, r20
    38b2:	55 0b       	sbc	r21, r21
    38b4:	6b 81       	ldd	r22, Y+3	; 0x03
    38b6:	7c 81       	ldd	r23, Y+4	; 0x04
    38b8:	8f 81       	ldd	r24, Y+7	; 0x07
    38ba:	98 85       	ldd	r25, Y+8	; 0x08
    38bc:	fb 01       	movw	r30, r22
    38be:	e8 1b       	sub	r30, r24
    38c0:	f9 0b       	sbc	r31, r25
    38c2:	cf 01       	movw	r24, r30
    38c4:	09 2e       	mov	r0, r25
    38c6:	00 0c       	add	r0, r0
    38c8:	aa 0b       	sbc	r26, r26
    38ca:	bb 0b       	sbc	r27, r27
    38cc:	bc 01       	movw	r22, r24
    38ce:	cd 01       	movw	r24, r26
    38d0:	0e 94 06 2b 	call	0x560c	; 0x560c <__mulsi3>
    38d4:	7b 01       	movw	r14, r22
    38d6:	8c 01       	movw	r16, r24
    38d8:	2d 81       	ldd	r18, Y+5	; 0x05
    38da:	3e 81       	ldd	r19, Y+6	; 0x06
    38dc:	8e 8d       	ldd	r24, Y+30	; 0x1e
    38de:	9f 8d       	ldd	r25, Y+31	; 0x1f
    38e0:	a9 01       	movw	r20, r18
    38e2:	48 1b       	sub	r20, r24
    38e4:	59 0b       	sbc	r21, r25
    38e6:	ca 01       	movw	r24, r20
    38e8:	9c 01       	movw	r18, r24
    38ea:	99 0f       	add	r25, r25
    38ec:	44 0b       	sbc	r20, r20
    38ee:	55 0b       	sbc	r21, r21
    38f0:	c8 01       	movw	r24, r16
    38f2:	b7 01       	movw	r22, r14
    38f4:	0e 94 37 2b 	call	0x566e	; 0x566e <__divmodsi4>
    38f8:	da 01       	movw	r26, r20
    38fa:	c9 01       	movw	r24, r18
    38fc:	9c 01       	movw	r18, r24
    38fe:	8b 81       	ldd	r24, Y+3	; 0x03
    3900:	9c 81       	ldd	r25, Y+4	; 0x04
    3902:	f9 01       	movw	r30, r18
    3904:	e8 1b       	sub	r30, r24
    3906:	f9 0b       	sbc	r31, r25
    3908:	cf 01       	movw	r24, r30
    390a:	84 50       	subi	r24, 0x04	; 4
    390c:	90 4f       	sbci	r25, 0xF0	; 240
    390e:	9c 01       	movw	r18, r24
    3910:	8f a1       	ldd	r24, Y+39	; 0x27
    3912:	98 a5       	ldd	r25, Y+40	; 0x28
    3914:	fc 01       	movw	r30, r24
    3916:	37 83       	std	Z+7, r19	; 0x07
    3918:	26 83       	std	Z+6, r18	; 0x06
					return 1;
    391a:	9b c1       	rjmp	.+822    	; 0x3c52 <setTargetTemperature+0x558>
				}
				oldtemp = newtemp;
    391c:	8e 8d       	ldd	r24, Y+30	; 0x1e
    391e:	9f 8d       	ldd	r25, Y+31	; 0x1f
    3920:	9e 83       	std	Y+6, r25	; 0x06
    3922:	8d 83       	std	Y+5, r24	; 0x05
				oldraw = newraw;
    3924:	8f 81       	ldd	r24, Y+7	; 0x07
    3926:	98 85       	ldd	r25, Y+8	; 0x08
    3928:	9c 83       	std	Y+4, r25	; 0x04
    392a:	8b 83       	std	Y+3, r24	; 0x03
			uint8_t i=2;
			const short *temptable = (const short *)pgm_read_word(&temptables[type]); //pgm_read_word(&temptables[type]);
			short oldraw = pgm_read_word(&temptable[0]);
			short oldtemp = pgm_read_word(&temptable[1]);
			short newraw,newtemp;
			while(i<num)
    392c:	9a 81       	ldd	r25, Y+2	; 0x02
    392e:	8b 8d       	ldd	r24, Y+27	; 0x1b
    3930:	98 17       	cp	r25, r24
    3932:	08 f4       	brcc	.+2      	; 0x3936 <setTargetTemperature+0x23c>
    3934:	89 cf       	rjmp	.-238    	; 0x3848 <setTargetTemperature+0x14e>
				}
				oldtemp = newtemp;
				oldraw = newraw;
			}
			// Overflow: Set to last value in the table
			temperatureCont->targetTemperature = (1023<<(2-ANALOG_REDUCE_BITS))-newraw;
    3936:	2c ef       	ldi	r18, 0xFC	; 252
    3938:	3f e0       	ldi	r19, 0x0F	; 15
    393a:	8f 81       	ldd	r24, Y+7	; 0x07
    393c:	98 85       	ldd	r25, Y+8	; 0x08
    393e:	28 1b       	sub	r18, r24
    3940:	39 0b       	sbc	r19, r25
    3942:	8f a1       	ldd	r24, Y+39	; 0x27
    3944:	98 a5       	ldd	r25, Y+40	; 0x28
    3946:	fc 01       	movw	r30, r24
    3948:	37 83       	std	Z+7, r19	; 0x07
    394a:	26 83       	std	Z+6, r18	; 0x06
			break;
    394c:	82 c1       	rjmp	.+772    	; 0x3c52 <setTargetTemperature+0x558>
		}
		case 50: // user defined PTC thermistor
		case 51:
		case 52:
		{
			type-=46;
    394e:	89 81       	ldd	r24, Y+1	; 0x01
    3950:	8e 52       	subi	r24, 0x2E	; 46
    3952:	89 83       	std	Y+1, r24	; 0x01
			uint8_t num = pgm_read_uint8_t(&temptables_num[type])<<1;
    3954:	89 81       	ldd	r24, Y+1	; 0x01
    3956:	88 2f       	mov	r24, r24
    3958:	90 e0       	ldi	r25, 0x00	; 0
    395a:	8b 57       	subi	r24, 0x7B	; 123
    395c:	98 4f       	sbci	r25, 0xF8	; 248
    395e:	fc 01       	movw	r30, r24
    3960:	80 81       	ld	r24, Z
    3962:	88 0f       	add	r24, r24
    3964:	88 a3       	std	Y+32, r24	; 0x20
			uint8_t i=2;
    3966:	82 e0       	ldi	r24, 0x02	; 2
    3968:	89 87       	std	Y+9, r24	; 0x09
			const short *temptable = (const short *)pgm_read_word(&temptables[type]); //pgm_read_word(&temptables[type]);
    396a:	89 81       	ldd	r24, Y+1	; 0x01
    396c:	88 2f       	mov	r24, r24
    396e:	90 e0       	ldi	r25, 0x00	; 0
    3970:	88 0f       	add	r24, r24
    3972:	99 1f       	adc	r25, r25
    3974:	87 59       	subi	r24, 0x97	; 151
    3976:	98 4f       	sbci	r25, 0xF8	; 248
    3978:	fc 01       	movw	r30, r24
    397a:	80 81       	ld	r24, Z
    397c:	91 81       	ldd	r25, Z+1	; 0x01
    397e:	9a a3       	std	Y+34, r25	; 0x22
    3980:	89 a3       	std	Y+33, r24	; 0x21
			short oldraw = pgm_read_word(&temptable[0]);
    3982:	89 a1       	ldd	r24, Y+33	; 0x21
    3984:	9a a1       	ldd	r25, Y+34	; 0x22
    3986:	fc 01       	movw	r30, r24
    3988:	80 81       	ld	r24, Z
    398a:	91 81       	ldd	r25, Z+1	; 0x01
    398c:	9b 87       	std	Y+11, r25	; 0x0b
    398e:	8a 87       	std	Y+10, r24	; 0x0a
			short oldtemp = pgm_read_word(&temptable[1]);
    3990:	89 a1       	ldd	r24, Y+33	; 0x21
    3992:	9a a1       	ldd	r25, Y+34	; 0x22
    3994:	fc 01       	movw	r30, r24
    3996:	82 81       	ldd	r24, Z+2	; 0x02
    3998:	93 81       	ldd	r25, Z+3	; 0x03
    399a:	9d 87       	std	Y+13, r25	; 0x0d
    399c:	8c 87       	std	Y+12, r24	; 0x0c
			short newraw,newtemp;
			while(i<num)
    399e:	6d c0       	rjmp	.+218    	; 0x3a7a <setTargetTemperature+0x380>
			{
				newraw = pgm_read_word(&temptable[i++]);
    39a0:	89 85       	ldd	r24, Y+9	; 0x09
    39a2:	91 e0       	ldi	r25, 0x01	; 1
    39a4:	98 0f       	add	r25, r24
    39a6:	99 87       	std	Y+9, r25	; 0x09
    39a8:	88 2f       	mov	r24, r24
    39aa:	90 e0       	ldi	r25, 0x00	; 0
    39ac:	88 0f       	add	r24, r24
    39ae:	99 1f       	adc	r25, r25
    39b0:	29 a1       	ldd	r18, Y+33	; 0x21
    39b2:	3a a1       	ldd	r19, Y+34	; 0x22
    39b4:	82 0f       	add	r24, r18
    39b6:	93 1f       	adc	r25, r19
    39b8:	fc 01       	movw	r30, r24
    39ba:	80 81       	ld	r24, Z
    39bc:	91 81       	ldd	r25, Z+1	; 0x01
    39be:	9f 87       	std	Y+15, r25	; 0x0f
    39c0:	8e 87       	std	Y+14, r24	; 0x0e
				newtemp = pgm_read_word(&temptable[i++]);
    39c2:	89 85       	ldd	r24, Y+9	; 0x09
    39c4:	91 e0       	ldi	r25, 0x01	; 1
    39c6:	98 0f       	add	r25, r24
    39c8:	99 87       	std	Y+9, r25	; 0x09
    39ca:	88 2f       	mov	r24, r24
    39cc:	90 e0       	ldi	r25, 0x00	; 0
    39ce:	88 0f       	add	r24, r24
    39d0:	99 1f       	adc	r25, r25
    39d2:	29 a1       	ldd	r18, Y+33	; 0x21
    39d4:	3a a1       	ldd	r19, Y+34	; 0x22
    39d6:	82 0f       	add	r24, r18
    39d8:	93 1f       	adc	r25, r19
    39da:	fc 01       	movw	r30, r24
    39dc:	80 81       	ld	r24, Z
    39de:	91 81       	ldd	r25, Z+1	; 0x01
    39e0:	9c a3       	std	Y+36, r25	; 0x24
    39e2:	8b a3       	std	Y+35, r24	; 0x23
				if (newtemp > temp)
    39e4:	2b a1       	ldd	r18, Y+35	; 0x23
    39e6:	3c a1       	ldd	r19, Y+36	; 0x24
    39e8:	89 8d       	ldd	r24, Y+25	; 0x19
    39ea:	9a 8d       	ldd	r25, Y+26	; 0x1a
    39ec:	82 17       	cp	r24, r18
    39ee:	93 07       	cpc	r25, r19
    39f0:	e4 f5       	brge	.+120    	; 0x3a6a <setTargetTemperature+0x370>
				{
					temperatureCont->targetTemperature = oldraw + (int32_t)(oldtemp-temp)*(int32_t)(oldraw-newraw)/(oldtemp-newtemp);
    39f2:	2c 85       	ldd	r18, Y+12	; 0x0c
    39f4:	3d 85       	ldd	r19, Y+13	; 0x0d
    39f6:	89 8d       	ldd	r24, Y+25	; 0x19
    39f8:	9a 8d       	ldd	r25, Y+26	; 0x1a
    39fa:	a9 01       	movw	r20, r18
    39fc:	48 1b       	sub	r20, r24
    39fe:	59 0b       	sbc	r21, r25
    3a00:	ca 01       	movw	r24, r20
    3a02:	9c 01       	movw	r18, r24
    3a04:	99 0f       	add	r25, r25
    3a06:	44 0b       	sbc	r20, r20
    3a08:	55 0b       	sbc	r21, r21
    3a0a:	6a 85       	ldd	r22, Y+10	; 0x0a
    3a0c:	7b 85       	ldd	r23, Y+11	; 0x0b
    3a0e:	8e 85       	ldd	r24, Y+14	; 0x0e
    3a10:	9f 85       	ldd	r25, Y+15	; 0x0f
    3a12:	fb 01       	movw	r30, r22
    3a14:	e8 1b       	sub	r30, r24
    3a16:	f9 0b       	sbc	r31, r25
    3a18:	cf 01       	movw	r24, r30
    3a1a:	09 2e       	mov	r0, r25
    3a1c:	00 0c       	add	r0, r0
    3a1e:	aa 0b       	sbc	r26, r26
    3a20:	bb 0b       	sbc	r27, r27
    3a22:	bc 01       	movw	r22, r24
    3a24:	cd 01       	movw	r24, r26
    3a26:	0e 94 06 2b 	call	0x560c	; 0x560c <__mulsi3>
    3a2a:	7b 01       	movw	r14, r22
    3a2c:	8c 01       	movw	r16, r24
    3a2e:	2c 85       	ldd	r18, Y+12	; 0x0c
    3a30:	3d 85       	ldd	r19, Y+13	; 0x0d
    3a32:	8b a1       	ldd	r24, Y+35	; 0x23
    3a34:	9c a1       	ldd	r25, Y+36	; 0x24
    3a36:	a9 01       	movw	r20, r18
    3a38:	48 1b       	sub	r20, r24
    3a3a:	59 0b       	sbc	r21, r25
    3a3c:	ca 01       	movw	r24, r20
    3a3e:	9c 01       	movw	r18, r24
    3a40:	99 0f       	add	r25, r25
    3a42:	44 0b       	sbc	r20, r20
    3a44:	55 0b       	sbc	r21, r21
    3a46:	c8 01       	movw	r24, r16
    3a48:	b7 01       	movw	r22, r14
    3a4a:	0e 94 37 2b 	call	0x566e	; 0x566e <__divmodsi4>
    3a4e:	da 01       	movw	r26, r20
    3a50:	c9 01       	movw	r24, r18
    3a52:	9c 01       	movw	r18, r24
    3a54:	8a 85       	ldd	r24, Y+10	; 0x0a
    3a56:	9b 85       	ldd	r25, Y+11	; 0x0b
    3a58:	82 0f       	add	r24, r18
    3a5a:	93 1f       	adc	r25, r19
    3a5c:	9c 01       	movw	r18, r24
    3a5e:	8f a1       	ldd	r24, Y+39	; 0x27
    3a60:	98 a5       	ldd	r25, Y+40	; 0x28
    3a62:	fc 01       	movw	r30, r24
    3a64:	37 83       	std	Z+7, r19	; 0x07
    3a66:	26 83       	std	Z+6, r18	; 0x06
					return 1;
    3a68:	f4 c0       	rjmp	.+488    	; 0x3c52 <setTargetTemperature+0x558>
				}
				oldtemp = newtemp;
    3a6a:	8b a1       	ldd	r24, Y+35	; 0x23
    3a6c:	9c a1       	ldd	r25, Y+36	; 0x24
    3a6e:	9d 87       	std	Y+13, r25	; 0x0d
    3a70:	8c 87       	std	Y+12, r24	; 0x0c
				oldraw = newraw;
    3a72:	8e 85       	ldd	r24, Y+14	; 0x0e
    3a74:	9f 85       	ldd	r25, Y+15	; 0x0f
    3a76:	9b 87       	std	Y+11, r25	; 0x0b
    3a78:	8a 87       	std	Y+10, r24	; 0x0a
			uint8_t i=2;
			const short *temptable = (const short *)pgm_read_word(&temptables[type]); //pgm_read_word(&temptables[type]);
			short oldraw = pgm_read_word(&temptable[0]);
			short oldtemp = pgm_read_word(&temptable[1]);
			short newraw,newtemp;
			while(i<num)
    3a7a:	99 85       	ldd	r25, Y+9	; 0x09
    3a7c:	88 a1       	ldd	r24, Y+32	; 0x20
    3a7e:	98 17       	cp	r25, r24
    3a80:	08 f4       	brcc	.+2      	; 0x3a84 <setTargetTemperature+0x38a>
    3a82:	8e cf       	rjmp	.-228    	; 0x39a0 <setTargetTemperature+0x2a6>
				}
				oldtemp = newtemp;
				oldraw = newraw;
			}
			// Overflow: Set to last value in the table
			temperatureCont->targetTemperature = newraw;
    3a84:	8f a1       	ldd	r24, Y+39	; 0x27
    3a86:	98 a5       	ldd	r25, Y+40	; 0x28
    3a88:	2e 85       	ldd	r18, Y+14	; 0x0e
    3a8a:	3f 85       	ldd	r19, Y+15	; 0x0f
    3a8c:	fc 01       	movw	r30, r24
    3a8e:	37 83       	std	Z+7, r19	; 0x07
    3a90:	26 83       	std	Z+6, r18	; 0x06
			break;
    3a92:	df c0       	rjmp	.+446    	; 0x3c52 <setTargetTemperature+0x558>
		}
		case 60: // HEATER_USES_AD8495 (Delivers 5mV/degC)
		temperatureCont->targetTemperature = (int)((int32_t)temp * (1024<<(2-ANALOG_REDUCE_BITS))/ 1000);
    3a94:	89 8d       	ldd	r24, Y+25	; 0x19
    3a96:	9a 8d       	ldd	r25, Y+26	; 0x1a
    3a98:	09 2e       	mov	r0, r25
    3a9a:	00 0c       	add	r0, r0
    3a9c:	aa 0b       	sbc	r26, r26
    3a9e:	bb 0b       	sbc	r27, r27
    3aa0:	07 2e       	mov	r0, r23
    3aa2:	7c e0       	ldi	r23, 0x0C	; 12
    3aa4:	88 0f       	add	r24, r24
    3aa6:	99 1f       	adc	r25, r25
    3aa8:	aa 1f       	adc	r26, r26
    3aaa:	bb 1f       	adc	r27, r27
    3aac:	7a 95       	dec	r23
    3aae:	d1 f7       	brne	.-12     	; 0x3aa4 <setTargetTemperature+0x3aa>
    3ab0:	70 2d       	mov	r23, r0
    3ab2:	28 ee       	ldi	r18, 0xE8	; 232
    3ab4:	33 e0       	ldi	r19, 0x03	; 3
    3ab6:	40 e0       	ldi	r20, 0x00	; 0
    3ab8:	50 e0       	ldi	r21, 0x00	; 0
    3aba:	bc 01       	movw	r22, r24
    3abc:	cd 01       	movw	r24, r26
    3abe:	0e 94 37 2b 	call	0x566e	; 0x566e <__divmodsi4>
    3ac2:	da 01       	movw	r26, r20
    3ac4:	c9 01       	movw	r24, r18
    3ac6:	9c 01       	movw	r18, r24
    3ac8:	8f a1       	ldd	r24, Y+39	; 0x27
    3aca:	98 a5       	ldd	r25, Y+40	; 0x28
    3acc:	fc 01       	movw	r30, r24
    3ace:	37 83       	std	Z+7, r19	; 0x07
    3ad0:	26 83       	std	Z+6, r18	; 0x06
		break;
    3ad2:	bf c0       	rjmp	.+382    	; 0x3c52 <setTargetTemperature+0x558>
		case 100: // HEATER_USES_AD595
		temperatureCont->targetTemperature = (int)((int32_t)temp * (1024<<(2-ANALOG_REDUCE_BITS))/ 500);
    3ad4:	89 8d       	ldd	r24, Y+25	; 0x19
    3ad6:	9a 8d       	ldd	r25, Y+26	; 0x1a
    3ad8:	09 2e       	mov	r0, r25
    3ada:	00 0c       	add	r0, r0
    3adc:	aa 0b       	sbc	r26, r26
    3ade:	bb 0b       	sbc	r27, r27
    3ae0:	07 2e       	mov	r0, r23
    3ae2:	7c e0       	ldi	r23, 0x0C	; 12
    3ae4:	88 0f       	add	r24, r24
    3ae6:	99 1f       	adc	r25, r25
    3ae8:	aa 1f       	adc	r26, r26
    3aea:	bb 1f       	adc	r27, r27
    3aec:	7a 95       	dec	r23
    3aee:	d1 f7       	brne	.-12     	; 0x3ae4 <setTargetTemperature+0x3ea>
    3af0:	70 2d       	mov	r23, r0
    3af2:	24 ef       	ldi	r18, 0xF4	; 244
    3af4:	31 e0       	ldi	r19, 0x01	; 1
    3af6:	40 e0       	ldi	r20, 0x00	; 0
    3af8:	50 e0       	ldi	r21, 0x00	; 0
    3afa:	bc 01       	movw	r22, r24
    3afc:	cd 01       	movw	r24, r26
    3afe:	0e 94 37 2b 	call	0x566e	; 0x566e <__divmodsi4>
    3b02:	da 01       	movw	r26, r20
    3b04:	c9 01       	movw	r24, r18
    3b06:	9c 01       	movw	r18, r24
    3b08:	8f a1       	ldd	r24, Y+39	; 0x27
    3b0a:	98 a5       	ldd	r25, Y+40	; 0x28
    3b0c:	fc 01       	movw	r30, r24
    3b0e:	37 83       	std	Z+7, r19	; 0x07
    3b10:	26 83       	std	Z+6, r18	; 0x06
		break;
    3b12:	9f c0       	rjmp	.+318    	; 0x3c52 <setTargetTemperature+0x558>
		case 97:
		case 98:
		case 99:
		case 203:
		{
			if (type == 203)
    3b14:	89 81       	ldd	r24, Y+1	; 0x01
    3b16:	8b 3c       	cpi	r24, 0xCB	; 203
    3b18:	11 f4       	brne	.+4      	; 0x3b1e <setTargetTemperature+0x424>
			{
				type = 97;
    3b1a:	81 e6       	ldi	r24, 0x61	; 97
    3b1c:	89 83       	std	Y+1, r24	; 0x01
			}
			uint8_t i=2;
    3b1e:	82 e0       	ldi	r24, 0x02	; 2
    3b20:	88 8b       	std	Y+16, r24	; 0x10
			const short *temptable;
			#ifdef USE_GENERIC_THERMISTORTABLE_1
			if(type == 97)
    3b22:	89 81       	ldd	r24, Y+1	; 0x01
    3b24:	81 36       	cpi	r24, 0x61	; 97
    3b26:	21 f4       	brne	.+8      	; 0x3b30 <setTargetTemperature+0x436>
			temptable = (const short *)temptable_generic1;
    3b28:	87 ec       	ldi	r24, 0xC7	; 199
    3b2a:	9a e0       	ldi	r25, 0x0A	; 10
    3b2c:	9a 8b       	std	Y+18, r25	; 0x12
    3b2e:	89 8b       	std	Y+17, r24	; 0x11
			#endif
			short oldraw = temptable[0];
    3b30:	89 89       	ldd	r24, Y+17	; 0x11
    3b32:	9a 89       	ldd	r25, Y+18	; 0x12
    3b34:	fc 01       	movw	r30, r24
    3b36:	80 81       	ld	r24, Z
    3b38:	91 81       	ldd	r25, Z+1	; 0x01
    3b3a:	9c 8b       	std	Y+20, r25	; 0x14
    3b3c:	8b 8b       	std	Y+19, r24	; 0x13
			short oldtemp = temptable[1];
    3b3e:	89 89       	ldd	r24, Y+17	; 0x11
    3b40:	9a 89       	ldd	r25, Y+18	; 0x12
    3b42:	fc 01       	movw	r30, r24
    3b44:	82 81       	ldd	r24, Z+2	; 0x02
    3b46:	93 81       	ldd	r25, Z+3	; 0x03
    3b48:	9e 8b       	std	Y+22, r25	; 0x16
    3b4a:	8d 8b       	std	Y+21, r24	; 0x15
			short newraw,newtemp;
			while(i<GENERIC_THERM_NUM_ENTRIES*2)
    3b4c:	72 c0       	rjmp	.+228    	; 0x3c32 <setTargetTemperature+0x538>
			{
				newraw = temptable[i++];
    3b4e:	88 89       	ldd	r24, Y+16	; 0x10
    3b50:	91 e0       	ldi	r25, 0x01	; 1
    3b52:	98 0f       	add	r25, r24
    3b54:	98 8b       	std	Y+16, r25	; 0x10
    3b56:	88 2f       	mov	r24, r24
    3b58:	90 e0       	ldi	r25, 0x00	; 0
    3b5a:	88 0f       	add	r24, r24
    3b5c:	99 1f       	adc	r25, r25
    3b5e:	29 89       	ldd	r18, Y+17	; 0x11
    3b60:	3a 89       	ldd	r19, Y+18	; 0x12
    3b62:	82 0f       	add	r24, r18
    3b64:	93 1f       	adc	r25, r19
    3b66:	fc 01       	movw	r30, r24
    3b68:	80 81       	ld	r24, Z
    3b6a:	91 81       	ldd	r25, Z+1	; 0x01
    3b6c:	98 8f       	std	Y+24, r25	; 0x18
    3b6e:	8f 8b       	std	Y+23, r24	; 0x17
				newtemp = temptable[i++];
    3b70:	88 89       	ldd	r24, Y+16	; 0x10
    3b72:	91 e0       	ldi	r25, 0x01	; 1
    3b74:	98 0f       	add	r25, r24
    3b76:	98 8b       	std	Y+16, r25	; 0x10
    3b78:	88 2f       	mov	r24, r24
    3b7a:	90 e0       	ldi	r25, 0x00	; 0
    3b7c:	88 0f       	add	r24, r24
    3b7e:	99 1f       	adc	r25, r25
    3b80:	29 89       	ldd	r18, Y+17	; 0x11
    3b82:	3a 89       	ldd	r19, Y+18	; 0x12
    3b84:	82 0f       	add	r24, r18
    3b86:	93 1f       	adc	r25, r19
    3b88:	fc 01       	movw	r30, r24
    3b8a:	80 81       	ld	r24, Z
    3b8c:	91 81       	ldd	r25, Z+1	; 0x01
    3b8e:	9e a3       	std	Y+38, r25	; 0x26
    3b90:	8d a3       	std	Y+37, r24	; 0x25
				if (newtemp < temp)
    3b92:	2d a1       	ldd	r18, Y+37	; 0x25
    3b94:	3e a1       	ldd	r19, Y+38	; 0x26
    3b96:	89 8d       	ldd	r24, Y+25	; 0x19
    3b98:	9a 8d       	ldd	r25, Y+26	; 0x1a
    3b9a:	28 17       	cp	r18, r24
    3b9c:	39 07       	cpc	r19, r25
    3b9e:	0c f0       	brlt	.+2      	; 0x3ba2 <setTargetTemperature+0x4a8>
    3ba0:	40 c0       	rjmp	.+128    	; 0x3c22 <setTargetTemperature+0x528>
				{
					temperatureCont->targetTemperature = (1023<<(2-ANALOG_REDUCE_BITS))- oldraw + (int32_t)(oldtemp-temp)*(int32_t)(oldraw-newraw)/(oldtemp-newtemp);
    3ba2:	2d 89       	ldd	r18, Y+21	; 0x15
    3ba4:	3e 89       	ldd	r19, Y+22	; 0x16
    3ba6:	89 8d       	ldd	r24, Y+25	; 0x19
    3ba8:	9a 8d       	ldd	r25, Y+26	; 0x1a
    3baa:	a9 01       	movw	r20, r18
    3bac:	48 1b       	sub	r20, r24
    3bae:	59 0b       	sbc	r21, r25
    3bb0:	ca 01       	movw	r24, r20
    3bb2:	9c 01       	movw	r18, r24
    3bb4:	99 0f       	add	r25, r25
    3bb6:	44 0b       	sbc	r20, r20
    3bb8:	55 0b       	sbc	r21, r21
    3bba:	6b 89       	ldd	r22, Y+19	; 0x13
    3bbc:	7c 89       	ldd	r23, Y+20	; 0x14
    3bbe:	8f 89       	ldd	r24, Y+23	; 0x17
    3bc0:	98 8d       	ldd	r25, Y+24	; 0x18
    3bc2:	fb 01       	movw	r30, r22
    3bc4:	e8 1b       	sub	r30, r24
    3bc6:	f9 0b       	sbc	r31, r25
    3bc8:	cf 01       	movw	r24, r30
    3bca:	09 2e       	mov	r0, r25
    3bcc:	00 0c       	add	r0, r0
    3bce:	aa 0b       	sbc	r26, r26
    3bd0:	bb 0b       	sbc	r27, r27
    3bd2:	bc 01       	movw	r22, r24
    3bd4:	cd 01       	movw	r24, r26
    3bd6:	0e 94 06 2b 	call	0x560c	; 0x560c <__mulsi3>
    3bda:	7b 01       	movw	r14, r22
    3bdc:	8c 01       	movw	r16, r24
    3bde:	2d 89       	ldd	r18, Y+21	; 0x15
    3be0:	3e 89       	ldd	r19, Y+22	; 0x16
    3be2:	8d a1       	ldd	r24, Y+37	; 0x25
    3be4:	9e a1       	ldd	r25, Y+38	; 0x26
    3be6:	a9 01       	movw	r20, r18
    3be8:	48 1b       	sub	r20, r24
    3bea:	59 0b       	sbc	r21, r25
    3bec:	ca 01       	movw	r24, r20
    3bee:	9c 01       	movw	r18, r24
    3bf0:	99 0f       	add	r25, r25
    3bf2:	44 0b       	sbc	r20, r20
    3bf4:	55 0b       	sbc	r21, r21
    3bf6:	c8 01       	movw	r24, r16
    3bf8:	b7 01       	movw	r22, r14
    3bfa:	0e 94 37 2b 	call	0x566e	; 0x566e <__divmodsi4>
    3bfe:	da 01       	movw	r26, r20
    3c00:	c9 01       	movw	r24, r18
    3c02:	9c 01       	movw	r18, r24
    3c04:	8b 89       	ldd	r24, Y+19	; 0x13
    3c06:	9c 89       	ldd	r25, Y+20	; 0x14
    3c08:	f9 01       	movw	r30, r18
    3c0a:	e8 1b       	sub	r30, r24
    3c0c:	f9 0b       	sbc	r31, r25
    3c0e:	cf 01       	movw	r24, r30
    3c10:	84 50       	subi	r24, 0x04	; 4
    3c12:	90 4f       	sbci	r25, 0xF0	; 240
    3c14:	9c 01       	movw	r18, r24
    3c16:	8f a1       	ldd	r24, Y+39	; 0x27
    3c18:	98 a5       	ldd	r25, Y+40	; 0x28
    3c1a:	fc 01       	movw	r30, r24
    3c1c:	37 83       	std	Z+7, r19	; 0x07
    3c1e:	26 83       	std	Z+6, r18	; 0x06
					return 1;
    3c20:	18 c0       	rjmp	.+48     	; 0x3c52 <setTargetTemperature+0x558>
				}
				oldtemp = newtemp;
    3c22:	8d a1       	ldd	r24, Y+37	; 0x25
    3c24:	9e a1       	ldd	r25, Y+38	; 0x26
    3c26:	9e 8b       	std	Y+22, r25	; 0x16
    3c28:	8d 8b       	std	Y+21, r24	; 0x15
				oldraw = newraw;
    3c2a:	8f 89       	ldd	r24, Y+23	; 0x17
    3c2c:	98 8d       	ldd	r25, Y+24	; 0x18
    3c2e:	9c 8b       	std	Y+20, r25	; 0x14
    3c30:	8b 8b       	std	Y+19, r24	; 0x13
			temptable = (const short *)temptable_generic1;
			#endif
			short oldraw = temptable[0];
			short oldtemp = temptable[1];
			short newraw,newtemp;
			while(i<GENERIC_THERM_NUM_ENTRIES*2)
    3c32:	88 89       	ldd	r24, Y+16	; 0x10
    3c34:	82 34       	cpi	r24, 0x42	; 66
    3c36:	08 f4       	brcc	.+2      	; 0x3c3a <setTargetTemperature+0x540>
    3c38:	8a cf       	rjmp	.-236    	; 0x3b4e <setTargetTemperature+0x454>
				}
				oldtemp = newtemp;
				oldraw = newraw;
			}
			// Overflow: Set to last value in the table
			temperatureCont->targetTemperature = (1023<<(2-ANALOG_REDUCE_BITS))-newraw;
    3c3a:	2c ef       	ldi	r18, 0xFC	; 252
    3c3c:	3f e0       	ldi	r19, 0x0F	; 15
    3c3e:	8f 89       	ldd	r24, Y+23	; 0x17
    3c40:	98 8d       	ldd	r25, Y+24	; 0x18
    3c42:	28 1b       	sub	r18, r24
    3c44:	39 0b       	sbc	r19, r25
    3c46:	8f a1       	ldd	r24, Y+39	; 0x27
    3c48:	98 a5       	ldd	r25, Y+40	; 0x28
    3c4a:	fc 01       	movw	r30, r24
    3c4c:	37 83       	std	Z+7, r19	; 0x07
    3c4e:	26 83       	std	Z+6, r18	; 0x06
			break;
    3c50:	00 00       	nop
		}
	}
}
    3c52:	ee 96       	adiw	r28, 0x3e	; 62
    3c54:	0f b6       	in	r0, 0x3f	; 63
    3c56:	f8 94       	cli
    3c58:	de bf       	out	0x3e, r29	; 62
    3c5a:	0f be       	out	0x3f, r0	; 63
    3c5c:	cd bf       	out	0x3d, r28	; 61
    3c5e:	df 91       	pop	r29
    3c60:	cf 91       	pop	r28
    3c62:	1f 91       	pop	r17
    3c64:	0f 91       	pop	r16
    3c66:	ff 90       	pop	r15
    3c68:	ef 90       	pop	r14
    3c6a:	08 95       	ret

00003c6c <initTensometer>:
#include "Pins.h"
#include <util/delay.h>

Ttensometer tensometer[TENSOMETER_NUMBER];

void initTensometer(){
    3c6c:	cf 93       	push	r28
    3c6e:	df 93       	push	r29
    3c70:	cd b7       	in	r28, 0x3d	; 61
    3c72:	de b7       	in	r29, 0x3e	; 62
    3c74:	60 97       	sbiw	r28, 0x10	; 16
    3c76:	0f b6       	in	r0, 0x3f	; 63
    3c78:	f8 94       	cli
    3c7a:	de bf       	out	0x3e, r29	; 62
    3c7c:	0f be       	out	0x3f, r0	; 63
    3c7e:	cd bf       	out	0x3d, r28	; 61
	PIN_OUT(ADS_A0_PIN);
    3c80:	87 e0       	ldi	r24, 0x07	; 7
    3c82:	91 e0       	ldi	r25, 0x01	; 1
    3c84:	27 e0       	ldi	r18, 0x07	; 7
    3c86:	31 e0       	ldi	r19, 0x01	; 1
    3c88:	f9 01       	movw	r30, r18
    3c8a:	20 81       	ld	r18, Z
    3c8c:	20 62       	ori	r18, 0x20	; 32
    3c8e:	fc 01       	movw	r30, r24
    3c90:	20 83       	st	Z, r18
	ADS_A0_LOW;
    3c92:	88 e0       	ldi	r24, 0x08	; 8
    3c94:	91 e0       	ldi	r25, 0x01	; 1
    3c96:	28 e0       	ldi	r18, 0x08	; 8
    3c98:	31 e0       	ldi	r19, 0x01	; 1
    3c9a:	f9 01       	movw	r30, r18
    3c9c:	20 81       	ld	r18, Z
    3c9e:	2f 7d       	andi	r18, 0xDF	; 223
    3ca0:	fc 01       	movw	r30, r24
    3ca2:	20 83       	st	Z, r18
	
	PIN_OUT(ADS_SCLK_PIN);
    3ca4:	87 e0       	ldi	r24, 0x07	; 7
    3ca6:	91 e0       	ldi	r25, 0x01	; 1
    3ca8:	27 e0       	ldi	r18, 0x07	; 7
    3caa:	31 e0       	ldi	r19, 0x01	; 1
    3cac:	f9 01       	movw	r30, r18
    3cae:	20 81       	ld	r18, Z
    3cb0:	28 60       	ori	r18, 0x08	; 8
    3cb2:	fc 01       	movw	r30, r24
    3cb4:	20 83       	st	Z, r18
	ADS_SCLK_LOW;
    3cb6:	88 e0       	ldi	r24, 0x08	; 8
    3cb8:	91 e0       	ldi	r25, 0x01	; 1
    3cba:	28 e0       	ldi	r18, 0x08	; 8
    3cbc:	31 e0       	ldi	r19, 0x01	; 1
    3cbe:	f9 01       	movw	r30, r18
    3cc0:	20 81       	ld	r18, Z
    3cc2:	27 7f       	andi	r18, 0xF7	; 247
    3cc4:	fc 01       	movw	r30, r24
    3cc6:	20 83       	st	Z, r18
	
	PIN_IN(ADS_DRDY_PIN);
    3cc8:	87 e0       	ldi	r24, 0x07	; 7
    3cca:	91 e0       	ldi	r25, 0x01	; 1
    3ccc:	27 e0       	ldi	r18, 0x07	; 7
    3cce:	31 e0       	ldi	r19, 0x01	; 1
    3cd0:	f9 01       	movw	r30, r18
    3cd2:	20 81       	ld	r18, Z
    3cd4:	2f 7e       	andi	r18, 0xEF	; 239
    3cd6:	fc 01       	movw	r30, r24
    3cd8:	20 83       	st	Z, r18
	ADS_DRDY_LOW;
    3cda:	88 e0       	ldi	r24, 0x08	; 8
    3cdc:	91 e0       	ldi	r25, 0x01	; 1
    3cde:	28 e0       	ldi	r18, 0x08	; 8
    3ce0:	31 e0       	ldi	r19, 0x01	; 1
    3ce2:	f9 01       	movw	r30, r18
    3ce4:	20 81       	ld	r18, Z
    3ce6:	2f 7e       	andi	r18, 0xEF	; 239
    3ce8:	fc 01       	movw	r30, r24
    3cea:	20 83       	st	Z, r18
	
	PIN_OUT(ADS_PDWN_PIN);
    3cec:	87 e0       	ldi	r24, 0x07	; 7
    3cee:	91 e0       	ldi	r25, 0x01	; 1
    3cf0:	27 e0       	ldi	r18, 0x07	; 7
    3cf2:	31 e0       	ldi	r19, 0x01	; 1
    3cf4:	f9 01       	movw	r30, r18
    3cf6:	20 81       	ld	r18, Z
    3cf8:	24 60       	ori	r18, 0x04	; 4
    3cfa:	fc 01       	movw	r30, r24
    3cfc:	20 83       	st	Z, r18
	ADS_PDWN_LOW;
    3cfe:	88 e0       	ldi	r24, 0x08	; 8
    3d00:	91 e0       	ldi	r25, 0x01	; 1
    3d02:	28 e0       	ldi	r18, 0x08	; 8
    3d04:	31 e0       	ldi	r19, 0x01	; 1
    3d06:	f9 01       	movw	r30, r18
    3d08:	20 81       	ld	r18, Z
    3d0a:	2b 7f       	andi	r18, 0xFB	; 251
    3d0c:	fc 01       	movw	r30, r24
    3d0e:	20 83       	st	Z, r18
	
	for (int i =0;i<TENSOMETER_NUMBER;i++)
    3d10:	1a 82       	std	Y+2, r1	; 0x02
    3d12:	19 82       	std	Y+1, r1	; 0x01
    3d14:	4a c0       	rjmp	.+148    	; 0x3daa <initTensometer+0x13e>
	{
		get_roll_weight(i);
    3d16:	89 81       	ldd	r24, Y+1	; 0x01
    3d18:	0e 94 d1 28 	call	0x51a2	; 0x51a2 <get_roll_weight>
		tensometer[i].RAW_Value = 0;
    3d1c:	29 81       	ldd	r18, Y+1	; 0x01
    3d1e:	3a 81       	ldd	r19, Y+2	; 0x02
    3d20:	4f e0       	ldi	r20, 0x0F	; 15
    3d22:	42 9f       	mul	r20, r18
    3d24:	c0 01       	movw	r24, r0
    3d26:	43 9f       	mul	r20, r19
    3d28:	90 0d       	add	r25, r0
    3d2a:	11 24       	eor	r1, r1
    3d2c:	8e 5a       	subi	r24, 0xAE	; 174
    3d2e:	94 4f       	sbci	r25, 0xF4	; 244
    3d30:	fc 01       	movw	r30, r24
    3d32:	11 82       	std	Z+1, r1	; 0x01
    3d34:	10 82       	st	Z, r1
		tensometer[i].filamentWeight = 0;
    3d36:	29 81       	ldd	r18, Y+1	; 0x01
    3d38:	3a 81       	ldd	r19, Y+2	; 0x02
    3d3a:	4f e0       	ldi	r20, 0x0F	; 15
    3d3c:	42 9f       	mul	r20, r18
    3d3e:	c0 01       	movw	r24, r0
    3d40:	43 9f       	mul	r20, r19
    3d42:	90 0d       	add	r25, r0
    3d44:	11 24       	eor	r1, r1
    3d46:	88 5a       	subi	r24, 0xA8	; 168
    3d48:	94 4f       	sbci	r25, 0xF4	; 244
    3d4a:	fc 01       	movw	r30, r24
    3d4c:	11 82       	std	Z+1, r1	; 0x01
    3d4e:	10 82       	st	Z, r1
		tensometer[i].weight = 0;
    3d50:	29 81       	ldd	r18, Y+1	; 0x01
    3d52:	3a 81       	ldd	r19, Y+2	; 0x02
    3d54:	4f e0       	ldi	r20, 0x0F	; 15
    3d56:	42 9f       	mul	r20, r18
    3d58:	c0 01       	movw	r24, r0
    3d5a:	43 9f       	mul	r20, r19
    3d5c:	90 0d       	add	r25, r0
    3d5e:	11 24       	eor	r1, r1
    3d60:	8c 5a       	subi	r24, 0xAC	; 172
    3d62:	94 4f       	sbci	r25, 0xF4	; 244
    3d64:	fc 01       	movw	r30, r24
    3d66:	11 82       	std	Z+1, r1	; 0x01
    3d68:	10 82       	st	Z, r1
		tensometer[i].numberConversion=0;
    3d6a:	29 81       	ldd	r18, Y+1	; 0x01
    3d6c:	3a 81       	ldd	r19, Y+2	; 0x02
    3d6e:	4f e0       	ldi	r20, 0x0F	; 15
    3d70:	42 9f       	mul	r20, r18
    3d72:	c0 01       	movw	r24, r0
    3d74:	43 9f       	mul	r20, r19
    3d76:	90 0d       	add	r25, r0
    3d78:	11 24       	eor	r1, r1
    3d7a:	84 5a       	subi	r24, 0xA4	; 164
    3d7c:	94 4f       	sbci	r25, 0xF4	; 244
    3d7e:	fc 01       	movw	r30, r24
    3d80:	10 82       	st	Z, r1
		tensometer[i].tempPreCalculateMeasure=0;
    3d82:	29 81       	ldd	r18, Y+1	; 0x01
    3d84:	3a 81       	ldd	r19, Y+2	; 0x02
    3d86:	4f e0       	ldi	r20, 0x0F	; 15
    3d88:	42 9f       	mul	r20, r18
    3d8a:	c0 01       	movw	r24, r0
    3d8c:	43 9f       	mul	r20, r19
    3d8e:	90 0d       	add	r25, r0
    3d90:	11 24       	eor	r1, r1
    3d92:	83 5a       	subi	r24, 0xA3	; 163
    3d94:	94 4f       	sbci	r25, 0xF4	; 244
    3d96:	fc 01       	movw	r30, r24
    3d98:	10 82       	st	Z, r1
    3d9a:	11 82       	std	Z+1, r1	; 0x01
    3d9c:	12 82       	std	Z+2, r1	; 0x02
    3d9e:	13 82       	std	Z+3, r1	; 0x03
	ADS_DRDY_LOW;
	
	PIN_OUT(ADS_PDWN_PIN);
	ADS_PDWN_LOW;
	
	for (int i =0;i<TENSOMETER_NUMBER;i++)
    3da0:	89 81       	ldd	r24, Y+1	; 0x01
    3da2:	9a 81       	ldd	r25, Y+2	; 0x02
    3da4:	01 96       	adiw	r24, 0x01	; 1
    3da6:	9a 83       	std	Y+2, r25	; 0x02
    3da8:	89 83       	std	Y+1, r24	; 0x01
    3daa:	89 81       	ldd	r24, Y+1	; 0x01
    3dac:	9a 81       	ldd	r25, Y+2	; 0x02
    3dae:	02 97       	sbiw	r24, 0x02	; 2
    3db0:	0c f4       	brge	.+2      	; 0x3db4 <initTensometer+0x148>
    3db2:	b1 cf       	rjmp	.-158    	; 0x3d16 <initTensometer+0xaa>
		tensometer[i].weight = 0;
		tensometer[i].numberConversion=0;
		tensometer[i].tempPreCalculateMeasure=0;
	}
	
	ADS_PDWN_LOW;
    3db4:	88 e0       	ldi	r24, 0x08	; 8
    3db6:	91 e0       	ldi	r25, 0x01	; 1
    3db8:	28 e0       	ldi	r18, 0x08	; 8
    3dba:	31 e0       	ldi	r19, 0x01	; 1
    3dbc:	f9 01       	movw	r30, r18
    3dbe:	20 81       	ld	r18, Z
    3dc0:	2b 7f       	andi	r18, 0xFB	; 251
    3dc2:	fc 01       	movw	r30, r24
    3dc4:	20 83       	st	Z, r18
    3dc6:	80 e0       	ldi	r24, 0x00	; 0
    3dc8:	90 e0       	ldi	r25, 0x00	; 0
    3dca:	a0 e2       	ldi	r26, 0x20	; 32
    3dcc:	b1 e4       	ldi	r27, 0x41	; 65
    3dce:	8b 83       	std	Y+3, r24	; 0x03
    3dd0:	9c 83       	std	Y+4, r25	; 0x04
    3dd2:	ad 83       	std	Y+5, r26	; 0x05
    3dd4:	be 83       	std	Y+6, r27	; 0x06

	__builtin_avr_delay_cycles(__ticks_dc);

#else
	uint16_t __ticks;
	__tmp = ((F_CPU) / 4e3) * __ms;
    3dd6:	20 e0       	ldi	r18, 0x00	; 0
    3dd8:	30 e0       	ldi	r19, 0x00	; 0
    3dda:	4a e7       	ldi	r20, 0x7A	; 122
    3ddc:	55 e4       	ldi	r21, 0x45	; 69
    3dde:	6b 81       	ldd	r22, Y+3	; 0x03
    3de0:	7c 81       	ldd	r23, Y+4	; 0x04
    3de2:	8d 81       	ldd	r24, Y+5	; 0x05
    3de4:	9e 81       	ldd	r25, Y+6	; 0x06
    3de6:	0e 94 a3 2a 	call	0x5546	; 0x5546 <__mulsf3>
    3dea:	dc 01       	movw	r26, r24
    3dec:	cb 01       	movw	r24, r22
    3dee:	8f 83       	std	Y+7, r24	; 0x07
    3df0:	98 87       	std	Y+8, r25	; 0x08
    3df2:	a9 87       	std	Y+9, r26	; 0x09
    3df4:	ba 87       	std	Y+10, r27	; 0x0a
	if (__tmp < 1.0)
    3df6:	20 e0       	ldi	r18, 0x00	; 0
    3df8:	30 e0       	ldi	r19, 0x00	; 0
    3dfa:	40 e8       	ldi	r20, 0x80	; 128
    3dfc:	5f e3       	ldi	r21, 0x3F	; 63
    3dfe:	6f 81       	ldd	r22, Y+7	; 0x07
    3e00:	78 85       	ldd	r23, Y+8	; 0x08
    3e02:	89 85       	ldd	r24, Y+9	; 0x09
    3e04:	9a 85       	ldd	r25, Y+10	; 0x0a
    3e06:	0e 94 50 29 	call	0x52a0	; 0x52a0 <__cmpsf2>
    3e0a:	88 23       	and	r24, r24
    3e0c:	2c f4       	brge	.+10     	; 0x3e18 <initTensometer+0x1ac>
		__ticks = 1;
    3e0e:	81 e0       	ldi	r24, 0x01	; 1
    3e10:	90 e0       	ldi	r25, 0x00	; 0
    3e12:	9c 87       	std	Y+12, r25	; 0x0c
    3e14:	8b 87       	std	Y+11, r24	; 0x0b
    3e16:	3f c0       	rjmp	.+126    	; 0x3e96 <initTensometer+0x22a>
	else if (__tmp > 65535)
    3e18:	20 e0       	ldi	r18, 0x00	; 0
    3e1a:	3f ef       	ldi	r19, 0xFF	; 255
    3e1c:	4f e7       	ldi	r20, 0x7F	; 127
    3e1e:	57 e4       	ldi	r21, 0x47	; 71
    3e20:	6f 81       	ldd	r22, Y+7	; 0x07
    3e22:	78 85       	ldd	r23, Y+8	; 0x08
    3e24:	89 85       	ldd	r24, Y+9	; 0x09
    3e26:	9a 85       	ldd	r25, Y+10	; 0x0a
    3e28:	0e 94 9f 2a 	call	0x553e	; 0x553e <__gesf2>
    3e2c:	18 16       	cp	r1, r24
    3e2e:	4c f5       	brge	.+82     	; 0x3e82 <initTensometer+0x216>
	{
		//	__ticks = requested delay in 1/10 ms
		__ticks = (uint16_t) (__ms * 10.0);
    3e30:	20 e0       	ldi	r18, 0x00	; 0
    3e32:	30 e0       	ldi	r19, 0x00	; 0
    3e34:	40 e2       	ldi	r20, 0x20	; 32
    3e36:	51 e4       	ldi	r21, 0x41	; 65
    3e38:	6b 81       	ldd	r22, Y+3	; 0x03
    3e3a:	7c 81       	ldd	r23, Y+4	; 0x04
    3e3c:	8d 81       	ldd	r24, Y+5	; 0x05
    3e3e:	9e 81       	ldd	r25, Y+6	; 0x06
    3e40:	0e 94 a3 2a 	call	0x5546	; 0x5546 <__mulsf3>
    3e44:	dc 01       	movw	r26, r24
    3e46:	cb 01       	movw	r24, r22
    3e48:	bc 01       	movw	r22, r24
    3e4a:	cd 01       	movw	r24, r26
    3e4c:	0e 94 c1 29 	call	0x5382	; 0x5382 <__fixunssfsi>
    3e50:	dc 01       	movw	r26, r24
    3e52:	cb 01       	movw	r24, r22
    3e54:	9c 87       	std	Y+12, r25	; 0x0c
    3e56:	8b 87       	std	Y+11, r24	; 0x0b
    3e58:	0f c0       	rjmp	.+30     	; 0x3e78 <initTensometer+0x20c>
    3e5a:	80 e9       	ldi	r24, 0x90	; 144
    3e5c:	91 e0       	ldi	r25, 0x01	; 1
    3e5e:	9e 87       	std	Y+14, r25	; 0x0e
    3e60:	8d 87       	std	Y+13, r24	; 0x0d
    milliseconds can be achieved.
 */
void
_delay_loop_2(uint16_t __count)
{
	__asm__ volatile (
    3e62:	8d 85       	ldd	r24, Y+13	; 0x0d
    3e64:	9e 85       	ldd	r25, Y+14	; 0x0e
    3e66:	01 97       	sbiw	r24, 0x01	; 1
    3e68:	f1 f7       	brne	.-4      	; 0x3e66 <initTensometer+0x1fa>
    3e6a:	9e 87       	std	Y+14, r25	; 0x0e
    3e6c:	8d 87       	std	Y+13, r24	; 0x0d
		while(__ticks)
		{
			// wait 1/10 ms
			_delay_loop_2(((F_CPU) / 4e3) / 10);
			__ticks --;
    3e6e:	8b 85       	ldd	r24, Y+11	; 0x0b
    3e70:	9c 85       	ldd	r25, Y+12	; 0x0c
    3e72:	01 97       	sbiw	r24, 0x01	; 1
    3e74:	9c 87       	std	Y+12, r25	; 0x0c
    3e76:	8b 87       	std	Y+11, r24	; 0x0b
		__ticks = 1;
	else if (__tmp > 65535)
	{
		//	__ticks = requested delay in 1/10 ms
		__ticks = (uint16_t) (__ms * 10.0);
		while(__ticks)
    3e78:	8b 85       	ldd	r24, Y+11	; 0x0b
    3e7a:	9c 85       	ldd	r25, Y+12	; 0x0c
    3e7c:	89 2b       	or	r24, r25
    3e7e:	69 f7       	brne	.-38     	; 0x3e5a <initTensometer+0x1ee>
    3e80:	14 c0       	rjmp	.+40     	; 0x3eaa <initTensometer+0x23e>
			__ticks --;
		}
		return;
	}
	else
		__ticks = (uint16_t)__tmp;
    3e82:	6f 81       	ldd	r22, Y+7	; 0x07
    3e84:	78 85       	ldd	r23, Y+8	; 0x08
    3e86:	89 85       	ldd	r24, Y+9	; 0x09
    3e88:	9a 85       	ldd	r25, Y+10	; 0x0a
    3e8a:	0e 94 c1 29 	call	0x5382	; 0x5382 <__fixunssfsi>
    3e8e:	dc 01       	movw	r26, r24
    3e90:	cb 01       	movw	r24, r22
    3e92:	9c 87       	std	Y+12, r25	; 0x0c
    3e94:	8b 87       	std	Y+11, r24	; 0x0b
    3e96:	8b 85       	ldd	r24, Y+11	; 0x0b
    3e98:	9c 85       	ldd	r25, Y+12	; 0x0c
    3e9a:	98 8b       	std	Y+16, r25	; 0x10
    3e9c:	8f 87       	std	Y+15, r24	; 0x0f
    3e9e:	8f 85       	ldd	r24, Y+15	; 0x0f
    3ea0:	98 89       	ldd	r25, Y+16	; 0x10
    3ea2:	01 97       	sbiw	r24, 0x01	; 1
    3ea4:	f1 f7       	brne	.-4      	; 0x3ea2 <initTensometer+0x236>
    3ea6:	98 8b       	std	Y+16, r25	; 0x10
    3ea8:	8f 87       	std	Y+15, r24	; 0x0f
	_delay_ms(10);
	ADS_PDWN_HIGH; // ADS ON
    3eaa:	88 e0       	ldi	r24, 0x08	; 8
    3eac:	91 e0       	ldi	r25, 0x01	; 1
    3eae:	28 e0       	ldi	r18, 0x08	; 8
    3eb0:	31 e0       	ldi	r19, 0x01	; 1
    3eb2:	f9 01       	movw	r30, r18
    3eb4:	20 81       	ld	r18, Z
    3eb6:	24 60       	ori	r18, 0x04	; 4
    3eb8:	fc 01       	movw	r30, r24
    3eba:	20 83       	st	Z, r18
	
	ADS_A0_LOW;
    3ebc:	88 e0       	ldi	r24, 0x08	; 8
    3ebe:	91 e0       	ldi	r25, 0x01	; 1
    3ec0:	28 e0       	ldi	r18, 0x08	; 8
    3ec2:	31 e0       	ldi	r19, 0x01	; 1
    3ec4:	f9 01       	movw	r30, r18
    3ec6:	20 81       	ld	r18, Z
    3ec8:	2f 7d       	andi	r18, 0xDF	; 223
    3eca:	fc 01       	movw	r30, r24
    3ecc:	20 83       	st	Z, r18
}
    3ece:	60 96       	adiw	r28, 0x10	; 16
    3ed0:	0f b6       	in	r0, 0x3f	; 63
    3ed2:	f8 94       	cli
    3ed4:	de bf       	out	0x3e, r29	; 62
    3ed6:	0f be       	out	0x3f, r0	; 63
    3ed8:	cd bf       	out	0x3d, r28	; 61
    3eda:	df 91       	pop	r29
    3edc:	cf 91       	pop	r28
    3ede:	08 95       	ret

00003ee0 <offset_calibration>:

void offset_calibration(void)
{
    3ee0:	0f 93       	push	r16
    3ee2:	1f 93       	push	r17
    3ee4:	cf 93       	push	r28
    3ee6:	df 93       	push	r29
    3ee8:	cd b7       	in	r28, 0x3d	; 61
    3eea:	de b7       	in	r29, 0x3e	; 62
    3eec:	c1 55       	subi	r28, 0x51	; 81
    3eee:	d1 09       	sbc	r29, r1
    3ef0:	0f b6       	in	r0, 0x3f	; 63
    3ef2:	f8 94       	cli
    3ef4:	de bf       	out	0x3e, r29	; 62
    3ef6:	0f be       	out	0x3f, r0	; 63
    3ef8:	cd bf       	out	0x3d, r28	; 61
	for(uint8_t i=0; i<26; i++)
    3efa:	19 82       	std	Y+1, r1	; 0x01
    3efc:	1c c2       	rjmp	.+1080   	; 0x4336 <offset_calibration+0x456>
	{
		ADS_SCLK_HIGH;
    3efe:	88 e0       	ldi	r24, 0x08	; 8
    3f00:	91 e0       	ldi	r25, 0x01	; 1
    3f02:	28 e0       	ldi	r18, 0x08	; 8
    3f04:	31 e0       	ldi	r19, 0x01	; 1
    3f06:	f9 01       	movw	r30, r18
    3f08:	20 81       	ld	r18, Z
    3f0a:	28 60       	ori	r18, 0x08	; 8
    3f0c:	fc 01       	movw	r30, r24
    3f0e:	20 83       	st	Z, r18
    3f10:	80 e0       	ldi	r24, 0x00	; 0
    3f12:	90 e0       	ldi	r25, 0x00	; 0
    3f14:	a0 e0       	ldi	r26, 0x00	; 0
    3f16:	b0 e4       	ldi	r27, 0x40	; 64
    3f18:	8a 83       	std	Y+2, r24	; 0x02
    3f1a:	9b 83       	std	Y+3, r25	; 0x03
    3f1c:	ac 83       	std	Y+4, r26	; 0x04
    3f1e:	bd 83       	std	Y+5, r27	; 0x05
	__builtin_avr_delay_cycles(__ticks_dc);

#else
	uint8_t __ticks;
	double __tmp2 ;
	__tmp = ((F_CPU) / 3e6) * __us;
    3f20:	2b ea       	ldi	r18, 0xAB	; 171
    3f22:	3a ea       	ldi	r19, 0xAA	; 170
    3f24:	4a ea       	ldi	r20, 0xAA	; 170
    3f26:	50 e4       	ldi	r21, 0x40	; 64
    3f28:	6a 81       	ldd	r22, Y+2	; 0x02
    3f2a:	7b 81       	ldd	r23, Y+3	; 0x03
    3f2c:	8c 81       	ldd	r24, Y+4	; 0x04
    3f2e:	9d 81       	ldd	r25, Y+5	; 0x05
    3f30:	0e 94 a3 2a 	call	0x5546	; 0x5546 <__mulsf3>
    3f34:	dc 01       	movw	r26, r24
    3f36:	cb 01       	movw	r24, r22
    3f38:	8e 83       	std	Y+6, r24	; 0x06
    3f3a:	9f 83       	std	Y+7, r25	; 0x07
    3f3c:	a8 87       	std	Y+8, r26	; 0x08
    3f3e:	b9 87       	std	Y+9, r27	; 0x09
	__tmp2 = ((F_CPU) / 4e6) * __us;
    3f40:	20 e0       	ldi	r18, 0x00	; 0
    3f42:	30 e0       	ldi	r19, 0x00	; 0
    3f44:	40 e8       	ldi	r20, 0x80	; 128
    3f46:	50 e4       	ldi	r21, 0x40	; 64
    3f48:	6a 81       	ldd	r22, Y+2	; 0x02
    3f4a:	7b 81       	ldd	r23, Y+3	; 0x03
    3f4c:	8c 81       	ldd	r24, Y+4	; 0x04
    3f4e:	9d 81       	ldd	r25, Y+5	; 0x05
    3f50:	0e 94 a3 2a 	call	0x5546	; 0x5546 <__mulsf3>
    3f54:	dc 01       	movw	r26, r24
    3f56:	cb 01       	movw	r24, r22
    3f58:	8a 87       	std	Y+10, r24	; 0x0a
    3f5a:	9b 87       	std	Y+11, r25	; 0x0b
    3f5c:	ac 87       	std	Y+12, r26	; 0x0c
    3f5e:	bd 87       	std	Y+13, r27	; 0x0d
	if (__tmp < 1.0)
    3f60:	20 e0       	ldi	r18, 0x00	; 0
    3f62:	30 e0       	ldi	r19, 0x00	; 0
    3f64:	40 e8       	ldi	r20, 0x80	; 128
    3f66:	5f e3       	ldi	r21, 0x3F	; 63
    3f68:	6e 81       	ldd	r22, Y+6	; 0x06
    3f6a:	7f 81       	ldd	r23, Y+7	; 0x07
    3f6c:	88 85       	ldd	r24, Y+8	; 0x08
    3f6e:	99 85       	ldd	r25, Y+9	; 0x09
    3f70:	0e 94 50 29 	call	0x52a0	; 0x52a0 <__cmpsf2>
    3f74:	88 23       	and	r24, r24
    3f76:	1c f4       	brge	.+6      	; 0x3f7e <offset_calibration+0x9e>
		__ticks = 1;
    3f78:	81 e0       	ldi	r24, 0x01	; 1
    3f7a:	8e 87       	std	Y+14, r24	; 0x0e
    3f7c:	b6 c0       	rjmp	.+364    	; 0x40ea <offset_calibration+0x20a>
	else if (__tmp2 > 65535)
    3f7e:	20 e0       	ldi	r18, 0x00	; 0
    3f80:	3f ef       	ldi	r19, 0xFF	; 255
    3f82:	4f e7       	ldi	r20, 0x7F	; 127
    3f84:	57 e4       	ldi	r21, 0x47	; 71
    3f86:	6a 85       	ldd	r22, Y+10	; 0x0a
    3f88:	7b 85       	ldd	r23, Y+11	; 0x0b
    3f8a:	8c 85       	ldd	r24, Y+12	; 0x0c
    3f8c:	9d 85       	ldd	r25, Y+13	; 0x0d
    3f8e:	0e 94 9f 2a 	call	0x553e	; 0x553e <__gesf2>
    3f92:	18 16       	cp	r1, r24
    3f94:	0c f0       	brlt	.+2      	; 0x3f98 <offset_calibration+0xb8>
    3f96:	7f c0       	rjmp	.+254    	; 0x4096 <offset_calibration+0x1b6>
	{
		_delay_ms(__us / 1000.0);
    3f98:	20 e0       	ldi	r18, 0x00	; 0
    3f9a:	30 e0       	ldi	r19, 0x00	; 0
    3f9c:	4a e7       	ldi	r20, 0x7A	; 122
    3f9e:	54 e4       	ldi	r21, 0x44	; 68
    3fa0:	6a 81       	ldd	r22, Y+2	; 0x02
    3fa2:	7b 81       	ldd	r23, Y+3	; 0x03
    3fa4:	8c 81       	ldd	r24, Y+4	; 0x04
    3fa6:	9d 81       	ldd	r25, Y+5	; 0x05
    3fa8:	0e 94 54 29 	call	0x52a8	; 0x52a8 <__divsf3>
    3fac:	dc 01       	movw	r26, r24
    3fae:	cb 01       	movw	r24, r22
    3fb0:	8f 87       	std	Y+15, r24	; 0x0f
    3fb2:	98 8b       	std	Y+16, r25	; 0x10
    3fb4:	a9 8b       	std	Y+17, r26	; 0x11
    3fb6:	ba 8b       	std	Y+18, r27	; 0x12

	__builtin_avr_delay_cycles(__ticks_dc);

#else
	uint16_t __ticks;
	__tmp = ((F_CPU) / 4e3) * __ms;
    3fb8:	20 e0       	ldi	r18, 0x00	; 0
    3fba:	30 e0       	ldi	r19, 0x00	; 0
    3fbc:	4a e7       	ldi	r20, 0x7A	; 122
    3fbe:	55 e4       	ldi	r21, 0x45	; 69
    3fc0:	6f 85       	ldd	r22, Y+15	; 0x0f
    3fc2:	78 89       	ldd	r23, Y+16	; 0x10
    3fc4:	89 89       	ldd	r24, Y+17	; 0x11
    3fc6:	9a 89       	ldd	r25, Y+18	; 0x12
    3fc8:	0e 94 a3 2a 	call	0x5546	; 0x5546 <__mulsf3>
    3fcc:	dc 01       	movw	r26, r24
    3fce:	cb 01       	movw	r24, r22
    3fd0:	8b 8b       	std	Y+19, r24	; 0x13
    3fd2:	9c 8b       	std	Y+20, r25	; 0x14
    3fd4:	ad 8b       	std	Y+21, r26	; 0x15
    3fd6:	be 8b       	std	Y+22, r27	; 0x16
	if (__tmp < 1.0)
    3fd8:	20 e0       	ldi	r18, 0x00	; 0
    3fda:	30 e0       	ldi	r19, 0x00	; 0
    3fdc:	40 e8       	ldi	r20, 0x80	; 128
    3fde:	5f e3       	ldi	r21, 0x3F	; 63
    3fe0:	6b 89       	ldd	r22, Y+19	; 0x13
    3fe2:	7c 89       	ldd	r23, Y+20	; 0x14
    3fe4:	8d 89       	ldd	r24, Y+21	; 0x15
    3fe6:	9e 89       	ldd	r25, Y+22	; 0x16
    3fe8:	0e 94 50 29 	call	0x52a0	; 0x52a0 <__cmpsf2>
    3fec:	88 23       	and	r24, r24
    3fee:	2c f4       	brge	.+10     	; 0x3ffa <offset_calibration+0x11a>
		__ticks = 1;
    3ff0:	81 e0       	ldi	r24, 0x01	; 1
    3ff2:	90 e0       	ldi	r25, 0x00	; 0
    3ff4:	98 8f       	std	Y+24, r25	; 0x18
    3ff6:	8f 8b       	std	Y+23, r24	; 0x17
    3ff8:	41 c0       	rjmp	.+130    	; 0x407c <offset_calibration+0x19c>
	else if (__tmp > 65535)
    3ffa:	20 e0       	ldi	r18, 0x00	; 0
    3ffc:	3f ef       	ldi	r19, 0xFF	; 255
    3ffe:	4f e7       	ldi	r20, 0x7F	; 127
    4000:	57 e4       	ldi	r21, 0x47	; 71
    4002:	6b 89       	ldd	r22, Y+19	; 0x13
    4004:	7c 89       	ldd	r23, Y+20	; 0x14
    4006:	8d 89       	ldd	r24, Y+21	; 0x15
    4008:	9e 89       	ldd	r25, Y+22	; 0x16
    400a:	0e 94 9f 2a 	call	0x553e	; 0x553e <__gesf2>
    400e:	18 16       	cp	r1, r24
    4010:	5c f5       	brge	.+86     	; 0x4068 <offset_calibration+0x188>
	{
		//	__ticks = requested delay in 1/10 ms
		__ticks = (uint16_t) (__ms * 10.0);
    4012:	20 e0       	ldi	r18, 0x00	; 0
    4014:	30 e0       	ldi	r19, 0x00	; 0
    4016:	40 e2       	ldi	r20, 0x20	; 32
    4018:	51 e4       	ldi	r21, 0x41	; 65
    401a:	6f 85       	ldd	r22, Y+15	; 0x0f
    401c:	78 89       	ldd	r23, Y+16	; 0x10
    401e:	89 89       	ldd	r24, Y+17	; 0x11
    4020:	9a 89       	ldd	r25, Y+18	; 0x12
    4022:	0e 94 a3 2a 	call	0x5546	; 0x5546 <__mulsf3>
    4026:	dc 01       	movw	r26, r24
    4028:	cb 01       	movw	r24, r22
    402a:	bc 01       	movw	r22, r24
    402c:	cd 01       	movw	r24, r26
    402e:	0e 94 c1 29 	call	0x5382	; 0x5382 <__fixunssfsi>
    4032:	dc 01       	movw	r26, r24
    4034:	cb 01       	movw	r24, r22
    4036:	98 8f       	std	Y+24, r25	; 0x18
    4038:	8f 8b       	std	Y+23, r24	; 0x17
    403a:	0f c0       	rjmp	.+30     	; 0x405a <offset_calibration+0x17a>
    403c:	80 e9       	ldi	r24, 0x90	; 144
    403e:	91 e0       	ldi	r25, 0x01	; 1
    4040:	9a 8f       	std	Y+26, r25	; 0x1a
    4042:	89 8f       	std	Y+25, r24	; 0x19
    4044:	89 8d       	ldd	r24, Y+25	; 0x19
    4046:	9a 8d       	ldd	r25, Y+26	; 0x1a
    4048:	01 97       	sbiw	r24, 0x01	; 1
    404a:	f1 f7       	brne	.-4      	; 0x4048 <offset_calibration+0x168>
    404c:	9a 8f       	std	Y+26, r25	; 0x1a
    404e:	89 8f       	std	Y+25, r24	; 0x19
		while(__ticks)
		{
			// wait 1/10 ms
			_delay_loop_2(((F_CPU) / 4e3) / 10);
			__ticks --;
    4050:	8f 89       	ldd	r24, Y+23	; 0x17
    4052:	98 8d       	ldd	r25, Y+24	; 0x18
    4054:	01 97       	sbiw	r24, 0x01	; 1
    4056:	98 8f       	std	Y+24, r25	; 0x18
    4058:	8f 8b       	std	Y+23, r24	; 0x17
		__ticks = 1;
	else if (__tmp > 65535)
	{
		//	__ticks = requested delay in 1/10 ms
		__ticks = (uint16_t) (__ms * 10.0);
		while(__ticks)
    405a:	8f 89       	ldd	r24, Y+23	; 0x17
    405c:	98 8d       	ldd	r25, Y+24	; 0x18
    405e:	89 2b       	or	r24, r25
    4060:	69 f7       	brne	.-38     	; 0x403c <offset_calibration+0x15c>
    4062:	8a a1       	ldd	r24, Y+34	; 0x22
    4064:	8e 87       	std	Y+14, r24	; 0x0e
    4066:	41 c0       	rjmp	.+130    	; 0x40ea <offset_calibration+0x20a>
			__ticks --;
		}
		return;
	}
	else
		__ticks = (uint16_t)__tmp;
    4068:	6b 89       	ldd	r22, Y+19	; 0x13
    406a:	7c 89       	ldd	r23, Y+20	; 0x14
    406c:	8d 89       	ldd	r24, Y+21	; 0x15
    406e:	9e 89       	ldd	r25, Y+22	; 0x16
    4070:	0e 94 c1 29 	call	0x5382	; 0x5382 <__fixunssfsi>
    4074:	dc 01       	movw	r26, r24
    4076:	cb 01       	movw	r24, r22
    4078:	98 8f       	std	Y+24, r25	; 0x18
    407a:	8f 8b       	std	Y+23, r24	; 0x17
    407c:	8f 89       	ldd	r24, Y+23	; 0x17
    407e:	98 8d       	ldd	r25, Y+24	; 0x18
    4080:	9c 8f       	std	Y+28, r25	; 0x1c
    4082:	8b 8f       	std	Y+27, r24	; 0x1b
    4084:	8b 8d       	ldd	r24, Y+27	; 0x1b
    4086:	9c 8d       	ldd	r25, Y+28	; 0x1c
    4088:	01 97       	sbiw	r24, 0x01	; 1
    408a:	f1 f7       	brne	.-4      	; 0x4088 <offset_calibration+0x1a8>
    408c:	9c 8f       	std	Y+28, r25	; 0x1c
    408e:	8b 8f       	std	Y+27, r24	; 0x1b
    4090:	8a a1       	ldd	r24, Y+34	; 0x22
    4092:	8e 87       	std	Y+14, r24	; 0x0e
    4094:	2a c0       	rjmp	.+84     	; 0x40ea <offset_calibration+0x20a>
		__ticks = 1;
	else if (__tmp2 > 65535)
	{
		_delay_ms(__us / 1000.0);
	}
	else if (__tmp > 255)
    4096:	20 e0       	ldi	r18, 0x00	; 0
    4098:	30 e0       	ldi	r19, 0x00	; 0
    409a:	4f e7       	ldi	r20, 0x7F	; 127
    409c:	53 e4       	ldi	r21, 0x43	; 67
    409e:	6e 81       	ldd	r22, Y+6	; 0x06
    40a0:	7f 81       	ldd	r23, Y+7	; 0x07
    40a2:	88 85       	ldd	r24, Y+8	; 0x08
    40a4:	99 85       	ldd	r25, Y+9	; 0x09
    40a6:	0e 94 9f 2a 	call	0x553e	; 0x553e <__gesf2>
    40aa:	18 16       	cp	r1, r24
    40ac:	ac f4       	brge	.+42     	; 0x40d8 <offset_calibration+0x1f8>
	{
		uint16_t __ticks=(uint16_t)__tmp2;
    40ae:	6a 85       	ldd	r22, Y+10	; 0x0a
    40b0:	7b 85       	ldd	r23, Y+11	; 0x0b
    40b2:	8c 85       	ldd	r24, Y+12	; 0x0c
    40b4:	9d 85       	ldd	r25, Y+13	; 0x0d
    40b6:	0e 94 c1 29 	call	0x5382	; 0x5382 <__fixunssfsi>
    40ba:	dc 01       	movw	r26, r24
    40bc:	cb 01       	movw	r24, r22
    40be:	9e 8f       	std	Y+30, r25	; 0x1e
    40c0:	8d 8f       	std	Y+29, r24	; 0x1d
    40c2:	8d 8d       	ldd	r24, Y+29	; 0x1d
    40c4:	9e 8d       	ldd	r25, Y+30	; 0x1e
    40c6:	98 a3       	std	Y+32, r25	; 0x20
    40c8:	8f 8f       	std	Y+31, r24	; 0x1f
    40ca:	8f 8d       	ldd	r24, Y+31	; 0x1f
    40cc:	98 a1       	ldd	r25, Y+32	; 0x20
    40ce:	01 97       	sbiw	r24, 0x01	; 1
    40d0:	f1 f7       	brne	.-4      	; 0x40ce <offset_calibration+0x1ee>
    40d2:	98 a3       	std	Y+32, r25	; 0x20
    40d4:	8f 8f       	std	Y+31, r24	; 0x1f
    40d6:	0f c0       	rjmp	.+30     	; 0x40f6 <offset_calibration+0x216>
		_delay_loop_2(__ticks);
		return;
	}
	else
		__ticks = (uint8_t)__tmp;
    40d8:	6e 81       	ldd	r22, Y+6	; 0x06
    40da:	7f 81       	ldd	r23, Y+7	; 0x07
    40dc:	88 85       	ldd	r24, Y+8	; 0x08
    40de:	99 85       	ldd	r25, Y+9	; 0x09
    40e0:	0e 94 c1 29 	call	0x5382	; 0x5382 <__fixunssfsi>
    40e4:	dc 01       	movw	r26, r24
    40e6:	cb 01       	movw	r24, r22
    40e8:	8e 87       	std	Y+14, r24	; 0x0e
    40ea:	8e 85       	ldd	r24, Y+14	; 0x0e
    40ec:	89 a3       	std	Y+33, r24	; 0x21
    can be achieved.
*/
void
_delay_loop_1(uint8_t __count)
{
	__asm__ volatile (
    40ee:	89 a1       	ldd	r24, Y+33	; 0x21
    40f0:	8a 95       	dec	r24
    40f2:	f1 f7       	brne	.-4      	; 0x40f0 <offset_calibration+0x210>
    40f4:	89 a3       	std	Y+33, r24	; 0x21
		_delay_us(2);
		ADS_SCLK_LOW;
    40f6:	88 e0       	ldi	r24, 0x08	; 8
    40f8:	91 e0       	ldi	r25, 0x01	; 1
    40fa:	28 e0       	ldi	r18, 0x08	; 8
    40fc:	31 e0       	ldi	r19, 0x01	; 1
    40fe:	f9 01       	movw	r30, r18
    4100:	20 81       	ld	r18, Z
    4102:	27 7f       	andi	r18, 0xF7	; 247
    4104:	fc 01       	movw	r30, r24
    4106:	20 83       	st	Z, r18
    4108:	80 e0       	ldi	r24, 0x00	; 0
    410a:	90 e0       	ldi	r25, 0x00	; 0
    410c:	a0 e0       	ldi	r26, 0x00	; 0
    410e:	b0 e4       	ldi	r27, 0x40	; 64
    4110:	8b a3       	std	Y+35, r24	; 0x23
    4112:	9c a3       	std	Y+36, r25	; 0x24
    4114:	ad a3       	std	Y+37, r26	; 0x25
    4116:	be a3       	std	Y+38, r27	; 0x26
	__builtin_avr_delay_cycles(__ticks_dc);

#else
	uint8_t __ticks;
	double __tmp2 ;
	__tmp = ((F_CPU) / 3e6) * __us;
    4118:	2b ea       	ldi	r18, 0xAB	; 171
    411a:	3a ea       	ldi	r19, 0xAA	; 170
    411c:	4a ea       	ldi	r20, 0xAA	; 170
    411e:	50 e4       	ldi	r21, 0x40	; 64
    4120:	6b a1       	ldd	r22, Y+35	; 0x23
    4122:	7c a1       	ldd	r23, Y+36	; 0x24
    4124:	8d a1       	ldd	r24, Y+37	; 0x25
    4126:	9e a1       	ldd	r25, Y+38	; 0x26
    4128:	0e 94 a3 2a 	call	0x5546	; 0x5546 <__mulsf3>
    412c:	dc 01       	movw	r26, r24
    412e:	cb 01       	movw	r24, r22
    4130:	8f a3       	std	Y+39, r24	; 0x27
    4132:	98 a7       	std	Y+40, r25	; 0x28
    4134:	a9 a7       	std	Y+41, r26	; 0x29
    4136:	ba a7       	std	Y+42, r27	; 0x2a
	__tmp2 = ((F_CPU) / 4e6) * __us;
    4138:	20 e0       	ldi	r18, 0x00	; 0
    413a:	30 e0       	ldi	r19, 0x00	; 0
    413c:	40 e8       	ldi	r20, 0x80	; 128
    413e:	50 e4       	ldi	r21, 0x40	; 64
    4140:	6b a1       	ldd	r22, Y+35	; 0x23
    4142:	7c a1       	ldd	r23, Y+36	; 0x24
    4144:	8d a1       	ldd	r24, Y+37	; 0x25
    4146:	9e a1       	ldd	r25, Y+38	; 0x26
    4148:	0e 94 a3 2a 	call	0x5546	; 0x5546 <__mulsf3>
    414c:	dc 01       	movw	r26, r24
    414e:	cb 01       	movw	r24, r22
    4150:	8b a7       	std	Y+43, r24	; 0x2b
    4152:	9c a7       	std	Y+44, r25	; 0x2c
    4154:	ad a7       	std	Y+45, r26	; 0x2d
    4156:	be a7       	std	Y+46, r27	; 0x2e
	if (__tmp < 1.0)
    4158:	20 e0       	ldi	r18, 0x00	; 0
    415a:	30 e0       	ldi	r19, 0x00	; 0
    415c:	40 e8       	ldi	r20, 0x80	; 128
    415e:	5f e3       	ldi	r21, 0x3F	; 63
    4160:	6f a1       	ldd	r22, Y+39	; 0x27
    4162:	78 a5       	ldd	r23, Y+40	; 0x28
    4164:	89 a5       	ldd	r24, Y+41	; 0x29
    4166:	9a a5       	ldd	r25, Y+42	; 0x2a
    4168:	0e 94 50 29 	call	0x52a0	; 0x52a0 <__cmpsf2>
    416c:	88 23       	and	r24, r24
    416e:	1c f4       	brge	.+6      	; 0x4176 <offset_calibration+0x296>
		__ticks = 1;
    4170:	81 e0       	ldi	r24, 0x01	; 1
    4172:	8f a7       	std	Y+47, r24	; 0x2f
    4174:	ca c0       	rjmp	.+404    	; 0x430a <offset_calibration+0x42a>
	else if (__tmp2 > 65535)
    4176:	20 e0       	ldi	r18, 0x00	; 0
    4178:	3f ef       	ldi	r19, 0xFF	; 255
    417a:	4f e7       	ldi	r20, 0x7F	; 127
    417c:	57 e4       	ldi	r21, 0x47	; 71
    417e:	6b a5       	ldd	r22, Y+43	; 0x2b
    4180:	7c a5       	ldd	r23, Y+44	; 0x2c
    4182:	8d a5       	ldd	r24, Y+45	; 0x2d
    4184:	9e a5       	ldd	r25, Y+46	; 0x2e
    4186:	0e 94 9f 2a 	call	0x553e	; 0x553e <__gesf2>
    418a:	18 16       	cp	r1, r24
    418c:	0c f0       	brlt	.+2      	; 0x4190 <offset_calibration+0x2b0>
    418e:	87 c0       	rjmp	.+270    	; 0x429e <offset_calibration+0x3be>
	{
		_delay_ms(__us / 1000.0);
    4190:	20 e0       	ldi	r18, 0x00	; 0
    4192:	30 e0       	ldi	r19, 0x00	; 0
    4194:	4a e7       	ldi	r20, 0x7A	; 122
    4196:	54 e4       	ldi	r21, 0x44	; 68
    4198:	6b a1       	ldd	r22, Y+35	; 0x23
    419a:	7c a1       	ldd	r23, Y+36	; 0x24
    419c:	8d a1       	ldd	r24, Y+37	; 0x25
    419e:	9e a1       	ldd	r25, Y+38	; 0x26
    41a0:	0e 94 54 29 	call	0x52a8	; 0x52a8 <__divsf3>
    41a4:	dc 01       	movw	r26, r24
    41a6:	cb 01       	movw	r24, r22
    41a8:	88 ab       	std	Y+48, r24	; 0x30
    41aa:	99 ab       	std	Y+49, r25	; 0x31
    41ac:	aa ab       	std	Y+50, r26	; 0x32
    41ae:	bb ab       	std	Y+51, r27	; 0x33

	__builtin_avr_delay_cycles(__ticks_dc);

#else
	uint16_t __ticks;
	__tmp = ((F_CPU) / 4e3) * __ms;
    41b0:	20 e0       	ldi	r18, 0x00	; 0
    41b2:	30 e0       	ldi	r19, 0x00	; 0
    41b4:	4a e7       	ldi	r20, 0x7A	; 122
    41b6:	55 e4       	ldi	r21, 0x45	; 69
    41b8:	68 a9       	ldd	r22, Y+48	; 0x30
    41ba:	79 a9       	ldd	r23, Y+49	; 0x31
    41bc:	8a a9       	ldd	r24, Y+50	; 0x32
    41be:	9b a9       	ldd	r25, Y+51	; 0x33
    41c0:	0e 94 a3 2a 	call	0x5546	; 0x5546 <__mulsf3>
    41c4:	dc 01       	movw	r26, r24
    41c6:	cb 01       	movw	r24, r22
    41c8:	8c ab       	std	Y+52, r24	; 0x34
    41ca:	9d ab       	std	Y+53, r25	; 0x35
    41cc:	ae ab       	std	Y+54, r26	; 0x36
    41ce:	bf ab       	std	Y+55, r27	; 0x37
	if (__tmp < 1.0)
    41d0:	20 e0       	ldi	r18, 0x00	; 0
    41d2:	30 e0       	ldi	r19, 0x00	; 0
    41d4:	40 e8       	ldi	r20, 0x80	; 128
    41d6:	5f e3       	ldi	r21, 0x3F	; 63
    41d8:	6c a9       	ldd	r22, Y+52	; 0x34
    41da:	7d a9       	ldd	r23, Y+53	; 0x35
    41dc:	8e a9       	ldd	r24, Y+54	; 0x36
    41de:	9f a9       	ldd	r25, Y+55	; 0x37
    41e0:	0e 94 50 29 	call	0x52a0	; 0x52a0 <__cmpsf2>
    41e4:	88 23       	and	r24, r24
    41e6:	2c f4       	brge	.+10     	; 0x41f2 <offset_calibration+0x312>
		__ticks = 1;
    41e8:	81 e0       	ldi	r24, 0x01	; 1
    41ea:	90 e0       	ldi	r25, 0x00	; 0
    41ec:	99 af       	std	Y+57, r25	; 0x39
    41ee:	88 af       	std	Y+56, r24	; 0x38
    41f0:	45 c0       	rjmp	.+138    	; 0x427c <offset_calibration+0x39c>
	else if (__tmp > 65535)
    41f2:	20 e0       	ldi	r18, 0x00	; 0
    41f4:	3f ef       	ldi	r19, 0xFF	; 255
    41f6:	4f e7       	ldi	r20, 0x7F	; 127
    41f8:	57 e4       	ldi	r21, 0x47	; 71
    41fa:	6c a9       	ldd	r22, Y+52	; 0x34
    41fc:	7d a9       	ldd	r23, Y+53	; 0x35
    41fe:	8e a9       	ldd	r24, Y+54	; 0x36
    4200:	9f a9       	ldd	r25, Y+55	; 0x37
    4202:	0e 94 9f 2a 	call	0x553e	; 0x553e <__gesf2>
    4206:	18 16       	cp	r1, r24
    4208:	7c f5       	brge	.+94     	; 0x4268 <offset_calibration+0x388>
	{
		//	__ticks = requested delay in 1/10 ms
		__ticks = (uint16_t) (__ms * 10.0);
    420a:	20 e0       	ldi	r18, 0x00	; 0
    420c:	30 e0       	ldi	r19, 0x00	; 0
    420e:	40 e2       	ldi	r20, 0x20	; 32
    4210:	51 e4       	ldi	r21, 0x41	; 65
    4212:	68 a9       	ldd	r22, Y+48	; 0x30
    4214:	79 a9       	ldd	r23, Y+49	; 0x31
    4216:	8a a9       	ldd	r24, Y+50	; 0x32
    4218:	9b a9       	ldd	r25, Y+51	; 0x33
    421a:	0e 94 a3 2a 	call	0x5546	; 0x5546 <__mulsf3>
    421e:	dc 01       	movw	r26, r24
    4220:	cb 01       	movw	r24, r22
    4222:	bc 01       	movw	r22, r24
    4224:	cd 01       	movw	r24, r26
    4226:	0e 94 c1 29 	call	0x5382	; 0x5382 <__fixunssfsi>
    422a:	dc 01       	movw	r26, r24
    422c:	cb 01       	movw	r24, r22
    422e:	99 af       	std	Y+57, r25	; 0x39
    4230:	88 af       	std	Y+56, r24	; 0x38
    4232:	0f c0       	rjmp	.+30     	; 0x4252 <offset_calibration+0x372>
    4234:	80 e9       	ldi	r24, 0x90	; 144
    4236:	91 e0       	ldi	r25, 0x01	; 1
    4238:	9b af       	std	Y+59, r25	; 0x3b
    423a:	8a af       	std	Y+58, r24	; 0x3a
    milliseconds can be achieved.
 */
void
_delay_loop_2(uint16_t __count)
{
	__asm__ volatile (
    423c:	8a ad       	ldd	r24, Y+58	; 0x3a
    423e:	9b ad       	ldd	r25, Y+59	; 0x3b
    4240:	01 97       	sbiw	r24, 0x01	; 1
    4242:	f1 f7       	brne	.-4      	; 0x4240 <offset_calibration+0x360>
    4244:	9b af       	std	Y+59, r25	; 0x3b
    4246:	8a af       	std	Y+58, r24	; 0x3a
		while(__ticks)
		{
			// wait 1/10 ms
			_delay_loop_2(((F_CPU) / 4e3) / 10);
			__ticks --;
    4248:	88 ad       	ldd	r24, Y+56	; 0x38
    424a:	99 ad       	ldd	r25, Y+57	; 0x39
    424c:	01 97       	sbiw	r24, 0x01	; 1
    424e:	99 af       	std	Y+57, r25	; 0x39
    4250:	88 af       	std	Y+56, r24	; 0x38
		__ticks = 1;
	else if (__tmp > 65535)
	{
		//	__ticks = requested delay in 1/10 ms
		__ticks = (uint16_t) (__ms * 10.0);
		while(__ticks)
    4252:	88 ad       	ldd	r24, Y+56	; 0x38
    4254:	99 ad       	ldd	r25, Y+57	; 0x39
    4256:	89 2b       	or	r24, r25
    4258:	69 f7       	brne	.-38     	; 0x4234 <offset_calibration+0x354>
    425a:	ce 01       	movw	r24, r28
    425c:	8d 5b       	subi	r24, 0xBD	; 189
    425e:	9f 4f       	sbci	r25, 0xFF	; 255
    4260:	fc 01       	movw	r30, r24
    4262:	80 81       	ld	r24, Z
    4264:	8f a7       	std	Y+47, r24	; 0x2f
    4266:	51 c0       	rjmp	.+162    	; 0x430a <offset_calibration+0x42a>
			__ticks --;
		}
		return;
	}
	else
		__ticks = (uint16_t)__tmp;
    4268:	6c a9       	ldd	r22, Y+52	; 0x34
    426a:	7d a9       	ldd	r23, Y+53	; 0x35
    426c:	8e a9       	ldd	r24, Y+54	; 0x36
    426e:	9f a9       	ldd	r25, Y+55	; 0x37
    4270:	0e 94 c1 29 	call	0x5382	; 0x5382 <__fixunssfsi>
    4274:	dc 01       	movw	r26, r24
    4276:	cb 01       	movw	r24, r22
    4278:	99 af       	std	Y+57, r25	; 0x39
    427a:	88 af       	std	Y+56, r24	; 0x38
    427c:	88 ad       	ldd	r24, Y+56	; 0x38
    427e:	99 ad       	ldd	r25, Y+57	; 0x39
    4280:	9d af       	std	Y+61, r25	; 0x3d
    4282:	8c af       	std	Y+60, r24	; 0x3c
    4284:	8c ad       	ldd	r24, Y+60	; 0x3c
    4286:	9d ad       	ldd	r25, Y+61	; 0x3d
    4288:	01 97       	sbiw	r24, 0x01	; 1
    428a:	f1 f7       	brne	.-4      	; 0x4288 <offset_calibration+0x3a8>
    428c:	9d af       	std	Y+61, r25	; 0x3d
    428e:	8c af       	std	Y+60, r24	; 0x3c
    4290:	ce 01       	movw	r24, r28
    4292:	8d 5b       	subi	r24, 0xBD	; 189
    4294:	9f 4f       	sbci	r25, 0xFF	; 255
    4296:	fc 01       	movw	r30, r24
    4298:	80 81       	ld	r24, Z
    429a:	8f a7       	std	Y+47, r24	; 0x2f
    429c:	36 c0       	rjmp	.+108    	; 0x430a <offset_calibration+0x42a>
		__ticks = 1;
	else if (__tmp2 > 65535)
	{
		_delay_ms(__us / 1000.0);
	}
	else if (__tmp > 255)
    429e:	20 e0       	ldi	r18, 0x00	; 0
    42a0:	30 e0       	ldi	r19, 0x00	; 0
    42a2:	4f e7       	ldi	r20, 0x7F	; 127
    42a4:	53 e4       	ldi	r21, 0x43	; 67
    42a6:	6f a1       	ldd	r22, Y+39	; 0x27
    42a8:	78 a5       	ldd	r23, Y+40	; 0x28
    42aa:	89 a5       	ldd	r24, Y+41	; 0x29
    42ac:	9a a5       	ldd	r25, Y+42	; 0x2a
    42ae:	0e 94 9f 2a 	call	0x553e	; 0x553e <__gesf2>
    42b2:	18 16       	cp	r1, r24
    42b4:	0c f5       	brge	.+66     	; 0x42f8 <offset_calibration+0x418>
	{
		uint16_t __ticks=(uint16_t)__tmp2;
    42b6:	6b a5       	ldd	r22, Y+43	; 0x2b
    42b8:	7c a5       	ldd	r23, Y+44	; 0x2c
    42ba:	8d a5       	ldd	r24, Y+45	; 0x2d
    42bc:	9e a5       	ldd	r25, Y+46	; 0x2e
    42be:	0e 94 c1 29 	call	0x5382	; 0x5382 <__fixunssfsi>
    42c2:	dc 01       	movw	r26, r24
    42c4:	cb 01       	movw	r24, r22
    42c6:	9f af       	std	Y+63, r25	; 0x3f
    42c8:	8e af       	std	Y+62, r24	; 0x3e
    42ca:	ce 01       	movw	r24, r28
    42cc:	80 5c       	subi	r24, 0xC0	; 192
    42ce:	9f 4f       	sbci	r25, 0xFF	; 255
    42d0:	2e ad       	ldd	r18, Y+62	; 0x3e
    42d2:	3f ad       	ldd	r19, Y+63	; 0x3f
    42d4:	fc 01       	movw	r30, r24
    42d6:	31 83       	std	Z+1, r19	; 0x01
    42d8:	20 83       	st	Z, r18
    42da:	ce 01       	movw	r24, r28
    42dc:	80 5c       	subi	r24, 0xC0	; 192
    42de:	9f 4f       	sbci	r25, 0xFF	; 255
    42e0:	fc 01       	movw	r30, r24
    42e2:	80 81       	ld	r24, Z
    42e4:	91 81       	ldd	r25, Z+1	; 0x01
    42e6:	01 97       	sbiw	r24, 0x01	; 1
    42e8:	f1 f7       	brne	.-4      	; 0x42e6 <offset_calibration+0x406>
    42ea:	9e 01       	movw	r18, r28
    42ec:	20 5c       	subi	r18, 0xC0	; 192
    42ee:	3f 4f       	sbci	r19, 0xFF	; 255
    42f0:	f9 01       	movw	r30, r18
    42f2:	91 83       	std	Z+1, r25	; 0x01
    42f4:	80 83       	st	Z, r24
    42f6:	1c c0       	rjmp	.+56     	; 0x4330 <offset_calibration+0x450>
		_delay_loop_2(__ticks);
		return;
	}
	else
		__ticks = (uint8_t)__tmp;
    42f8:	6f a1       	ldd	r22, Y+39	; 0x27
    42fa:	78 a5       	ldd	r23, Y+40	; 0x28
    42fc:	89 a5       	ldd	r24, Y+41	; 0x29
    42fe:	9a a5       	ldd	r25, Y+42	; 0x2a
    4300:	0e 94 c1 29 	call	0x5382	; 0x5382 <__fixunssfsi>
    4304:	dc 01       	movw	r26, r24
    4306:	cb 01       	movw	r24, r22
    4308:	8f a7       	std	Y+47, r24	; 0x2f
    430a:	ce 01       	movw	r24, r28
    430c:	8e 5b       	subi	r24, 0xBE	; 190
    430e:	9f 4f       	sbci	r25, 0xFF	; 255
    4310:	2f a5       	ldd	r18, Y+47	; 0x2f
    4312:	fc 01       	movw	r30, r24
    4314:	20 83       	st	Z, r18
    can be achieved.
*/
void
_delay_loop_1(uint8_t __count)
{
	__asm__ volatile (
    4316:	ce 01       	movw	r24, r28
    4318:	8e 5b       	subi	r24, 0xBE	; 190
    431a:	9f 4f       	sbci	r25, 0xFF	; 255
    431c:	fc 01       	movw	r30, r24
    431e:	80 81       	ld	r24, Z
    4320:	28 2f       	mov	r18, r24
    4322:	2a 95       	dec	r18
    4324:	f1 f7       	brne	.-4      	; 0x4322 <offset_calibration+0x442>
    4326:	ce 01       	movw	r24, r28
    4328:	8e 5b       	subi	r24, 0xBE	; 190
    432a:	9f 4f       	sbci	r25, 0xFF	; 255
    432c:	fc 01       	movw	r30, r24
    432e:	20 83       	st	Z, r18
	ADS_A0_LOW;
}

void offset_calibration(void)
{
	for(uint8_t i=0; i<26; i++)
    4330:	89 81       	ldd	r24, Y+1	; 0x01
    4332:	8f 5f       	subi	r24, 0xFF	; 255
    4334:	89 83       	std	Y+1, r24	; 0x01
    4336:	89 81       	ldd	r24, Y+1	; 0x01
    4338:	8a 31       	cpi	r24, 0x1A	; 26
    433a:	08 f4       	brcc	.+2      	; 0x433e <offset_calibration+0x45e>
    433c:	e0 cd       	rjmp	.-1088   	; 0x3efe <offset_calibration+0x1e>
    433e:	9e 01       	movw	r18, r28
    4340:	2c 5b       	subi	r18, 0xBC	; 188
    4342:	3f 4f       	sbci	r19, 0xFF	; 255
    4344:	80 e0       	ldi	r24, 0x00	; 0
    4346:	90 e8       	ldi	r25, 0x80	; 128
    4348:	ab eb       	ldi	r26, 0xBB	; 187
    434a:	b4 e4       	ldi	r27, 0x44	; 68
    434c:	f9 01       	movw	r30, r18
    434e:	80 83       	st	Z, r24
    4350:	91 83       	std	Z+1, r25	; 0x01
    4352:	a2 83       	std	Z+2, r26	; 0x02
    4354:	b3 83       	std	Z+3, r27	; 0x03

	__builtin_avr_delay_cycles(__ticks_dc);

#else
	uint16_t __ticks;
	__tmp = ((F_CPU) / 4e3) * __ms;
    4356:	8e 01       	movw	r16, r28
    4358:	08 5b       	subi	r16, 0xB8	; 184
    435a:	1f 4f       	sbci	r17, 0xFF	; 255
    435c:	ce 01       	movw	r24, r28
    435e:	8c 5b       	subi	r24, 0xBC	; 188
    4360:	9f 4f       	sbci	r25, 0xFF	; 255
    4362:	20 e0       	ldi	r18, 0x00	; 0
    4364:	30 e0       	ldi	r19, 0x00	; 0
    4366:	4a e7       	ldi	r20, 0x7A	; 122
    4368:	55 e4       	ldi	r21, 0x45	; 69
    436a:	fc 01       	movw	r30, r24
    436c:	60 81       	ld	r22, Z
    436e:	71 81       	ldd	r23, Z+1	; 0x01
    4370:	82 81       	ldd	r24, Z+2	; 0x02
    4372:	93 81       	ldd	r25, Z+3	; 0x03
    4374:	0e 94 a3 2a 	call	0x5546	; 0x5546 <__mulsf3>
    4378:	dc 01       	movw	r26, r24
    437a:	cb 01       	movw	r24, r22
    437c:	f8 01       	movw	r30, r16
    437e:	80 83       	st	Z, r24
    4380:	91 83       	std	Z+1, r25	; 0x01
    4382:	a2 83       	std	Z+2, r26	; 0x02
    4384:	b3 83       	std	Z+3, r27	; 0x03
	if (__tmp < 1.0)
    4386:	ce 01       	movw	r24, r28
    4388:	88 5b       	subi	r24, 0xB8	; 184
    438a:	9f 4f       	sbci	r25, 0xFF	; 255
    438c:	20 e0       	ldi	r18, 0x00	; 0
    438e:	30 e0       	ldi	r19, 0x00	; 0
    4390:	40 e8       	ldi	r20, 0x80	; 128
    4392:	5f e3       	ldi	r21, 0x3F	; 63
    4394:	fc 01       	movw	r30, r24
    4396:	60 81       	ld	r22, Z
    4398:	71 81       	ldd	r23, Z+1	; 0x01
    439a:	82 81       	ldd	r24, Z+2	; 0x02
    439c:	93 81       	ldd	r25, Z+3	; 0x03
    439e:	80 d7       	rcall	.+3840   	; 0x52a0 <__cmpsf2>
    43a0:	88 23       	and	r24, r24
    43a2:	4c f4       	brge	.+18     	; 0x43b6 <offset_calibration+0x4d6>
		__ticks = 1;
    43a4:	ce 01       	movw	r24, r28
    43a6:	84 5b       	subi	r24, 0xB4	; 180
    43a8:	9f 4f       	sbci	r25, 0xFF	; 255
    43aa:	21 e0       	ldi	r18, 0x01	; 1
    43ac:	30 e0       	ldi	r19, 0x00	; 0
    43ae:	fc 01       	movw	r30, r24
    43b0:	31 83       	std	Z+1, r19	; 0x01
    43b2:	20 83       	st	Z, r18
    43b4:	6b c0       	rjmp	.+214    	; 0x448c <offset_calibration+0x5ac>
	else if (__tmp > 65535)
    43b6:	ce 01       	movw	r24, r28
    43b8:	88 5b       	subi	r24, 0xB8	; 184
    43ba:	9f 4f       	sbci	r25, 0xFF	; 255
    43bc:	20 e0       	ldi	r18, 0x00	; 0
    43be:	3f ef       	ldi	r19, 0xFF	; 255
    43c0:	4f e7       	ldi	r20, 0x7F	; 127
    43c2:	57 e4       	ldi	r21, 0x47	; 71
    43c4:	fc 01       	movw	r30, r24
    43c6:	60 81       	ld	r22, Z
    43c8:	71 81       	ldd	r23, Z+1	; 0x01
    43ca:	82 81       	ldd	r24, Z+2	; 0x02
    43cc:	93 81       	ldd	r25, Z+3	; 0x03
    43ce:	0e 94 9f 2a 	call	0x553e	; 0x553e <__gesf2>
    43d2:	18 16       	cp	r1, r24
    43d4:	0c f0       	brlt	.+2      	; 0x43d8 <offset_calibration+0x4f8>
    43d6:	49 c0       	rjmp	.+146    	; 0x446a <offset_calibration+0x58a>
	{
		//	__ticks = requested delay in 1/10 ms
		__ticks = (uint16_t) (__ms * 10.0);
    43d8:	ce 01       	movw	r24, r28
    43da:	8c 5b       	subi	r24, 0xBC	; 188
    43dc:	9f 4f       	sbci	r25, 0xFF	; 255
    43de:	20 e0       	ldi	r18, 0x00	; 0
    43e0:	30 e0       	ldi	r19, 0x00	; 0
    43e2:	40 e2       	ldi	r20, 0x20	; 32
    43e4:	51 e4       	ldi	r21, 0x41	; 65
    43e6:	fc 01       	movw	r30, r24
    43e8:	60 81       	ld	r22, Z
    43ea:	71 81       	ldd	r23, Z+1	; 0x01
    43ec:	82 81       	ldd	r24, Z+2	; 0x02
    43ee:	93 81       	ldd	r25, Z+3	; 0x03
    43f0:	0e 94 a3 2a 	call	0x5546	; 0x5546 <__mulsf3>
    43f4:	dc 01       	movw	r26, r24
    43f6:	cb 01       	movw	r24, r22
    43f8:	8e 01       	movw	r16, r28
    43fa:	04 5b       	subi	r16, 0xB4	; 180
    43fc:	1f 4f       	sbci	r17, 0xFF	; 255
    43fe:	bc 01       	movw	r22, r24
    4400:	cd 01       	movw	r24, r26
    4402:	bf d7       	rcall	.+3966   	; 0x5382 <__fixunssfsi>
    4404:	dc 01       	movw	r26, r24
    4406:	cb 01       	movw	r24, r22
    4408:	f8 01       	movw	r30, r16
    440a:	91 83       	std	Z+1, r25	; 0x01
    440c:	80 83       	st	Z, r24
    440e:	24 c0       	rjmp	.+72     	; 0x4458 <offset_calibration+0x578>
    4410:	ce 01       	movw	r24, r28
    4412:	82 5b       	subi	r24, 0xB2	; 178
    4414:	9f 4f       	sbci	r25, 0xFF	; 255
    4416:	20 e9       	ldi	r18, 0x90	; 144
    4418:	31 e0       	ldi	r19, 0x01	; 1
    441a:	fc 01       	movw	r30, r24
    441c:	31 83       	std	Z+1, r19	; 0x01
    441e:	20 83       	st	Z, r18
    milliseconds can be achieved.
 */
void
_delay_loop_2(uint16_t __count)
{
	__asm__ volatile (
    4420:	ce 01       	movw	r24, r28
    4422:	82 5b       	subi	r24, 0xB2	; 178
    4424:	9f 4f       	sbci	r25, 0xFF	; 255
    4426:	fc 01       	movw	r30, r24
    4428:	80 81       	ld	r24, Z
    442a:	91 81       	ldd	r25, Z+1	; 0x01
    442c:	01 97       	sbiw	r24, 0x01	; 1
    442e:	f1 f7       	brne	.-4      	; 0x442c <offset_calibration+0x54c>
    4430:	9e 01       	movw	r18, r28
    4432:	22 5b       	subi	r18, 0xB2	; 178
    4434:	3f 4f       	sbci	r19, 0xFF	; 255
    4436:	f9 01       	movw	r30, r18
    4438:	91 83       	std	Z+1, r25	; 0x01
    443a:	80 83       	st	Z, r24
		while(__ticks)
		{
			// wait 1/10 ms
			_delay_loop_2(((F_CPU) / 4e3) / 10);
			__ticks --;
    443c:	ce 01       	movw	r24, r28
    443e:	84 5b       	subi	r24, 0xB4	; 180
    4440:	9f 4f       	sbci	r25, 0xFF	; 255
    4442:	9e 01       	movw	r18, r28
    4444:	24 5b       	subi	r18, 0xB4	; 180
    4446:	3f 4f       	sbci	r19, 0xFF	; 255
    4448:	f9 01       	movw	r30, r18
    444a:	20 81       	ld	r18, Z
    444c:	31 81       	ldd	r19, Z+1	; 0x01
    444e:	21 50       	subi	r18, 0x01	; 1
    4450:	31 09       	sbc	r19, r1
    4452:	fc 01       	movw	r30, r24
    4454:	31 83       	std	Z+1, r19	; 0x01
    4456:	20 83       	st	Z, r18
		__ticks = 1;
	else if (__tmp > 65535)
	{
		//	__ticks = requested delay in 1/10 ms
		__ticks = (uint16_t) (__ms * 10.0);
		while(__ticks)
    4458:	ce 01       	movw	r24, r28
    445a:	84 5b       	subi	r24, 0xB4	; 180
    445c:	9f 4f       	sbci	r25, 0xFF	; 255
    445e:	fc 01       	movw	r30, r24
    4460:	80 81       	ld	r24, Z
    4462:	91 81       	ldd	r25, Z+1	; 0x01
    4464:	89 2b       	or	r24, r25
    4466:	a1 f6       	brne	.-88     	; 0x4410 <offset_calibration+0x530>
    4468:	2b c0       	rjmp	.+86     	; 0x44c0 <offset_calibration+0x5e0>
			__ticks --;
		}
		return;
	}
	else
		__ticks = (uint16_t)__tmp;
    446a:	8e 01       	movw	r16, r28
    446c:	04 5b       	subi	r16, 0xB4	; 180
    446e:	1f 4f       	sbci	r17, 0xFF	; 255
    4470:	ce 01       	movw	r24, r28
    4472:	88 5b       	subi	r24, 0xB8	; 184
    4474:	9f 4f       	sbci	r25, 0xFF	; 255
    4476:	fc 01       	movw	r30, r24
    4478:	60 81       	ld	r22, Z
    447a:	71 81       	ldd	r23, Z+1	; 0x01
    447c:	82 81       	ldd	r24, Z+2	; 0x02
    447e:	93 81       	ldd	r25, Z+3	; 0x03
    4480:	80 d7       	rcall	.+3840   	; 0x5382 <__fixunssfsi>
    4482:	dc 01       	movw	r26, r24
    4484:	cb 01       	movw	r24, r22
    4486:	f8 01       	movw	r30, r16
    4488:	91 83       	std	Z+1, r25	; 0x01
    448a:	80 83       	st	Z, r24
    448c:	ce 01       	movw	r24, r28
    448e:	80 5b       	subi	r24, 0xB0	; 176
    4490:	9f 4f       	sbci	r25, 0xFF	; 255
    4492:	9e 01       	movw	r18, r28
    4494:	24 5b       	subi	r18, 0xB4	; 180
    4496:	3f 4f       	sbci	r19, 0xFF	; 255
    4498:	f9 01       	movw	r30, r18
    449a:	20 81       	ld	r18, Z
    449c:	31 81       	ldd	r19, Z+1	; 0x01
    449e:	fc 01       	movw	r30, r24
    44a0:	31 83       	std	Z+1, r19	; 0x01
    44a2:	20 83       	st	Z, r18
    44a4:	ce 01       	movw	r24, r28
    44a6:	80 5b       	subi	r24, 0xB0	; 176
    44a8:	9f 4f       	sbci	r25, 0xFF	; 255
    44aa:	fc 01       	movw	r30, r24
    44ac:	80 81       	ld	r24, Z
    44ae:	91 81       	ldd	r25, Z+1	; 0x01
    44b0:	01 97       	sbiw	r24, 0x01	; 1
    44b2:	f1 f7       	brne	.-4      	; 0x44b0 <offset_calibration+0x5d0>
    44b4:	9e 01       	movw	r18, r28
    44b6:	20 5b       	subi	r18, 0xB0	; 176
    44b8:	3f 4f       	sbci	r19, 0xFF	; 255
    44ba:	f9 01       	movw	r30, r18
    44bc:	91 83       	std	Z+1, r25	; 0x01
    44be:	80 83       	st	Z, r24
		_delay_us(2);
		ADS_SCLK_LOW;
		_delay_us(2);
	}
	_delay_ms(1500);
}
    44c0:	cf 5a       	subi	r28, 0xAF	; 175
    44c2:	df 4f       	sbci	r29, 0xFF	; 255
    44c4:	0f b6       	in	r0, 0x3f	; 63
    44c6:	f8 94       	cli
    44c8:	de bf       	out	0x3e, r29	; 62
    44ca:	0f be       	out	0x3f, r0	; 63
    44cc:	cd bf       	out	0x3d, r28	; 61
    44ce:	df 91       	pop	r29
    44d0:	cf 91       	pop	r28
    44d2:	1f 91       	pop	r17
    44d4:	0f 91       	pop	r16
    44d6:	08 95       	ret

000044d8 <make_tensometer_measure>:

 
void make_tensometer_measure(void){
    44d8:	0f 93       	push	r16
    44da:	1f 93       	push	r17
    44dc:	cf 93       	push	r28
    44de:	df 93       	push	r29
    44e0:	cd b7       	in	r28, 0x3d	; 61
    44e2:	de b7       	in	r29, 0x3e	; 62
    44e4:	c7 58       	subi	r28, 0x87	; 135
    44e6:	d1 09       	sbc	r29, r1
    44e8:	0f b6       	in	r0, 0x3f	; 63
    44ea:	f8 94       	cli
    44ec:	de bf       	out	0x3e, r29	; 62
    44ee:	0f be       	out	0x3f, r0	; 63
    44f0:	cd bf       	out	0x3d, r28	; 61

		
		static uint8_t input_mux=0;
		//static uint8_t numberConversion=0;
		//static uint32_t tempPreCalculateMeasure=0;
		int32_t data=0; 
    44f2:	19 82       	std	Y+1, r1	; 0x01
    44f4:	1a 82       	std	Y+2, r1	; 0x02
    44f6:	1b 82       	std	Y+3, r1	; 0x03
    44f8:	1c 82       	std	Y+4, r1	; 0x04
		
		while (ADS_DRDY_IF_HI);	// Czekamy na koniec przetwarzania
    44fa:	00 00       	nop
    44fc:	86 e0       	ldi	r24, 0x06	; 6
    44fe:	91 e0       	ldi	r25, 0x01	; 1
    4500:	fc 01       	movw	r30, r24
    4502:	80 81       	ld	r24, Z
    4504:	88 2f       	mov	r24, r24
    4506:	90 e0       	ldi	r25, 0x00	; 0
    4508:	80 71       	andi	r24, 0x10	; 16
    450a:	99 27       	eor	r25, r25
    450c:	89 2b       	or	r24, r25
    450e:	b1 f7       	brne	.-20     	; 0x44fc <make_tensometer_measure+0x24>
			
		for(uint8_t i=0; i<24; i++)
    4510:	1d 82       	std	Y+5, r1	; 0x05
    4512:	33 c2       	rjmp	.+1126   	; 0x497a <make_tensometer_measure+0x4a2>
		{
			data<<=1;
    4514:	89 81       	ldd	r24, Y+1	; 0x01
    4516:	9a 81       	ldd	r25, Y+2	; 0x02
    4518:	ab 81       	ldd	r26, Y+3	; 0x03
    451a:	bc 81       	ldd	r27, Y+4	; 0x04
    451c:	88 0f       	add	r24, r24
    451e:	99 1f       	adc	r25, r25
    4520:	aa 1f       	adc	r26, r26
    4522:	bb 1f       	adc	r27, r27
    4524:	89 83       	std	Y+1, r24	; 0x01
    4526:	9a 83       	std	Y+2, r25	; 0x02
    4528:	ab 83       	std	Y+3, r26	; 0x03
    452a:	bc 83       	std	Y+4, r27	; 0x04
			ADS_SCLK_HIGH;
    452c:	88 e0       	ldi	r24, 0x08	; 8
    452e:	91 e0       	ldi	r25, 0x01	; 1
    4530:	28 e0       	ldi	r18, 0x08	; 8
    4532:	31 e0       	ldi	r19, 0x01	; 1
    4534:	f9 01       	movw	r30, r18
    4536:	20 81       	ld	r18, Z
    4538:	28 60       	ori	r18, 0x08	; 8
    453a:	fc 01       	movw	r30, r24
    453c:	20 83       	st	Z, r18
    453e:	80 e0       	ldi	r24, 0x00	; 0
    4540:	90 e0       	ldi	r25, 0x00	; 0
    4542:	a0 e0       	ldi	r26, 0x00	; 0
    4544:	b0 e4       	ldi	r27, 0x40	; 64
    4546:	8e 83       	std	Y+6, r24	; 0x06
    4548:	9f 83       	std	Y+7, r25	; 0x07
    454a:	a8 87       	std	Y+8, r26	; 0x08
    454c:	b9 87       	std	Y+9, r27	; 0x09
	__builtin_avr_delay_cycles(__ticks_dc);

#else
	uint8_t __ticks;
	double __tmp2 ;
	__tmp = ((F_CPU) / 3e6) * __us;
    454e:	2b ea       	ldi	r18, 0xAB	; 171
    4550:	3a ea       	ldi	r19, 0xAA	; 170
    4552:	4a ea       	ldi	r20, 0xAA	; 170
    4554:	50 e4       	ldi	r21, 0x40	; 64
    4556:	6e 81       	ldd	r22, Y+6	; 0x06
    4558:	7f 81       	ldd	r23, Y+7	; 0x07
    455a:	88 85       	ldd	r24, Y+8	; 0x08
    455c:	99 85       	ldd	r25, Y+9	; 0x09
    455e:	f3 d7       	rcall	.+4070   	; 0x5546 <__mulsf3>
    4560:	dc 01       	movw	r26, r24
    4562:	cb 01       	movw	r24, r22
    4564:	8a 87       	std	Y+10, r24	; 0x0a
    4566:	9b 87       	std	Y+11, r25	; 0x0b
    4568:	ac 87       	std	Y+12, r26	; 0x0c
    456a:	bd 87       	std	Y+13, r27	; 0x0d
	__tmp2 = ((F_CPU) / 4e6) * __us;
    456c:	20 e0       	ldi	r18, 0x00	; 0
    456e:	30 e0       	ldi	r19, 0x00	; 0
    4570:	40 e8       	ldi	r20, 0x80	; 128
    4572:	50 e4       	ldi	r21, 0x40	; 64
    4574:	6e 81       	ldd	r22, Y+6	; 0x06
    4576:	7f 81       	ldd	r23, Y+7	; 0x07
    4578:	88 85       	ldd	r24, Y+8	; 0x08
    457a:	99 85       	ldd	r25, Y+9	; 0x09
    457c:	e4 d7       	rcall	.+4040   	; 0x5546 <__mulsf3>
    457e:	dc 01       	movw	r26, r24
    4580:	cb 01       	movw	r24, r22
    4582:	8e 87       	std	Y+14, r24	; 0x0e
    4584:	9f 87       	std	Y+15, r25	; 0x0f
    4586:	a8 8b       	std	Y+16, r26	; 0x10
    4588:	b9 8b       	std	Y+17, r27	; 0x11
	if (__tmp < 1.0)
    458a:	20 e0       	ldi	r18, 0x00	; 0
    458c:	30 e0       	ldi	r19, 0x00	; 0
    458e:	40 e8       	ldi	r20, 0x80	; 128
    4590:	5f e3       	ldi	r21, 0x3F	; 63
    4592:	6a 85       	ldd	r22, Y+10	; 0x0a
    4594:	7b 85       	ldd	r23, Y+11	; 0x0b
    4596:	8c 85       	ldd	r24, Y+12	; 0x0c
    4598:	9d 85       	ldd	r25, Y+13	; 0x0d
    459a:	82 d6       	rcall	.+3332   	; 0x52a0 <__cmpsf2>
    459c:	88 23       	and	r24, r24
    459e:	1c f4       	brge	.+6      	; 0x45a6 <make_tensometer_measure+0xce>
		__ticks = 1;
    45a0:	81 e0       	ldi	r24, 0x01	; 1
    45a2:	8a 8b       	std	Y+18, r24	; 0x12
    45a4:	ab c0       	rjmp	.+342    	; 0x46fc <make_tensometer_measure+0x224>
	else if (__tmp2 > 65535)
    45a6:	20 e0       	ldi	r18, 0x00	; 0
    45a8:	3f ef       	ldi	r19, 0xFF	; 255
    45aa:	4f e7       	ldi	r20, 0x7F	; 127
    45ac:	57 e4       	ldi	r21, 0x47	; 71
    45ae:	6e 85       	ldd	r22, Y+14	; 0x0e
    45b0:	7f 85       	ldd	r23, Y+15	; 0x0f
    45b2:	88 89       	ldd	r24, Y+16	; 0x10
    45b4:	99 89       	ldd	r25, Y+17	; 0x11
    45b6:	c3 d7       	rcall	.+3974   	; 0x553e <__gesf2>
    45b8:	18 16       	cp	r1, r24
    45ba:	0c f0       	brlt	.+2      	; 0x45be <make_tensometer_measure+0xe6>
    45bc:	78 c0       	rjmp	.+240    	; 0x46ae <make_tensometer_measure+0x1d6>
	{
		_delay_ms(__us / 1000.0);
    45be:	20 e0       	ldi	r18, 0x00	; 0
    45c0:	30 e0       	ldi	r19, 0x00	; 0
    45c2:	4a e7       	ldi	r20, 0x7A	; 122
    45c4:	54 e4       	ldi	r21, 0x44	; 68
    45c6:	6e 81       	ldd	r22, Y+6	; 0x06
    45c8:	7f 81       	ldd	r23, Y+7	; 0x07
    45ca:	88 85       	ldd	r24, Y+8	; 0x08
    45cc:	99 85       	ldd	r25, Y+9	; 0x09
    45ce:	6c d6       	rcall	.+3288   	; 0x52a8 <__divsf3>
    45d0:	dc 01       	movw	r26, r24
    45d2:	cb 01       	movw	r24, r22
    45d4:	8b 8b       	std	Y+19, r24	; 0x13
    45d6:	9c 8b       	std	Y+20, r25	; 0x14
    45d8:	ad 8b       	std	Y+21, r26	; 0x15
    45da:	be 8b       	std	Y+22, r27	; 0x16

	__builtin_avr_delay_cycles(__ticks_dc);

#else
	uint16_t __ticks;
	__tmp = ((F_CPU) / 4e3) * __ms;
    45dc:	20 e0       	ldi	r18, 0x00	; 0
    45de:	30 e0       	ldi	r19, 0x00	; 0
    45e0:	4a e7       	ldi	r20, 0x7A	; 122
    45e2:	55 e4       	ldi	r21, 0x45	; 69
    45e4:	6b 89       	ldd	r22, Y+19	; 0x13
    45e6:	7c 89       	ldd	r23, Y+20	; 0x14
    45e8:	8d 89       	ldd	r24, Y+21	; 0x15
    45ea:	9e 89       	ldd	r25, Y+22	; 0x16
    45ec:	ac d7       	rcall	.+3928   	; 0x5546 <__mulsf3>
    45ee:	dc 01       	movw	r26, r24
    45f0:	cb 01       	movw	r24, r22
    45f2:	8f 8b       	std	Y+23, r24	; 0x17
    45f4:	98 8f       	std	Y+24, r25	; 0x18
    45f6:	a9 8f       	std	Y+25, r26	; 0x19
    45f8:	ba 8f       	std	Y+26, r27	; 0x1a
	if (__tmp < 1.0)
    45fa:	20 e0       	ldi	r18, 0x00	; 0
    45fc:	30 e0       	ldi	r19, 0x00	; 0
    45fe:	40 e8       	ldi	r20, 0x80	; 128
    4600:	5f e3       	ldi	r21, 0x3F	; 63
    4602:	6f 89       	ldd	r22, Y+23	; 0x17
    4604:	78 8d       	ldd	r23, Y+24	; 0x18
    4606:	89 8d       	ldd	r24, Y+25	; 0x19
    4608:	9a 8d       	ldd	r25, Y+26	; 0x1a
    460a:	4a d6       	rcall	.+3220   	; 0x52a0 <__cmpsf2>
    460c:	88 23       	and	r24, r24
    460e:	2c f4       	brge	.+10     	; 0x461a <make_tensometer_measure+0x142>
		__ticks = 1;
    4610:	81 e0       	ldi	r24, 0x01	; 1
    4612:	90 e0       	ldi	r25, 0x00	; 0
    4614:	9c 8f       	std	Y+28, r25	; 0x1c
    4616:	8b 8f       	std	Y+27, r24	; 0x1b
    4618:	3d c0       	rjmp	.+122    	; 0x4694 <make_tensometer_measure+0x1bc>
	else if (__tmp > 65535)
    461a:	20 e0       	ldi	r18, 0x00	; 0
    461c:	3f ef       	ldi	r19, 0xFF	; 255
    461e:	4f e7       	ldi	r20, 0x7F	; 127
    4620:	57 e4       	ldi	r21, 0x47	; 71
    4622:	6f 89       	ldd	r22, Y+23	; 0x17
    4624:	78 8d       	ldd	r23, Y+24	; 0x18
    4626:	89 8d       	ldd	r24, Y+25	; 0x19
    4628:	9a 8d       	ldd	r25, Y+26	; 0x1a
    462a:	89 d7       	rcall	.+3858   	; 0x553e <__gesf2>
    462c:	18 16       	cp	r1, r24
    462e:	4c f5       	brge	.+82     	; 0x4682 <make_tensometer_measure+0x1aa>
	{
		//	__ticks = requested delay in 1/10 ms
		__ticks = (uint16_t) (__ms * 10.0);
    4630:	20 e0       	ldi	r18, 0x00	; 0
    4632:	30 e0       	ldi	r19, 0x00	; 0
    4634:	40 e2       	ldi	r20, 0x20	; 32
    4636:	51 e4       	ldi	r21, 0x41	; 65
    4638:	6b 89       	ldd	r22, Y+19	; 0x13
    463a:	7c 89       	ldd	r23, Y+20	; 0x14
    463c:	8d 89       	ldd	r24, Y+21	; 0x15
    463e:	9e 89       	ldd	r25, Y+22	; 0x16
    4640:	82 d7       	rcall	.+3844   	; 0x5546 <__mulsf3>
    4642:	dc 01       	movw	r26, r24
    4644:	cb 01       	movw	r24, r22
    4646:	bc 01       	movw	r22, r24
    4648:	cd 01       	movw	r24, r26
    464a:	9b d6       	rcall	.+3382   	; 0x5382 <__fixunssfsi>
    464c:	dc 01       	movw	r26, r24
    464e:	cb 01       	movw	r24, r22
    4650:	9c 8f       	std	Y+28, r25	; 0x1c
    4652:	8b 8f       	std	Y+27, r24	; 0x1b
    4654:	0f c0       	rjmp	.+30     	; 0x4674 <make_tensometer_measure+0x19c>
    4656:	80 e9       	ldi	r24, 0x90	; 144
    4658:	91 e0       	ldi	r25, 0x01	; 1
    465a:	9e 8f       	std	Y+30, r25	; 0x1e
    465c:	8d 8f       	std	Y+29, r24	; 0x1d
    465e:	8d 8d       	ldd	r24, Y+29	; 0x1d
    4660:	9e 8d       	ldd	r25, Y+30	; 0x1e
    4662:	01 97       	sbiw	r24, 0x01	; 1
    4664:	f1 f7       	brne	.-4      	; 0x4662 <make_tensometer_measure+0x18a>
    4666:	9e 8f       	std	Y+30, r25	; 0x1e
    4668:	8d 8f       	std	Y+29, r24	; 0x1d
		while(__ticks)
		{
			// wait 1/10 ms
			_delay_loop_2(((F_CPU) / 4e3) / 10);
			__ticks --;
    466a:	8b 8d       	ldd	r24, Y+27	; 0x1b
    466c:	9c 8d       	ldd	r25, Y+28	; 0x1c
    466e:	01 97       	sbiw	r24, 0x01	; 1
    4670:	9c 8f       	std	Y+28, r25	; 0x1c
    4672:	8b 8f       	std	Y+27, r24	; 0x1b
		__ticks = 1;
	else if (__tmp > 65535)
	{
		//	__ticks = requested delay in 1/10 ms
		__ticks = (uint16_t) (__ms * 10.0);
		while(__ticks)
    4674:	8b 8d       	ldd	r24, Y+27	; 0x1b
    4676:	9c 8d       	ldd	r25, Y+28	; 0x1c
    4678:	89 2b       	or	r24, r25
    467a:	69 f7       	brne	.-38     	; 0x4656 <make_tensometer_measure+0x17e>
    467c:	8e a1       	ldd	r24, Y+38	; 0x26
    467e:	8a 8b       	std	Y+18, r24	; 0x12
    4680:	3d c0       	rjmp	.+122    	; 0x46fc <make_tensometer_measure+0x224>
			__ticks --;
		}
		return;
	}
	else
		__ticks = (uint16_t)__tmp;
    4682:	6f 89       	ldd	r22, Y+23	; 0x17
    4684:	78 8d       	ldd	r23, Y+24	; 0x18
    4686:	89 8d       	ldd	r24, Y+25	; 0x19
    4688:	9a 8d       	ldd	r25, Y+26	; 0x1a
    468a:	7b d6       	rcall	.+3318   	; 0x5382 <__fixunssfsi>
    468c:	dc 01       	movw	r26, r24
    468e:	cb 01       	movw	r24, r22
    4690:	9c 8f       	std	Y+28, r25	; 0x1c
    4692:	8b 8f       	std	Y+27, r24	; 0x1b
    4694:	8b 8d       	ldd	r24, Y+27	; 0x1b
    4696:	9c 8d       	ldd	r25, Y+28	; 0x1c
    4698:	98 a3       	std	Y+32, r25	; 0x20
    469a:	8f 8f       	std	Y+31, r24	; 0x1f
    469c:	8f 8d       	ldd	r24, Y+31	; 0x1f
    469e:	98 a1       	ldd	r25, Y+32	; 0x20
    46a0:	01 97       	sbiw	r24, 0x01	; 1
    46a2:	f1 f7       	brne	.-4      	; 0x46a0 <make_tensometer_measure+0x1c8>
    46a4:	98 a3       	std	Y+32, r25	; 0x20
    46a6:	8f 8f       	std	Y+31, r24	; 0x1f
    46a8:	8e a1       	ldd	r24, Y+38	; 0x26
    46aa:	8a 8b       	std	Y+18, r24	; 0x12
    46ac:	27 c0       	rjmp	.+78     	; 0x46fc <make_tensometer_measure+0x224>
		__ticks = 1;
	else if (__tmp2 > 65535)
	{
		_delay_ms(__us / 1000.0);
	}
	else if (__tmp > 255)
    46ae:	20 e0       	ldi	r18, 0x00	; 0
    46b0:	30 e0       	ldi	r19, 0x00	; 0
    46b2:	4f e7       	ldi	r20, 0x7F	; 127
    46b4:	53 e4       	ldi	r21, 0x43	; 67
    46b6:	6a 85       	ldd	r22, Y+10	; 0x0a
    46b8:	7b 85       	ldd	r23, Y+11	; 0x0b
    46ba:	8c 85       	ldd	r24, Y+12	; 0x0c
    46bc:	9d 85       	ldd	r25, Y+13	; 0x0d
    46be:	3f d7       	rcall	.+3710   	; 0x553e <__gesf2>
    46c0:	18 16       	cp	r1, r24
    46c2:	a4 f4       	brge	.+40     	; 0x46ec <make_tensometer_measure+0x214>
	{
		uint16_t __ticks=(uint16_t)__tmp2;
    46c4:	6e 85       	ldd	r22, Y+14	; 0x0e
    46c6:	7f 85       	ldd	r23, Y+15	; 0x0f
    46c8:	88 89       	ldd	r24, Y+16	; 0x10
    46ca:	99 89       	ldd	r25, Y+17	; 0x11
    46cc:	5a d6       	rcall	.+3252   	; 0x5382 <__fixunssfsi>
    46ce:	dc 01       	movw	r26, r24
    46d0:	cb 01       	movw	r24, r22
    46d2:	9a a3       	std	Y+34, r25	; 0x22
    46d4:	89 a3       	std	Y+33, r24	; 0x21
    46d6:	89 a1       	ldd	r24, Y+33	; 0x21
    46d8:	9a a1       	ldd	r25, Y+34	; 0x22
    46da:	9c a3       	std	Y+36, r25	; 0x24
    46dc:	8b a3       	std	Y+35, r24	; 0x23
    46de:	8b a1       	ldd	r24, Y+35	; 0x23
    46e0:	9c a1       	ldd	r25, Y+36	; 0x24
    46e2:	01 97       	sbiw	r24, 0x01	; 1
    46e4:	f1 f7       	brne	.-4      	; 0x46e2 <make_tensometer_measure+0x20a>
    46e6:	9c a3       	std	Y+36, r25	; 0x24
    46e8:	8b a3       	std	Y+35, r24	; 0x23
    46ea:	0e c0       	rjmp	.+28     	; 0x4708 <make_tensometer_measure+0x230>
		_delay_loop_2(__ticks);
		return;
	}
	else
		__ticks = (uint8_t)__tmp;
    46ec:	6a 85       	ldd	r22, Y+10	; 0x0a
    46ee:	7b 85       	ldd	r23, Y+11	; 0x0b
    46f0:	8c 85       	ldd	r24, Y+12	; 0x0c
    46f2:	9d 85       	ldd	r25, Y+13	; 0x0d
    46f4:	46 d6       	rcall	.+3212   	; 0x5382 <__fixunssfsi>
    46f6:	dc 01       	movw	r26, r24
    46f8:	cb 01       	movw	r24, r22
    46fa:	8a 8b       	std	Y+18, r24	; 0x12
    46fc:	8a 89       	ldd	r24, Y+18	; 0x12
    46fe:	8d a3       	std	Y+37, r24	; 0x25
    can be achieved.
*/
void
_delay_loop_1(uint8_t __count)
{
	__asm__ volatile (
    4700:	8d a1       	ldd	r24, Y+37	; 0x25
    4702:	8a 95       	dec	r24
    4704:	f1 f7       	brne	.-4      	; 0x4702 <make_tensometer_measure+0x22a>
    4706:	8d a3       	std	Y+37, r24	; 0x25
			_delay_us(2);
			if(ADS_DRDY_IF_HI) data |= 1;
    4708:	86 e0       	ldi	r24, 0x06	; 6
    470a:	91 e0       	ldi	r25, 0x01	; 1
    470c:	fc 01       	movw	r30, r24
    470e:	80 81       	ld	r24, Z
    4710:	88 2f       	mov	r24, r24
    4712:	90 e0       	ldi	r25, 0x00	; 0
    4714:	80 71       	andi	r24, 0x10	; 16
    4716:	99 27       	eor	r25, r25
    4718:	89 2b       	or	r24, r25
    471a:	49 f0       	breq	.+18     	; 0x472e <make_tensometer_measure+0x256>
    471c:	89 81       	ldd	r24, Y+1	; 0x01
    471e:	9a 81       	ldd	r25, Y+2	; 0x02
    4720:	ab 81       	ldd	r26, Y+3	; 0x03
    4722:	bc 81       	ldd	r27, Y+4	; 0x04
    4724:	81 60       	ori	r24, 0x01	; 1
    4726:	89 83       	std	Y+1, r24	; 0x01
    4728:	9a 83       	std	Y+2, r25	; 0x02
    472a:	ab 83       	std	Y+3, r26	; 0x03
    472c:	bc 83       	std	Y+4, r27	; 0x04
			ADS_SCLK_LOW;
    472e:	88 e0       	ldi	r24, 0x08	; 8
    4730:	91 e0       	ldi	r25, 0x01	; 1
    4732:	28 e0       	ldi	r18, 0x08	; 8
    4734:	31 e0       	ldi	r19, 0x01	; 1
    4736:	f9 01       	movw	r30, r18
    4738:	20 81       	ld	r18, Z
    473a:	27 7f       	andi	r18, 0xF7	; 247
    473c:	fc 01       	movw	r30, r24
    473e:	20 83       	st	Z, r18
    4740:	80 e0       	ldi	r24, 0x00	; 0
    4742:	90 e0       	ldi	r25, 0x00	; 0
    4744:	a0 e0       	ldi	r26, 0x00	; 0
    4746:	b0 e4       	ldi	r27, 0x40	; 64
    4748:	8f a3       	std	Y+39, r24	; 0x27
    474a:	98 a7       	std	Y+40, r25	; 0x28
    474c:	a9 a7       	std	Y+41, r26	; 0x29
    474e:	ba a7       	std	Y+42, r27	; 0x2a
	__builtin_avr_delay_cycles(__ticks_dc);

#else
	uint8_t __ticks;
	double __tmp2 ;
	__tmp = ((F_CPU) / 3e6) * __us;
    4750:	2b ea       	ldi	r18, 0xAB	; 171
    4752:	3a ea       	ldi	r19, 0xAA	; 170
    4754:	4a ea       	ldi	r20, 0xAA	; 170
    4756:	50 e4       	ldi	r21, 0x40	; 64
    4758:	6f a1       	ldd	r22, Y+39	; 0x27
    475a:	78 a5       	ldd	r23, Y+40	; 0x28
    475c:	89 a5       	ldd	r24, Y+41	; 0x29
    475e:	9a a5       	ldd	r25, Y+42	; 0x2a
    4760:	f2 d6       	rcall	.+3556   	; 0x5546 <__mulsf3>
    4762:	dc 01       	movw	r26, r24
    4764:	cb 01       	movw	r24, r22
    4766:	8b a7       	std	Y+43, r24	; 0x2b
    4768:	9c a7       	std	Y+44, r25	; 0x2c
    476a:	ad a7       	std	Y+45, r26	; 0x2d
    476c:	be a7       	std	Y+46, r27	; 0x2e
	__tmp2 = ((F_CPU) / 4e6) * __us;
    476e:	20 e0       	ldi	r18, 0x00	; 0
    4770:	30 e0       	ldi	r19, 0x00	; 0
    4772:	40 e8       	ldi	r20, 0x80	; 128
    4774:	50 e4       	ldi	r21, 0x40	; 64
    4776:	6f a1       	ldd	r22, Y+39	; 0x27
    4778:	78 a5       	ldd	r23, Y+40	; 0x28
    477a:	89 a5       	ldd	r24, Y+41	; 0x29
    477c:	9a a5       	ldd	r25, Y+42	; 0x2a
    477e:	e3 d6       	rcall	.+3526   	; 0x5546 <__mulsf3>
    4780:	dc 01       	movw	r26, r24
    4782:	cb 01       	movw	r24, r22
    4784:	8f a7       	std	Y+47, r24	; 0x2f
    4786:	98 ab       	std	Y+48, r25	; 0x30
    4788:	a9 ab       	std	Y+49, r26	; 0x31
    478a:	ba ab       	std	Y+50, r27	; 0x32
	if (__tmp < 1.0)
    478c:	20 e0       	ldi	r18, 0x00	; 0
    478e:	30 e0       	ldi	r19, 0x00	; 0
    4790:	40 e8       	ldi	r20, 0x80	; 128
    4792:	5f e3       	ldi	r21, 0x3F	; 63
    4794:	6b a5       	ldd	r22, Y+43	; 0x2b
    4796:	7c a5       	ldd	r23, Y+44	; 0x2c
    4798:	8d a5       	ldd	r24, Y+45	; 0x2d
    479a:	9e a5       	ldd	r25, Y+46	; 0x2e
    479c:	81 d5       	rcall	.+2818   	; 0x52a0 <__cmpsf2>
    479e:	88 23       	and	r24, r24
    47a0:	1c f4       	brge	.+6      	; 0x47a8 <make_tensometer_measure+0x2d0>
		__ticks = 1;
    47a2:	81 e0       	ldi	r24, 0x01	; 1
    47a4:	8b ab       	std	Y+51, r24	; 0x33
    47a6:	d3 c0       	rjmp	.+422    	; 0x494e <make_tensometer_measure+0x476>
	else if (__tmp2 > 65535)
    47a8:	20 e0       	ldi	r18, 0x00	; 0
    47aa:	3f ef       	ldi	r19, 0xFF	; 255
    47ac:	4f e7       	ldi	r20, 0x7F	; 127
    47ae:	57 e4       	ldi	r21, 0x47	; 71
    47b0:	6f a5       	ldd	r22, Y+47	; 0x2f
    47b2:	78 a9       	ldd	r23, Y+48	; 0x30
    47b4:	89 a9       	ldd	r24, Y+49	; 0x31
    47b6:	9a a9       	ldd	r25, Y+50	; 0x32
    47b8:	c2 d6       	rcall	.+3460   	; 0x553e <__gesf2>
    47ba:	18 16       	cp	r1, r24
    47bc:	0c f0       	brlt	.+2      	; 0x47c0 <make_tensometer_measure+0x2e8>
    47be:	8c c0       	rjmp	.+280    	; 0x48d8 <make_tensometer_measure+0x400>
	{
		_delay_ms(__us / 1000.0);
    47c0:	20 e0       	ldi	r18, 0x00	; 0
    47c2:	30 e0       	ldi	r19, 0x00	; 0
    47c4:	4a e7       	ldi	r20, 0x7A	; 122
    47c6:	54 e4       	ldi	r21, 0x44	; 68
    47c8:	6f a1       	ldd	r22, Y+39	; 0x27
    47ca:	78 a5       	ldd	r23, Y+40	; 0x28
    47cc:	89 a5       	ldd	r24, Y+41	; 0x29
    47ce:	9a a5       	ldd	r25, Y+42	; 0x2a
    47d0:	6b d5       	rcall	.+2774   	; 0x52a8 <__divsf3>
    47d2:	dc 01       	movw	r26, r24
    47d4:	cb 01       	movw	r24, r22
    47d6:	8c ab       	std	Y+52, r24	; 0x34
    47d8:	9d ab       	std	Y+53, r25	; 0x35
    47da:	ae ab       	std	Y+54, r26	; 0x36
    47dc:	bf ab       	std	Y+55, r27	; 0x37

	__builtin_avr_delay_cycles(__ticks_dc);

#else
	uint16_t __ticks;
	__tmp = ((F_CPU) / 4e3) * __ms;
    47de:	20 e0       	ldi	r18, 0x00	; 0
    47e0:	30 e0       	ldi	r19, 0x00	; 0
    47e2:	4a e7       	ldi	r20, 0x7A	; 122
    47e4:	55 e4       	ldi	r21, 0x45	; 69
    47e6:	6c a9       	ldd	r22, Y+52	; 0x34
    47e8:	7d a9       	ldd	r23, Y+53	; 0x35
    47ea:	8e a9       	ldd	r24, Y+54	; 0x36
    47ec:	9f a9       	ldd	r25, Y+55	; 0x37
    47ee:	ab d6       	rcall	.+3414   	; 0x5546 <__mulsf3>
    47f0:	dc 01       	movw	r26, r24
    47f2:	cb 01       	movw	r24, r22
    47f4:	88 af       	std	Y+56, r24	; 0x38
    47f6:	99 af       	std	Y+57, r25	; 0x39
    47f8:	aa af       	std	Y+58, r26	; 0x3a
    47fa:	bb af       	std	Y+59, r27	; 0x3b
	if (__tmp < 1.0)
    47fc:	20 e0       	ldi	r18, 0x00	; 0
    47fe:	30 e0       	ldi	r19, 0x00	; 0
    4800:	40 e8       	ldi	r20, 0x80	; 128
    4802:	5f e3       	ldi	r21, 0x3F	; 63
    4804:	68 ad       	ldd	r22, Y+56	; 0x38
    4806:	79 ad       	ldd	r23, Y+57	; 0x39
    4808:	8a ad       	ldd	r24, Y+58	; 0x3a
    480a:	9b ad       	ldd	r25, Y+59	; 0x3b
    480c:	49 d5       	rcall	.+2706   	; 0x52a0 <__cmpsf2>
    480e:	88 23       	and	r24, r24
    4810:	2c f4       	brge	.+10     	; 0x481c <make_tensometer_measure+0x344>
		__ticks = 1;
    4812:	81 e0       	ldi	r24, 0x01	; 1
    4814:	90 e0       	ldi	r25, 0x00	; 0
    4816:	9d af       	std	Y+61, r25	; 0x3d
    4818:	8c af       	std	Y+60, r24	; 0x3c
    481a:	41 c0       	rjmp	.+130    	; 0x489e <make_tensometer_measure+0x3c6>
	else if (__tmp > 65535)
    481c:	20 e0       	ldi	r18, 0x00	; 0
    481e:	3f ef       	ldi	r19, 0xFF	; 255
    4820:	4f e7       	ldi	r20, 0x7F	; 127
    4822:	57 e4       	ldi	r21, 0x47	; 71
    4824:	68 ad       	ldd	r22, Y+56	; 0x38
    4826:	79 ad       	ldd	r23, Y+57	; 0x39
    4828:	8a ad       	ldd	r24, Y+58	; 0x3a
    482a:	9b ad       	ldd	r25, Y+59	; 0x3b
    482c:	88 d6       	rcall	.+3344   	; 0x553e <__gesf2>
    482e:	18 16       	cp	r1, r24
    4830:	6c f5       	brge	.+90     	; 0x488c <make_tensometer_measure+0x3b4>
	{
		//	__ticks = requested delay in 1/10 ms
		__ticks = (uint16_t) (__ms * 10.0);
    4832:	20 e0       	ldi	r18, 0x00	; 0
    4834:	30 e0       	ldi	r19, 0x00	; 0
    4836:	40 e2       	ldi	r20, 0x20	; 32
    4838:	51 e4       	ldi	r21, 0x41	; 65
    483a:	6c a9       	ldd	r22, Y+52	; 0x34
    483c:	7d a9       	ldd	r23, Y+53	; 0x35
    483e:	8e a9       	ldd	r24, Y+54	; 0x36
    4840:	9f a9       	ldd	r25, Y+55	; 0x37
    4842:	81 d6       	rcall	.+3330   	; 0x5546 <__mulsf3>
    4844:	dc 01       	movw	r26, r24
    4846:	cb 01       	movw	r24, r22
    4848:	bc 01       	movw	r22, r24
    484a:	cd 01       	movw	r24, r26
    484c:	9a d5       	rcall	.+2868   	; 0x5382 <__fixunssfsi>
    484e:	dc 01       	movw	r26, r24
    4850:	cb 01       	movw	r24, r22
    4852:	9d af       	std	Y+61, r25	; 0x3d
    4854:	8c af       	std	Y+60, r24	; 0x3c
    4856:	0f c0       	rjmp	.+30     	; 0x4876 <make_tensometer_measure+0x39e>
    4858:	80 e9       	ldi	r24, 0x90	; 144
    485a:	91 e0       	ldi	r25, 0x01	; 1
    485c:	9f af       	std	Y+63, r25	; 0x3f
    485e:	8e af       	std	Y+62, r24	; 0x3e
    milliseconds can be achieved.
 */
void
_delay_loop_2(uint16_t __count)
{
	__asm__ volatile (
    4860:	8e ad       	ldd	r24, Y+62	; 0x3e
    4862:	9f ad       	ldd	r25, Y+63	; 0x3f
    4864:	01 97       	sbiw	r24, 0x01	; 1
    4866:	f1 f7       	brne	.-4      	; 0x4864 <make_tensometer_measure+0x38c>
    4868:	9f af       	std	Y+63, r25	; 0x3f
    486a:	8e af       	std	Y+62, r24	; 0x3e
		while(__ticks)
		{
			// wait 1/10 ms
			_delay_loop_2(((F_CPU) / 4e3) / 10);
			__ticks --;
    486c:	8c ad       	ldd	r24, Y+60	; 0x3c
    486e:	9d ad       	ldd	r25, Y+61	; 0x3d
    4870:	01 97       	sbiw	r24, 0x01	; 1
    4872:	9d af       	std	Y+61, r25	; 0x3d
    4874:	8c af       	std	Y+60, r24	; 0x3c
		__ticks = 1;
	else if (__tmp > 65535)
	{
		//	__ticks = requested delay in 1/10 ms
		__ticks = (uint16_t) (__ms * 10.0);
		while(__ticks)
    4876:	8c ad       	ldd	r24, Y+60	; 0x3c
    4878:	9d ad       	ldd	r25, Y+61	; 0x3d
    487a:	89 2b       	or	r24, r25
    487c:	69 f7       	brne	.-38     	; 0x4858 <make_tensometer_measure+0x380>
    487e:	ce 01       	movw	r24, r28
    4880:	89 5b       	subi	r24, 0xB9	; 185
    4882:	9f 4f       	sbci	r25, 0xFF	; 255
    4884:	fc 01       	movw	r30, r24
    4886:	80 81       	ld	r24, Z
    4888:	8b ab       	std	Y+51, r24	; 0x33
    488a:	61 c0       	rjmp	.+194    	; 0x494e <make_tensometer_measure+0x476>
			__ticks --;
		}
		return;
	}
	else
		__ticks = (uint16_t)__tmp;
    488c:	68 ad       	ldd	r22, Y+56	; 0x38
    488e:	79 ad       	ldd	r23, Y+57	; 0x39
    4890:	8a ad       	ldd	r24, Y+58	; 0x3a
    4892:	9b ad       	ldd	r25, Y+59	; 0x3b
    4894:	76 d5       	rcall	.+2796   	; 0x5382 <__fixunssfsi>
    4896:	dc 01       	movw	r26, r24
    4898:	cb 01       	movw	r24, r22
    489a:	9d af       	std	Y+61, r25	; 0x3d
    489c:	8c af       	std	Y+60, r24	; 0x3c
    489e:	ce 01       	movw	r24, r28
    48a0:	80 5c       	subi	r24, 0xC0	; 192
    48a2:	9f 4f       	sbci	r25, 0xFF	; 255
    48a4:	2c ad       	ldd	r18, Y+60	; 0x3c
    48a6:	3d ad       	ldd	r19, Y+61	; 0x3d
    48a8:	fc 01       	movw	r30, r24
    48aa:	31 83       	std	Z+1, r19	; 0x01
    48ac:	20 83       	st	Z, r18
    48ae:	ce 01       	movw	r24, r28
    48b0:	80 5c       	subi	r24, 0xC0	; 192
    48b2:	9f 4f       	sbci	r25, 0xFF	; 255
    48b4:	fc 01       	movw	r30, r24
    48b6:	80 81       	ld	r24, Z
    48b8:	91 81       	ldd	r25, Z+1	; 0x01
    48ba:	01 97       	sbiw	r24, 0x01	; 1
    48bc:	f1 f7       	brne	.-4      	; 0x48ba <make_tensometer_measure+0x3e2>
    48be:	9e 01       	movw	r18, r28
    48c0:	20 5c       	subi	r18, 0xC0	; 192
    48c2:	3f 4f       	sbci	r19, 0xFF	; 255
    48c4:	f9 01       	movw	r30, r18
    48c6:	91 83       	std	Z+1, r25	; 0x01
    48c8:	80 83       	st	Z, r24
    48ca:	ce 01       	movw	r24, r28
    48cc:	89 5b       	subi	r24, 0xB9	; 185
    48ce:	9f 4f       	sbci	r25, 0xFF	; 255
    48d0:	fc 01       	movw	r30, r24
    48d2:	80 81       	ld	r24, Z
    48d4:	8b ab       	std	Y+51, r24	; 0x33
    48d6:	3b c0       	rjmp	.+118    	; 0x494e <make_tensometer_measure+0x476>
		__ticks = 1;
	else if (__tmp2 > 65535)
	{
		_delay_ms(__us / 1000.0);
	}
	else if (__tmp > 255)
    48d8:	20 e0       	ldi	r18, 0x00	; 0
    48da:	30 e0       	ldi	r19, 0x00	; 0
    48dc:	4f e7       	ldi	r20, 0x7F	; 127
    48de:	53 e4       	ldi	r21, 0x43	; 67
    48e0:	6b a5       	ldd	r22, Y+43	; 0x2b
    48e2:	7c a5       	ldd	r23, Y+44	; 0x2c
    48e4:	8d a5       	ldd	r24, Y+45	; 0x2d
    48e6:	9e a5       	ldd	r25, Y+46	; 0x2e
    48e8:	2a d6       	rcall	.+3156   	; 0x553e <__gesf2>
    48ea:	18 16       	cp	r1, r24
    48ec:	44 f5       	brge	.+80     	; 0x493e <make_tensometer_measure+0x466>
	{
		uint16_t __ticks=(uint16_t)__tmp2;
    48ee:	8e 01       	movw	r16, r28
    48f0:	0e 5b       	subi	r16, 0xBE	; 190
    48f2:	1f 4f       	sbci	r17, 0xFF	; 255
    48f4:	6f a5       	ldd	r22, Y+47	; 0x2f
    48f6:	78 a9       	ldd	r23, Y+48	; 0x30
    48f8:	89 a9       	ldd	r24, Y+49	; 0x31
    48fa:	9a a9       	ldd	r25, Y+50	; 0x32
    48fc:	42 d5       	rcall	.+2692   	; 0x5382 <__fixunssfsi>
    48fe:	dc 01       	movw	r26, r24
    4900:	cb 01       	movw	r24, r22
    4902:	f8 01       	movw	r30, r16
    4904:	91 83       	std	Z+1, r25	; 0x01
    4906:	80 83       	st	Z, r24
    4908:	ce 01       	movw	r24, r28
    490a:	8c 5b       	subi	r24, 0xBC	; 188
    490c:	9f 4f       	sbci	r25, 0xFF	; 255
    490e:	9e 01       	movw	r18, r28
    4910:	2e 5b       	subi	r18, 0xBE	; 190
    4912:	3f 4f       	sbci	r19, 0xFF	; 255
    4914:	f9 01       	movw	r30, r18
    4916:	20 81       	ld	r18, Z
    4918:	31 81       	ldd	r19, Z+1	; 0x01
    491a:	fc 01       	movw	r30, r24
    491c:	31 83       	std	Z+1, r19	; 0x01
    491e:	20 83       	st	Z, r18
    4920:	ce 01       	movw	r24, r28
    4922:	8c 5b       	subi	r24, 0xBC	; 188
    4924:	9f 4f       	sbci	r25, 0xFF	; 255
    4926:	fc 01       	movw	r30, r24
    4928:	80 81       	ld	r24, Z
    492a:	91 81       	ldd	r25, Z+1	; 0x01
    492c:	01 97       	sbiw	r24, 0x01	; 1
    492e:	f1 f7       	brne	.-4      	; 0x492c <make_tensometer_measure+0x454>
    4930:	9e 01       	movw	r18, r28
    4932:	2c 5b       	subi	r18, 0xBC	; 188
    4934:	3f 4f       	sbci	r19, 0xFF	; 255
    4936:	f9 01       	movw	r30, r18
    4938:	91 83       	std	Z+1, r25	; 0x01
    493a:	80 83       	st	Z, r24
    493c:	1b c0       	rjmp	.+54     	; 0x4974 <make_tensometer_measure+0x49c>
		_delay_loop_2(__ticks);
		return;
	}
	else
		__ticks = (uint8_t)__tmp;
    493e:	6b a5       	ldd	r22, Y+43	; 0x2b
    4940:	7c a5       	ldd	r23, Y+44	; 0x2c
    4942:	8d a5       	ldd	r24, Y+45	; 0x2d
    4944:	9e a5       	ldd	r25, Y+46	; 0x2e
    4946:	1d d5       	rcall	.+2618   	; 0x5382 <__fixunssfsi>
    4948:	dc 01       	movw	r26, r24
    494a:	cb 01       	movw	r24, r22
    494c:	8b ab       	std	Y+51, r24	; 0x33
    494e:	ce 01       	movw	r24, r28
    4950:	8a 5b       	subi	r24, 0xBA	; 186
    4952:	9f 4f       	sbci	r25, 0xFF	; 255
    4954:	2b a9       	ldd	r18, Y+51	; 0x33
    4956:	fc 01       	movw	r30, r24
    4958:	20 83       	st	Z, r18
    can be achieved.
*/
void
_delay_loop_1(uint8_t __count)
{
	__asm__ volatile (
    495a:	ce 01       	movw	r24, r28
    495c:	8a 5b       	subi	r24, 0xBA	; 186
    495e:	9f 4f       	sbci	r25, 0xFF	; 255
    4960:	fc 01       	movw	r30, r24
    4962:	80 81       	ld	r24, Z
    4964:	28 2f       	mov	r18, r24
    4966:	2a 95       	dec	r18
    4968:	f1 f7       	brne	.-4      	; 0x4966 <make_tensometer_measure+0x48e>
    496a:	ce 01       	movw	r24, r28
    496c:	8a 5b       	subi	r24, 0xBA	; 186
    496e:	9f 4f       	sbci	r25, 0xFF	; 255
    4970:	fc 01       	movw	r30, r24
    4972:	20 83       	st	Z, r18
		//static uint32_t tempPreCalculateMeasure=0;
		int32_t data=0; 
		
		while (ADS_DRDY_IF_HI);	// Czekamy na koniec przetwarzania
			
		for(uint8_t i=0; i<24; i++)
    4974:	8d 81       	ldd	r24, Y+5	; 0x05
    4976:	8f 5f       	subi	r24, 0xFF	; 255
    4978:	8d 83       	std	Y+5, r24	; 0x05
    497a:	8d 81       	ldd	r24, Y+5	; 0x05
    497c:	88 31       	cpi	r24, 0x18	; 24
    497e:	08 f4       	brcc	.+2      	; 0x4982 <make_tensometer_measure+0x4aa>
    4980:	c9 cd       	rjmp	.-1134   	; 0x4514 <make_tensometer_measure+0x3c>
			if(ADS_DRDY_IF_HI) data |= 1;
			ADS_SCLK_LOW;
			_delay_us(2);
		}
			
		ADS_SCLK_HIGH;
    4982:	88 e0       	ldi	r24, 0x08	; 8
    4984:	91 e0       	ldi	r25, 0x01	; 1
    4986:	28 e0       	ldi	r18, 0x08	; 8
    4988:	31 e0       	ldi	r19, 0x01	; 1
    498a:	f9 01       	movw	r30, r18
    498c:	20 81       	ld	r18, Z
    498e:	28 60       	ori	r18, 0x08	; 8
    4990:	fc 01       	movw	r30, r24
    4992:	20 83       	st	Z, r18
    4994:	9e 01       	movw	r18, r28
    4996:	28 5b       	subi	r18, 0xB8	; 184
    4998:	3f 4f       	sbci	r19, 0xFF	; 255
    499a:	80 e0       	ldi	r24, 0x00	; 0
    499c:	90 e0       	ldi	r25, 0x00	; 0
    499e:	a0 e0       	ldi	r26, 0x00	; 0
    49a0:	b0 e4       	ldi	r27, 0x40	; 64
    49a2:	f9 01       	movw	r30, r18
    49a4:	80 83       	st	Z, r24
    49a6:	91 83       	std	Z+1, r25	; 0x01
    49a8:	a2 83       	std	Z+2, r26	; 0x02
    49aa:	b3 83       	std	Z+3, r27	; 0x03
	__builtin_avr_delay_cycles(__ticks_dc);

#else
	uint8_t __ticks;
	double __tmp2 ;
	__tmp = ((F_CPU) / 3e6) * __us;
    49ac:	8e 01       	movw	r16, r28
    49ae:	04 5b       	subi	r16, 0xB4	; 180
    49b0:	1f 4f       	sbci	r17, 0xFF	; 255
    49b2:	ce 01       	movw	r24, r28
    49b4:	88 5b       	subi	r24, 0xB8	; 184
    49b6:	9f 4f       	sbci	r25, 0xFF	; 255
    49b8:	2b ea       	ldi	r18, 0xAB	; 171
    49ba:	3a ea       	ldi	r19, 0xAA	; 170
    49bc:	4a ea       	ldi	r20, 0xAA	; 170
    49be:	50 e4       	ldi	r21, 0x40	; 64
    49c0:	fc 01       	movw	r30, r24
    49c2:	60 81       	ld	r22, Z
    49c4:	71 81       	ldd	r23, Z+1	; 0x01
    49c6:	82 81       	ldd	r24, Z+2	; 0x02
    49c8:	93 81       	ldd	r25, Z+3	; 0x03
    49ca:	bd d5       	rcall	.+2938   	; 0x5546 <__mulsf3>
    49cc:	dc 01       	movw	r26, r24
    49ce:	cb 01       	movw	r24, r22
    49d0:	f8 01       	movw	r30, r16
    49d2:	80 83       	st	Z, r24
    49d4:	91 83       	std	Z+1, r25	; 0x01
    49d6:	a2 83       	std	Z+2, r26	; 0x02
    49d8:	b3 83       	std	Z+3, r27	; 0x03
	__tmp2 = ((F_CPU) / 4e6) * __us;
    49da:	8e 01       	movw	r16, r28
    49dc:	00 5b       	subi	r16, 0xB0	; 176
    49de:	1f 4f       	sbci	r17, 0xFF	; 255
    49e0:	ce 01       	movw	r24, r28
    49e2:	88 5b       	subi	r24, 0xB8	; 184
    49e4:	9f 4f       	sbci	r25, 0xFF	; 255
    49e6:	20 e0       	ldi	r18, 0x00	; 0
    49e8:	30 e0       	ldi	r19, 0x00	; 0
    49ea:	40 e8       	ldi	r20, 0x80	; 128
    49ec:	50 e4       	ldi	r21, 0x40	; 64
    49ee:	fc 01       	movw	r30, r24
    49f0:	60 81       	ld	r22, Z
    49f2:	71 81       	ldd	r23, Z+1	; 0x01
    49f4:	82 81       	ldd	r24, Z+2	; 0x02
    49f6:	93 81       	ldd	r25, Z+3	; 0x03
    49f8:	a6 d5       	rcall	.+2892   	; 0x5546 <__mulsf3>
    49fa:	dc 01       	movw	r26, r24
    49fc:	cb 01       	movw	r24, r22
    49fe:	f8 01       	movw	r30, r16
    4a00:	80 83       	st	Z, r24
    4a02:	91 83       	std	Z+1, r25	; 0x01
    4a04:	a2 83       	std	Z+2, r26	; 0x02
    4a06:	b3 83       	std	Z+3, r27	; 0x03
	if (__tmp < 1.0)
    4a08:	ce 01       	movw	r24, r28
    4a0a:	84 5b       	subi	r24, 0xB4	; 180
    4a0c:	9f 4f       	sbci	r25, 0xFF	; 255
    4a0e:	20 e0       	ldi	r18, 0x00	; 0
    4a10:	30 e0       	ldi	r19, 0x00	; 0
    4a12:	40 e8       	ldi	r20, 0x80	; 128
    4a14:	5f e3       	ldi	r21, 0x3F	; 63
    4a16:	fc 01       	movw	r30, r24
    4a18:	60 81       	ld	r22, Z
    4a1a:	71 81       	ldd	r23, Z+1	; 0x01
    4a1c:	82 81       	ldd	r24, Z+2	; 0x02
    4a1e:	93 81       	ldd	r25, Z+3	; 0x03
    4a20:	3f d4       	rcall	.+2174   	; 0x52a0 <__cmpsf2>
    4a22:	88 23       	and	r24, r24
    4a24:	3c f4       	brge	.+14     	; 0x4a34 <make_tensometer_measure+0x55c>
		__ticks = 1;
    4a26:	ce 01       	movw	r24, r28
    4a28:	8c 5a       	subi	r24, 0xAC	; 172
    4a2a:	9f 4f       	sbci	r25, 0xFF	; 255
    4a2c:	21 e0       	ldi	r18, 0x01	; 1
    4a2e:	fc 01       	movw	r30, r24
    4a30:	20 83       	st	Z, r18
    4a32:	25 c1       	rjmp	.+586    	; 0x4c7e <make_tensometer_measure+0x7a6>
	else if (__tmp2 > 65535)
    4a34:	ce 01       	movw	r24, r28
    4a36:	80 5b       	subi	r24, 0xB0	; 176
    4a38:	9f 4f       	sbci	r25, 0xFF	; 255
    4a3a:	20 e0       	ldi	r18, 0x00	; 0
    4a3c:	3f ef       	ldi	r19, 0xFF	; 255
    4a3e:	4f e7       	ldi	r20, 0x7F	; 127
    4a40:	57 e4       	ldi	r21, 0x47	; 71
    4a42:	fc 01       	movw	r30, r24
    4a44:	60 81       	ld	r22, Z
    4a46:	71 81       	ldd	r23, Z+1	; 0x01
    4a48:	82 81       	ldd	r24, Z+2	; 0x02
    4a4a:	93 81       	ldd	r25, Z+3	; 0x03
    4a4c:	78 d5       	rcall	.+2800   	; 0x553e <__gesf2>
    4a4e:	18 16       	cp	r1, r24
    4a50:	0c f0       	brlt	.+2      	; 0x4a54 <make_tensometer_measure+0x57c>
    4a52:	ca c0       	rjmp	.+404    	; 0x4be8 <make_tensometer_measure+0x710>
	{
		_delay_ms(__us / 1000.0);
    4a54:	ce 01       	movw	r24, r28
    4a56:	88 5b       	subi	r24, 0xB8	; 184
    4a58:	9f 4f       	sbci	r25, 0xFF	; 255
    4a5a:	20 e0       	ldi	r18, 0x00	; 0
    4a5c:	30 e0       	ldi	r19, 0x00	; 0
    4a5e:	4a e7       	ldi	r20, 0x7A	; 122
    4a60:	54 e4       	ldi	r21, 0x44	; 68
    4a62:	fc 01       	movw	r30, r24
    4a64:	60 81       	ld	r22, Z
    4a66:	71 81       	ldd	r23, Z+1	; 0x01
    4a68:	82 81       	ldd	r24, Z+2	; 0x02
    4a6a:	93 81       	ldd	r25, Z+3	; 0x03
    4a6c:	1d d4       	rcall	.+2106   	; 0x52a8 <__divsf3>
    4a6e:	dc 01       	movw	r26, r24
    4a70:	cb 01       	movw	r24, r22
    4a72:	9e 01       	movw	r18, r28
    4a74:	2b 5a       	subi	r18, 0xAB	; 171
    4a76:	3f 4f       	sbci	r19, 0xFF	; 255
    4a78:	f9 01       	movw	r30, r18
    4a7a:	80 83       	st	Z, r24
    4a7c:	91 83       	std	Z+1, r25	; 0x01
    4a7e:	a2 83       	std	Z+2, r26	; 0x02
    4a80:	b3 83       	std	Z+3, r27	; 0x03

	__builtin_avr_delay_cycles(__ticks_dc);

#else
	uint16_t __ticks;
	__tmp = ((F_CPU) / 4e3) * __ms;
    4a82:	8e 01       	movw	r16, r28
    4a84:	07 5a       	subi	r16, 0xA7	; 167
    4a86:	1f 4f       	sbci	r17, 0xFF	; 255
    4a88:	ce 01       	movw	r24, r28
    4a8a:	8b 5a       	subi	r24, 0xAB	; 171
    4a8c:	9f 4f       	sbci	r25, 0xFF	; 255
    4a8e:	20 e0       	ldi	r18, 0x00	; 0
    4a90:	30 e0       	ldi	r19, 0x00	; 0
    4a92:	4a e7       	ldi	r20, 0x7A	; 122
    4a94:	55 e4       	ldi	r21, 0x45	; 69
    4a96:	fc 01       	movw	r30, r24
    4a98:	60 81       	ld	r22, Z
    4a9a:	71 81       	ldd	r23, Z+1	; 0x01
    4a9c:	82 81       	ldd	r24, Z+2	; 0x02
    4a9e:	93 81       	ldd	r25, Z+3	; 0x03
    4aa0:	52 d5       	rcall	.+2724   	; 0x5546 <__mulsf3>
    4aa2:	dc 01       	movw	r26, r24
    4aa4:	cb 01       	movw	r24, r22
    4aa6:	f8 01       	movw	r30, r16
    4aa8:	80 83       	st	Z, r24
    4aaa:	91 83       	std	Z+1, r25	; 0x01
    4aac:	a2 83       	std	Z+2, r26	; 0x02
    4aae:	b3 83       	std	Z+3, r27	; 0x03
	if (__tmp < 1.0)
    4ab0:	ce 01       	movw	r24, r28
    4ab2:	87 5a       	subi	r24, 0xA7	; 167
    4ab4:	9f 4f       	sbci	r25, 0xFF	; 255
    4ab6:	20 e0       	ldi	r18, 0x00	; 0
    4ab8:	30 e0       	ldi	r19, 0x00	; 0
    4aba:	40 e8       	ldi	r20, 0x80	; 128
    4abc:	5f e3       	ldi	r21, 0x3F	; 63
    4abe:	fc 01       	movw	r30, r24
    4ac0:	60 81       	ld	r22, Z
    4ac2:	71 81       	ldd	r23, Z+1	; 0x01
    4ac4:	82 81       	ldd	r24, Z+2	; 0x02
    4ac6:	93 81       	ldd	r25, Z+3	; 0x03
    4ac8:	eb d3       	rcall	.+2006   	; 0x52a0 <__cmpsf2>
    4aca:	88 23       	and	r24, r24
    4acc:	4c f4       	brge	.+18     	; 0x4ae0 <make_tensometer_measure+0x608>
		__ticks = 1;
    4ace:	ce 01       	movw	r24, r28
    4ad0:	83 5a       	subi	r24, 0xA3	; 163
    4ad2:	9f 4f       	sbci	r25, 0xFF	; 255
    4ad4:	21 e0       	ldi	r18, 0x01	; 1
    4ad6:	30 e0       	ldi	r19, 0x00	; 0
    4ad8:	fc 01       	movw	r30, r24
    4ada:	31 83       	std	Z+1, r19	; 0x01
    4adc:	20 83       	st	Z, r18
    4ade:	69 c0       	rjmp	.+210    	; 0x4bb2 <make_tensometer_measure+0x6da>
	else if (__tmp > 65535)
    4ae0:	ce 01       	movw	r24, r28
    4ae2:	87 5a       	subi	r24, 0xA7	; 167
    4ae4:	9f 4f       	sbci	r25, 0xFF	; 255
    4ae6:	20 e0       	ldi	r18, 0x00	; 0
    4ae8:	3f ef       	ldi	r19, 0xFF	; 255
    4aea:	4f e7       	ldi	r20, 0x7F	; 127
    4aec:	57 e4       	ldi	r21, 0x47	; 71
    4aee:	fc 01       	movw	r30, r24
    4af0:	60 81       	ld	r22, Z
    4af2:	71 81       	ldd	r23, Z+1	; 0x01
    4af4:	82 81       	ldd	r24, Z+2	; 0x02
    4af6:	93 81       	ldd	r25, Z+3	; 0x03
    4af8:	22 d5       	rcall	.+2628   	; 0x553e <__gesf2>
    4afa:	18 16       	cp	r1, r24
    4afc:	0c f0       	brlt	.+2      	; 0x4b00 <make_tensometer_measure+0x628>
    4afe:	48 c0       	rjmp	.+144    	; 0x4b90 <make_tensometer_measure+0x6b8>
	{
		//	__ticks = requested delay in 1/10 ms
		__ticks = (uint16_t) (__ms * 10.0);
    4b00:	ce 01       	movw	r24, r28
    4b02:	8b 5a       	subi	r24, 0xAB	; 171
    4b04:	9f 4f       	sbci	r25, 0xFF	; 255
    4b06:	20 e0       	ldi	r18, 0x00	; 0
    4b08:	30 e0       	ldi	r19, 0x00	; 0
    4b0a:	40 e2       	ldi	r20, 0x20	; 32
    4b0c:	51 e4       	ldi	r21, 0x41	; 65
    4b0e:	fc 01       	movw	r30, r24
    4b10:	60 81       	ld	r22, Z
    4b12:	71 81       	ldd	r23, Z+1	; 0x01
    4b14:	82 81       	ldd	r24, Z+2	; 0x02
    4b16:	93 81       	ldd	r25, Z+3	; 0x03
    4b18:	16 d5       	rcall	.+2604   	; 0x5546 <__mulsf3>
    4b1a:	dc 01       	movw	r26, r24
    4b1c:	cb 01       	movw	r24, r22
    4b1e:	8e 01       	movw	r16, r28
    4b20:	03 5a       	subi	r16, 0xA3	; 163
    4b22:	1f 4f       	sbci	r17, 0xFF	; 255
    4b24:	bc 01       	movw	r22, r24
    4b26:	cd 01       	movw	r24, r26
    4b28:	2c d4       	rcall	.+2136   	; 0x5382 <__fixunssfsi>
    4b2a:	dc 01       	movw	r26, r24
    4b2c:	cb 01       	movw	r24, r22
    4b2e:	f8 01       	movw	r30, r16
    4b30:	91 83       	std	Z+1, r25	; 0x01
    4b32:	80 83       	st	Z, r24
    4b34:	24 c0       	rjmp	.+72     	; 0x4b7e <make_tensometer_measure+0x6a6>
    4b36:	ce 01       	movw	r24, r28
    4b38:	81 5a       	subi	r24, 0xA1	; 161
    4b3a:	9f 4f       	sbci	r25, 0xFF	; 255
    4b3c:	20 e9       	ldi	r18, 0x90	; 144
    4b3e:	31 e0       	ldi	r19, 0x01	; 1
    4b40:	fc 01       	movw	r30, r24
    4b42:	31 83       	std	Z+1, r19	; 0x01
    4b44:	20 83       	st	Z, r18
    milliseconds can be achieved.
 */
void
_delay_loop_2(uint16_t __count)
{
	__asm__ volatile (
    4b46:	ce 01       	movw	r24, r28
    4b48:	81 5a       	subi	r24, 0xA1	; 161
    4b4a:	9f 4f       	sbci	r25, 0xFF	; 255
    4b4c:	fc 01       	movw	r30, r24
    4b4e:	80 81       	ld	r24, Z
    4b50:	91 81       	ldd	r25, Z+1	; 0x01
    4b52:	01 97       	sbiw	r24, 0x01	; 1
    4b54:	f1 f7       	brne	.-4      	; 0x4b52 <make_tensometer_measure+0x67a>
    4b56:	9e 01       	movw	r18, r28
    4b58:	21 5a       	subi	r18, 0xA1	; 161
    4b5a:	3f 4f       	sbci	r19, 0xFF	; 255
    4b5c:	f9 01       	movw	r30, r18
    4b5e:	91 83       	std	Z+1, r25	; 0x01
    4b60:	80 83       	st	Z, r24
		while(__ticks)
		{
			// wait 1/10 ms
			_delay_loop_2(((F_CPU) / 4e3) / 10);
			__ticks --;
    4b62:	ce 01       	movw	r24, r28
    4b64:	83 5a       	subi	r24, 0xA3	; 163
    4b66:	9f 4f       	sbci	r25, 0xFF	; 255
    4b68:	9e 01       	movw	r18, r28
    4b6a:	23 5a       	subi	r18, 0xA3	; 163
    4b6c:	3f 4f       	sbci	r19, 0xFF	; 255
    4b6e:	f9 01       	movw	r30, r18
    4b70:	20 81       	ld	r18, Z
    4b72:	31 81       	ldd	r19, Z+1	; 0x01
    4b74:	21 50       	subi	r18, 0x01	; 1
    4b76:	31 09       	sbc	r19, r1
    4b78:	fc 01       	movw	r30, r24
    4b7a:	31 83       	std	Z+1, r19	; 0x01
    4b7c:	20 83       	st	Z, r18
		__ticks = 1;
	else if (__tmp > 65535)
	{
		//	__ticks = requested delay in 1/10 ms
		__ticks = (uint16_t) (__ms * 10.0);
		while(__ticks)
    4b7e:	ce 01       	movw	r24, r28
    4b80:	83 5a       	subi	r24, 0xA3	; 163
    4b82:	9f 4f       	sbci	r25, 0xFF	; 255
    4b84:	fc 01       	movw	r30, r24
    4b86:	80 81       	ld	r24, Z
    4b88:	91 81       	ldd	r25, Z+1	; 0x01
    4b8a:	89 2b       	or	r24, r25
    4b8c:	a1 f6       	brne	.-88     	; 0x4b36 <make_tensometer_measure+0x65e>
    4b8e:	77 c0       	rjmp	.+238    	; 0x4c7e <make_tensometer_measure+0x7a6>
			__ticks --;
		}
		return;
	}
	else
		__ticks = (uint16_t)__tmp;
    4b90:	8e 01       	movw	r16, r28
    4b92:	03 5a       	subi	r16, 0xA3	; 163
    4b94:	1f 4f       	sbci	r17, 0xFF	; 255
    4b96:	ce 01       	movw	r24, r28
    4b98:	87 5a       	subi	r24, 0xA7	; 167
    4b9a:	9f 4f       	sbci	r25, 0xFF	; 255
    4b9c:	fc 01       	movw	r30, r24
    4b9e:	60 81       	ld	r22, Z
    4ba0:	71 81       	ldd	r23, Z+1	; 0x01
    4ba2:	82 81       	ldd	r24, Z+2	; 0x02
    4ba4:	93 81       	ldd	r25, Z+3	; 0x03
    4ba6:	ed d3       	rcall	.+2010   	; 0x5382 <__fixunssfsi>
    4ba8:	dc 01       	movw	r26, r24
    4baa:	cb 01       	movw	r24, r22
    4bac:	f8 01       	movw	r30, r16
    4bae:	91 83       	std	Z+1, r25	; 0x01
    4bb0:	80 83       	st	Z, r24
    4bb2:	ce 01       	movw	r24, r28
    4bb4:	8f 59       	subi	r24, 0x9F	; 159
    4bb6:	9f 4f       	sbci	r25, 0xFF	; 255
    4bb8:	9e 01       	movw	r18, r28
    4bba:	23 5a       	subi	r18, 0xA3	; 163
    4bbc:	3f 4f       	sbci	r19, 0xFF	; 255
    4bbe:	f9 01       	movw	r30, r18
    4bc0:	20 81       	ld	r18, Z
    4bc2:	31 81       	ldd	r19, Z+1	; 0x01
    4bc4:	fc 01       	movw	r30, r24
    4bc6:	31 83       	std	Z+1, r19	; 0x01
    4bc8:	20 83       	st	Z, r18
    4bca:	ce 01       	movw	r24, r28
    4bcc:	8f 59       	subi	r24, 0x9F	; 159
    4bce:	9f 4f       	sbci	r25, 0xFF	; 255
    4bd0:	fc 01       	movw	r30, r24
    4bd2:	80 81       	ld	r24, Z
    4bd4:	91 81       	ldd	r25, Z+1	; 0x01
    4bd6:	01 97       	sbiw	r24, 0x01	; 1
    4bd8:	f1 f7       	brne	.-4      	; 0x4bd6 <make_tensometer_measure+0x6fe>
    4bda:	9e 01       	movw	r18, r28
    4bdc:	2f 59       	subi	r18, 0x9F	; 159
    4bde:	3f 4f       	sbci	r19, 0xFF	; 255
    4be0:	f9 01       	movw	r30, r18
    4be2:	91 83       	std	Z+1, r25	; 0x01
    4be4:	80 83       	st	Z, r24
    4be6:	4b c0       	rjmp	.+150    	; 0x4c7e <make_tensometer_measure+0x7a6>
		__ticks = 1;
	else if (__tmp2 > 65535)
	{
		_delay_ms(__us / 1000.0);
	}
	else if (__tmp > 255)
    4be8:	ce 01       	movw	r24, r28
    4bea:	84 5b       	subi	r24, 0xB4	; 180
    4bec:	9f 4f       	sbci	r25, 0xFF	; 255
    4bee:	20 e0       	ldi	r18, 0x00	; 0
    4bf0:	30 e0       	ldi	r19, 0x00	; 0
    4bf2:	4f e7       	ldi	r20, 0x7F	; 127
    4bf4:	53 e4       	ldi	r21, 0x43	; 67
    4bf6:	fc 01       	movw	r30, r24
    4bf8:	60 81       	ld	r22, Z
    4bfa:	71 81       	ldd	r23, Z+1	; 0x01
    4bfc:	82 81       	ldd	r24, Z+2	; 0x02
    4bfe:	93 81       	ldd	r25, Z+3	; 0x03
    4c00:	9e d4       	rcall	.+2364   	; 0x553e <__gesf2>
    4c02:	18 16       	cp	r1, r24
    4c04:	64 f5       	brge	.+88     	; 0x4c5e <make_tensometer_measure+0x786>
	{
		uint16_t __ticks=(uint16_t)__tmp2;
    4c06:	8e 01       	movw	r16, r28
    4c08:	0d 59       	subi	r16, 0x9D	; 157
    4c0a:	1f 4f       	sbci	r17, 0xFF	; 255
    4c0c:	ce 01       	movw	r24, r28
    4c0e:	80 5b       	subi	r24, 0xB0	; 176
    4c10:	9f 4f       	sbci	r25, 0xFF	; 255
    4c12:	fc 01       	movw	r30, r24
    4c14:	60 81       	ld	r22, Z
    4c16:	71 81       	ldd	r23, Z+1	; 0x01
    4c18:	82 81       	ldd	r24, Z+2	; 0x02
    4c1a:	93 81       	ldd	r25, Z+3	; 0x03
    4c1c:	b2 d3       	rcall	.+1892   	; 0x5382 <__fixunssfsi>
    4c1e:	dc 01       	movw	r26, r24
    4c20:	cb 01       	movw	r24, r22
    4c22:	f8 01       	movw	r30, r16
    4c24:	91 83       	std	Z+1, r25	; 0x01
    4c26:	80 83       	st	Z, r24
    4c28:	ce 01       	movw	r24, r28
    4c2a:	8b 59       	subi	r24, 0x9B	; 155
    4c2c:	9f 4f       	sbci	r25, 0xFF	; 255
    4c2e:	9e 01       	movw	r18, r28
    4c30:	2d 59       	subi	r18, 0x9D	; 157
    4c32:	3f 4f       	sbci	r19, 0xFF	; 255
    4c34:	f9 01       	movw	r30, r18
    4c36:	20 81       	ld	r18, Z
    4c38:	31 81       	ldd	r19, Z+1	; 0x01
    4c3a:	fc 01       	movw	r30, r24
    4c3c:	31 83       	std	Z+1, r19	; 0x01
    4c3e:	20 83       	st	Z, r18
    4c40:	ce 01       	movw	r24, r28
    4c42:	8b 59       	subi	r24, 0x9B	; 155
    4c44:	9f 4f       	sbci	r25, 0xFF	; 255
    4c46:	fc 01       	movw	r30, r24
    4c48:	80 81       	ld	r24, Z
    4c4a:	91 81       	ldd	r25, Z+1	; 0x01
    4c4c:	01 97       	sbiw	r24, 0x01	; 1
    4c4e:	f1 f7       	brne	.-4      	; 0x4c4c <make_tensometer_measure+0x774>
    4c50:	9e 01       	movw	r18, r28
    4c52:	2b 59       	subi	r18, 0x9B	; 155
    4c54:	3f 4f       	sbci	r19, 0xFF	; 255
    4c56:	f9 01       	movw	r30, r18
    4c58:	91 83       	std	Z+1, r25	; 0x01
    4c5a:	80 83       	st	Z, r24
    4c5c:	27 c0       	rjmp	.+78     	; 0x4cac <make_tensometer_measure+0x7d4>
		_delay_loop_2(__ticks);
		return;
	}
	else
		__ticks = (uint8_t)__tmp;
    4c5e:	8e 01       	movw	r16, r28
    4c60:	0c 5a       	subi	r16, 0xAC	; 172
    4c62:	1f 4f       	sbci	r17, 0xFF	; 255
    4c64:	ce 01       	movw	r24, r28
    4c66:	84 5b       	subi	r24, 0xB4	; 180
    4c68:	9f 4f       	sbci	r25, 0xFF	; 255
    4c6a:	fc 01       	movw	r30, r24
    4c6c:	60 81       	ld	r22, Z
    4c6e:	71 81       	ldd	r23, Z+1	; 0x01
    4c70:	82 81       	ldd	r24, Z+2	; 0x02
    4c72:	93 81       	ldd	r25, Z+3	; 0x03
    4c74:	86 d3       	rcall	.+1804   	; 0x5382 <__fixunssfsi>
    4c76:	dc 01       	movw	r26, r24
    4c78:	cb 01       	movw	r24, r22
    4c7a:	f8 01       	movw	r30, r16
    4c7c:	80 83       	st	Z, r24
    4c7e:	ce 01       	movw	r24, r28
    4c80:	89 59       	subi	r24, 0x99	; 153
    4c82:	9f 4f       	sbci	r25, 0xFF	; 255
    4c84:	9e 01       	movw	r18, r28
    4c86:	2c 5a       	subi	r18, 0xAC	; 172
    4c88:	3f 4f       	sbci	r19, 0xFF	; 255
    4c8a:	f9 01       	movw	r30, r18
    4c8c:	20 81       	ld	r18, Z
    4c8e:	fc 01       	movw	r30, r24
    4c90:	20 83       	st	Z, r18
    can be achieved.
*/
void
_delay_loop_1(uint8_t __count)
{
	__asm__ volatile (
    4c92:	ce 01       	movw	r24, r28
    4c94:	89 59       	subi	r24, 0x99	; 153
    4c96:	9f 4f       	sbci	r25, 0xFF	; 255
    4c98:	fc 01       	movw	r30, r24
    4c9a:	80 81       	ld	r24, Z
    4c9c:	28 2f       	mov	r18, r24
    4c9e:	2a 95       	dec	r18
    4ca0:	f1 f7       	brne	.-4      	; 0x4c9e <make_tensometer_measure+0x7c6>
    4ca2:	ce 01       	movw	r24, r28
    4ca4:	89 59       	subi	r24, 0x99	; 153
    4ca6:	9f 4f       	sbci	r25, 0xFF	; 255
    4ca8:	fc 01       	movw	r30, r24
    4caa:	20 83       	st	Z, r18
		_delay_us(2);
		ADS_SCLK_LOW;
    4cac:	88 e0       	ldi	r24, 0x08	; 8
    4cae:	91 e0       	ldi	r25, 0x01	; 1
    4cb0:	28 e0       	ldi	r18, 0x08	; 8
    4cb2:	31 e0       	ldi	r19, 0x01	; 1
    4cb4:	f9 01       	movw	r30, r18
    4cb6:	20 81       	ld	r18, Z
    4cb8:	27 7f       	andi	r18, 0xF7	; 247
    4cba:	fc 01       	movw	r30, r24
    4cbc:	20 83       	st	Z, r18
    4cbe:	9e 01       	movw	r18, r28
    4cc0:	28 59       	subi	r18, 0x98	; 152
    4cc2:	3f 4f       	sbci	r19, 0xFF	; 255
    4cc4:	80 e0       	ldi	r24, 0x00	; 0
    4cc6:	90 e0       	ldi	r25, 0x00	; 0
    4cc8:	a0 e0       	ldi	r26, 0x00	; 0
    4cca:	b0 e4       	ldi	r27, 0x40	; 64
    4ccc:	f9 01       	movw	r30, r18
    4cce:	80 83       	st	Z, r24
    4cd0:	91 83       	std	Z+1, r25	; 0x01
    4cd2:	a2 83       	std	Z+2, r26	; 0x02
    4cd4:	b3 83       	std	Z+3, r27	; 0x03
	__builtin_avr_delay_cycles(__ticks_dc);

#else
	uint8_t __ticks;
	double __tmp2 ;
	__tmp = ((F_CPU) / 3e6) * __us;
    4cd6:	8e 01       	movw	r16, r28
    4cd8:	04 59       	subi	r16, 0x94	; 148
    4cda:	1f 4f       	sbci	r17, 0xFF	; 255
    4cdc:	ce 01       	movw	r24, r28
    4cde:	88 59       	subi	r24, 0x98	; 152
    4ce0:	9f 4f       	sbci	r25, 0xFF	; 255
    4ce2:	2b ea       	ldi	r18, 0xAB	; 171
    4ce4:	3a ea       	ldi	r19, 0xAA	; 170
    4ce6:	4a ea       	ldi	r20, 0xAA	; 170
    4ce8:	50 e4       	ldi	r21, 0x40	; 64
    4cea:	fc 01       	movw	r30, r24
    4cec:	60 81       	ld	r22, Z
    4cee:	71 81       	ldd	r23, Z+1	; 0x01
    4cf0:	82 81       	ldd	r24, Z+2	; 0x02
    4cf2:	93 81       	ldd	r25, Z+3	; 0x03
    4cf4:	28 d4       	rcall	.+2128   	; 0x5546 <__mulsf3>
    4cf6:	dc 01       	movw	r26, r24
    4cf8:	cb 01       	movw	r24, r22
    4cfa:	f8 01       	movw	r30, r16
    4cfc:	80 83       	st	Z, r24
    4cfe:	91 83       	std	Z+1, r25	; 0x01
    4d00:	a2 83       	std	Z+2, r26	; 0x02
    4d02:	b3 83       	std	Z+3, r27	; 0x03
	__tmp2 = ((F_CPU) / 4e6) * __us;
    4d04:	8e 01       	movw	r16, r28
    4d06:	00 59       	subi	r16, 0x90	; 144
    4d08:	1f 4f       	sbci	r17, 0xFF	; 255
    4d0a:	ce 01       	movw	r24, r28
    4d0c:	88 59       	subi	r24, 0x98	; 152
    4d0e:	9f 4f       	sbci	r25, 0xFF	; 255
    4d10:	20 e0       	ldi	r18, 0x00	; 0
    4d12:	30 e0       	ldi	r19, 0x00	; 0
    4d14:	40 e8       	ldi	r20, 0x80	; 128
    4d16:	50 e4       	ldi	r21, 0x40	; 64
    4d18:	fc 01       	movw	r30, r24
    4d1a:	60 81       	ld	r22, Z
    4d1c:	71 81       	ldd	r23, Z+1	; 0x01
    4d1e:	82 81       	ldd	r24, Z+2	; 0x02
    4d20:	93 81       	ldd	r25, Z+3	; 0x03
    4d22:	11 d4       	rcall	.+2082   	; 0x5546 <__mulsf3>
    4d24:	dc 01       	movw	r26, r24
    4d26:	cb 01       	movw	r24, r22
    4d28:	f8 01       	movw	r30, r16
    4d2a:	80 83       	st	Z, r24
    4d2c:	91 83       	std	Z+1, r25	; 0x01
    4d2e:	a2 83       	std	Z+2, r26	; 0x02
    4d30:	b3 83       	std	Z+3, r27	; 0x03
	if (__tmp < 1.0)
    4d32:	ce 01       	movw	r24, r28
    4d34:	84 59       	subi	r24, 0x94	; 148
    4d36:	9f 4f       	sbci	r25, 0xFF	; 255
    4d38:	20 e0       	ldi	r18, 0x00	; 0
    4d3a:	30 e0       	ldi	r19, 0x00	; 0
    4d3c:	40 e8       	ldi	r20, 0x80	; 128
    4d3e:	5f e3       	ldi	r21, 0x3F	; 63
    4d40:	fc 01       	movw	r30, r24
    4d42:	60 81       	ld	r22, Z
    4d44:	71 81       	ldd	r23, Z+1	; 0x01
    4d46:	82 81       	ldd	r24, Z+2	; 0x02
    4d48:	93 81       	ldd	r25, Z+3	; 0x03
    4d4a:	aa d2       	rcall	.+1364   	; 0x52a0 <__cmpsf2>
    4d4c:	88 23       	and	r24, r24
    4d4e:	3c f4       	brge	.+14     	; 0x4d5e <make_tensometer_measure+0x886>
		__ticks = 1;
    4d50:	ce 01       	movw	r24, r28
    4d52:	8c 58       	subi	r24, 0x8C	; 140
    4d54:	9f 4f       	sbci	r25, 0xFF	; 255
    4d56:	21 e0       	ldi	r18, 0x01	; 1
    4d58:	fc 01       	movw	r30, r24
    4d5a:	20 83       	st	Z, r18
    4d5c:	25 c1       	rjmp	.+586    	; 0x4fa8 <make_tensometer_measure+0xad0>
	else if (__tmp2 > 65535)
    4d5e:	ce 01       	movw	r24, r28
    4d60:	80 59       	subi	r24, 0x90	; 144
    4d62:	9f 4f       	sbci	r25, 0xFF	; 255
    4d64:	20 e0       	ldi	r18, 0x00	; 0
    4d66:	3f ef       	ldi	r19, 0xFF	; 255
    4d68:	4f e7       	ldi	r20, 0x7F	; 127
    4d6a:	57 e4       	ldi	r21, 0x47	; 71
    4d6c:	fc 01       	movw	r30, r24
    4d6e:	60 81       	ld	r22, Z
    4d70:	71 81       	ldd	r23, Z+1	; 0x01
    4d72:	82 81       	ldd	r24, Z+2	; 0x02
    4d74:	93 81       	ldd	r25, Z+3	; 0x03
    4d76:	e3 d3       	rcall	.+1990   	; 0x553e <__gesf2>
    4d78:	18 16       	cp	r1, r24
    4d7a:	0c f0       	brlt	.+2      	; 0x4d7e <make_tensometer_measure+0x8a6>
    4d7c:	ca c0       	rjmp	.+404    	; 0x4f12 <make_tensometer_measure+0xa3a>
	{
		_delay_ms(__us / 1000.0);
    4d7e:	ce 01       	movw	r24, r28
    4d80:	88 59       	subi	r24, 0x98	; 152
    4d82:	9f 4f       	sbci	r25, 0xFF	; 255
    4d84:	20 e0       	ldi	r18, 0x00	; 0
    4d86:	30 e0       	ldi	r19, 0x00	; 0
    4d88:	4a e7       	ldi	r20, 0x7A	; 122
    4d8a:	54 e4       	ldi	r21, 0x44	; 68
    4d8c:	fc 01       	movw	r30, r24
    4d8e:	60 81       	ld	r22, Z
    4d90:	71 81       	ldd	r23, Z+1	; 0x01
    4d92:	82 81       	ldd	r24, Z+2	; 0x02
    4d94:	93 81       	ldd	r25, Z+3	; 0x03
    4d96:	88 d2       	rcall	.+1296   	; 0x52a8 <__divsf3>
    4d98:	dc 01       	movw	r26, r24
    4d9a:	cb 01       	movw	r24, r22
    4d9c:	9e 01       	movw	r18, r28
    4d9e:	2b 58       	subi	r18, 0x8B	; 139
    4da0:	3f 4f       	sbci	r19, 0xFF	; 255
    4da2:	f9 01       	movw	r30, r18
    4da4:	80 83       	st	Z, r24
    4da6:	91 83       	std	Z+1, r25	; 0x01
    4da8:	a2 83       	std	Z+2, r26	; 0x02
    4daa:	b3 83       	std	Z+3, r27	; 0x03

	__builtin_avr_delay_cycles(__ticks_dc);

#else
	uint16_t __ticks;
	__tmp = ((F_CPU) / 4e3) * __ms;
    4dac:	8e 01       	movw	r16, r28
    4dae:	07 58       	subi	r16, 0x87	; 135
    4db0:	1f 4f       	sbci	r17, 0xFF	; 255
    4db2:	ce 01       	movw	r24, r28
    4db4:	8b 58       	subi	r24, 0x8B	; 139
    4db6:	9f 4f       	sbci	r25, 0xFF	; 255
    4db8:	20 e0       	ldi	r18, 0x00	; 0
    4dba:	30 e0       	ldi	r19, 0x00	; 0
    4dbc:	4a e7       	ldi	r20, 0x7A	; 122
    4dbe:	55 e4       	ldi	r21, 0x45	; 69
    4dc0:	fc 01       	movw	r30, r24
    4dc2:	60 81       	ld	r22, Z
    4dc4:	71 81       	ldd	r23, Z+1	; 0x01
    4dc6:	82 81       	ldd	r24, Z+2	; 0x02
    4dc8:	93 81       	ldd	r25, Z+3	; 0x03
    4dca:	bd d3       	rcall	.+1914   	; 0x5546 <__mulsf3>
    4dcc:	dc 01       	movw	r26, r24
    4dce:	cb 01       	movw	r24, r22
    4dd0:	f8 01       	movw	r30, r16
    4dd2:	80 83       	st	Z, r24
    4dd4:	91 83       	std	Z+1, r25	; 0x01
    4dd6:	a2 83       	std	Z+2, r26	; 0x02
    4dd8:	b3 83       	std	Z+3, r27	; 0x03
	if (__tmp < 1.0)
    4dda:	ce 01       	movw	r24, r28
    4ddc:	87 58       	subi	r24, 0x87	; 135
    4dde:	9f 4f       	sbci	r25, 0xFF	; 255
    4de0:	20 e0       	ldi	r18, 0x00	; 0
    4de2:	30 e0       	ldi	r19, 0x00	; 0
    4de4:	40 e8       	ldi	r20, 0x80	; 128
    4de6:	5f e3       	ldi	r21, 0x3F	; 63
    4de8:	fc 01       	movw	r30, r24
    4dea:	60 81       	ld	r22, Z
    4dec:	71 81       	ldd	r23, Z+1	; 0x01
    4dee:	82 81       	ldd	r24, Z+2	; 0x02
    4df0:	93 81       	ldd	r25, Z+3	; 0x03
    4df2:	56 d2       	rcall	.+1196   	; 0x52a0 <__cmpsf2>
    4df4:	88 23       	and	r24, r24
    4df6:	4c f4       	brge	.+18     	; 0x4e0a <make_tensometer_measure+0x932>
		__ticks = 1;
    4df8:	ce 01       	movw	r24, r28
    4dfa:	83 58       	subi	r24, 0x83	; 131
    4dfc:	9f 4f       	sbci	r25, 0xFF	; 255
    4dfe:	21 e0       	ldi	r18, 0x01	; 1
    4e00:	30 e0       	ldi	r19, 0x00	; 0
    4e02:	fc 01       	movw	r30, r24
    4e04:	31 83       	std	Z+1, r19	; 0x01
    4e06:	20 83       	st	Z, r18
    4e08:	69 c0       	rjmp	.+210    	; 0x4edc <make_tensometer_measure+0xa04>
	else if (__tmp > 65535)
    4e0a:	ce 01       	movw	r24, r28
    4e0c:	87 58       	subi	r24, 0x87	; 135
    4e0e:	9f 4f       	sbci	r25, 0xFF	; 255
    4e10:	20 e0       	ldi	r18, 0x00	; 0
    4e12:	3f ef       	ldi	r19, 0xFF	; 255
    4e14:	4f e7       	ldi	r20, 0x7F	; 127
    4e16:	57 e4       	ldi	r21, 0x47	; 71
    4e18:	fc 01       	movw	r30, r24
    4e1a:	60 81       	ld	r22, Z
    4e1c:	71 81       	ldd	r23, Z+1	; 0x01
    4e1e:	82 81       	ldd	r24, Z+2	; 0x02
    4e20:	93 81       	ldd	r25, Z+3	; 0x03
    4e22:	8d d3       	rcall	.+1818   	; 0x553e <__gesf2>
    4e24:	18 16       	cp	r1, r24
    4e26:	0c f0       	brlt	.+2      	; 0x4e2a <make_tensometer_measure+0x952>
    4e28:	48 c0       	rjmp	.+144    	; 0x4eba <make_tensometer_measure+0x9e2>
	{
		//	__ticks = requested delay in 1/10 ms
		__ticks = (uint16_t) (__ms * 10.0);
    4e2a:	ce 01       	movw	r24, r28
    4e2c:	8b 58       	subi	r24, 0x8B	; 139
    4e2e:	9f 4f       	sbci	r25, 0xFF	; 255
    4e30:	20 e0       	ldi	r18, 0x00	; 0
    4e32:	30 e0       	ldi	r19, 0x00	; 0
    4e34:	40 e2       	ldi	r20, 0x20	; 32
    4e36:	51 e4       	ldi	r21, 0x41	; 65
    4e38:	fc 01       	movw	r30, r24
    4e3a:	60 81       	ld	r22, Z
    4e3c:	71 81       	ldd	r23, Z+1	; 0x01
    4e3e:	82 81       	ldd	r24, Z+2	; 0x02
    4e40:	93 81       	ldd	r25, Z+3	; 0x03
    4e42:	81 d3       	rcall	.+1794   	; 0x5546 <__mulsf3>
    4e44:	dc 01       	movw	r26, r24
    4e46:	cb 01       	movw	r24, r22
    4e48:	8e 01       	movw	r16, r28
    4e4a:	03 58       	subi	r16, 0x83	; 131
    4e4c:	1f 4f       	sbci	r17, 0xFF	; 255
    4e4e:	bc 01       	movw	r22, r24
    4e50:	cd 01       	movw	r24, r26
    4e52:	97 d2       	rcall	.+1326   	; 0x5382 <__fixunssfsi>
    4e54:	dc 01       	movw	r26, r24
    4e56:	cb 01       	movw	r24, r22
    4e58:	f8 01       	movw	r30, r16
    4e5a:	91 83       	std	Z+1, r25	; 0x01
    4e5c:	80 83       	st	Z, r24
    4e5e:	24 c0       	rjmp	.+72     	; 0x4ea8 <make_tensometer_measure+0x9d0>
    4e60:	ce 01       	movw	r24, r28
    4e62:	81 58       	subi	r24, 0x81	; 129
    4e64:	9f 4f       	sbci	r25, 0xFF	; 255
    4e66:	20 e9       	ldi	r18, 0x90	; 144
    4e68:	31 e0       	ldi	r19, 0x01	; 1
    4e6a:	fc 01       	movw	r30, r24
    4e6c:	31 83       	std	Z+1, r19	; 0x01
    4e6e:	20 83       	st	Z, r18
    milliseconds can be achieved.
 */
void
_delay_loop_2(uint16_t __count)
{
	__asm__ volatile (
    4e70:	ce 01       	movw	r24, r28
    4e72:	81 58       	subi	r24, 0x81	; 129
    4e74:	9f 4f       	sbci	r25, 0xFF	; 255
    4e76:	fc 01       	movw	r30, r24
    4e78:	80 81       	ld	r24, Z
    4e7a:	91 81       	ldd	r25, Z+1	; 0x01
    4e7c:	01 97       	sbiw	r24, 0x01	; 1
    4e7e:	f1 f7       	brne	.-4      	; 0x4e7c <make_tensometer_measure+0x9a4>
    4e80:	9e 01       	movw	r18, r28
    4e82:	21 58       	subi	r18, 0x81	; 129
    4e84:	3f 4f       	sbci	r19, 0xFF	; 255
    4e86:	f9 01       	movw	r30, r18
    4e88:	91 83       	std	Z+1, r25	; 0x01
    4e8a:	80 83       	st	Z, r24
		while(__ticks)
		{
			// wait 1/10 ms
			_delay_loop_2(((F_CPU) / 4e3) / 10);
			__ticks --;
    4e8c:	ce 01       	movw	r24, r28
    4e8e:	83 58       	subi	r24, 0x83	; 131
    4e90:	9f 4f       	sbci	r25, 0xFF	; 255
    4e92:	9e 01       	movw	r18, r28
    4e94:	23 58       	subi	r18, 0x83	; 131
    4e96:	3f 4f       	sbci	r19, 0xFF	; 255
    4e98:	f9 01       	movw	r30, r18
    4e9a:	20 81       	ld	r18, Z
    4e9c:	31 81       	ldd	r19, Z+1	; 0x01
    4e9e:	21 50       	subi	r18, 0x01	; 1
    4ea0:	31 09       	sbc	r19, r1
    4ea2:	fc 01       	movw	r30, r24
    4ea4:	31 83       	std	Z+1, r19	; 0x01
    4ea6:	20 83       	st	Z, r18
		__ticks = 1;
	else if (__tmp > 65535)
	{
		//	__ticks = requested delay in 1/10 ms
		__ticks = (uint16_t) (__ms * 10.0);
		while(__ticks)
    4ea8:	ce 01       	movw	r24, r28
    4eaa:	83 58       	subi	r24, 0x83	; 131
    4eac:	9f 4f       	sbci	r25, 0xFF	; 255
    4eae:	fc 01       	movw	r30, r24
    4eb0:	80 81       	ld	r24, Z
    4eb2:	91 81       	ldd	r25, Z+1	; 0x01
    4eb4:	89 2b       	or	r24, r25
    4eb6:	a1 f6       	brne	.-88     	; 0x4e60 <make_tensometer_measure+0x988>
    4eb8:	77 c0       	rjmp	.+238    	; 0x4fa8 <make_tensometer_measure+0xad0>
			__ticks --;
		}
		return;
	}
	else
		__ticks = (uint16_t)__tmp;
    4eba:	8e 01       	movw	r16, r28
    4ebc:	03 58       	subi	r16, 0x83	; 131
    4ebe:	1f 4f       	sbci	r17, 0xFF	; 255
    4ec0:	ce 01       	movw	r24, r28
    4ec2:	87 58       	subi	r24, 0x87	; 135
    4ec4:	9f 4f       	sbci	r25, 0xFF	; 255
    4ec6:	fc 01       	movw	r30, r24
    4ec8:	60 81       	ld	r22, Z
    4eca:	71 81       	ldd	r23, Z+1	; 0x01
    4ecc:	82 81       	ldd	r24, Z+2	; 0x02
    4ece:	93 81       	ldd	r25, Z+3	; 0x03
    4ed0:	58 d2       	rcall	.+1200   	; 0x5382 <__fixunssfsi>
    4ed2:	dc 01       	movw	r26, r24
    4ed4:	cb 01       	movw	r24, r22
    4ed6:	f8 01       	movw	r30, r16
    4ed8:	91 83       	std	Z+1, r25	; 0x01
    4eda:	80 83       	st	Z, r24
    4edc:	ce 01       	movw	r24, r28
    4ede:	8f 57       	subi	r24, 0x7F	; 127
    4ee0:	9f 4f       	sbci	r25, 0xFF	; 255
    4ee2:	9e 01       	movw	r18, r28
    4ee4:	23 58       	subi	r18, 0x83	; 131
    4ee6:	3f 4f       	sbci	r19, 0xFF	; 255
    4ee8:	f9 01       	movw	r30, r18
    4eea:	20 81       	ld	r18, Z
    4eec:	31 81       	ldd	r19, Z+1	; 0x01
    4eee:	fc 01       	movw	r30, r24
    4ef0:	31 83       	std	Z+1, r19	; 0x01
    4ef2:	20 83       	st	Z, r18
    4ef4:	ce 01       	movw	r24, r28
    4ef6:	8f 57       	subi	r24, 0x7F	; 127
    4ef8:	9f 4f       	sbci	r25, 0xFF	; 255
    4efa:	fc 01       	movw	r30, r24
    4efc:	80 81       	ld	r24, Z
    4efe:	91 81       	ldd	r25, Z+1	; 0x01
    4f00:	01 97       	sbiw	r24, 0x01	; 1
    4f02:	f1 f7       	brne	.-4      	; 0x4f00 <make_tensometer_measure+0xa28>
    4f04:	9e 01       	movw	r18, r28
    4f06:	2f 57       	subi	r18, 0x7F	; 127
    4f08:	3f 4f       	sbci	r19, 0xFF	; 255
    4f0a:	f9 01       	movw	r30, r18
    4f0c:	91 83       	std	Z+1, r25	; 0x01
    4f0e:	80 83       	st	Z, r24
    4f10:	4b c0       	rjmp	.+150    	; 0x4fa8 <make_tensometer_measure+0xad0>
		__ticks = 1;
	else if (__tmp2 > 65535)
	{
		_delay_ms(__us / 1000.0);
	}
	else if (__tmp > 255)
    4f12:	ce 01       	movw	r24, r28
    4f14:	84 59       	subi	r24, 0x94	; 148
    4f16:	9f 4f       	sbci	r25, 0xFF	; 255
    4f18:	20 e0       	ldi	r18, 0x00	; 0
    4f1a:	30 e0       	ldi	r19, 0x00	; 0
    4f1c:	4f e7       	ldi	r20, 0x7F	; 127
    4f1e:	53 e4       	ldi	r21, 0x43	; 67
    4f20:	fc 01       	movw	r30, r24
    4f22:	60 81       	ld	r22, Z
    4f24:	71 81       	ldd	r23, Z+1	; 0x01
    4f26:	82 81       	ldd	r24, Z+2	; 0x02
    4f28:	93 81       	ldd	r25, Z+3	; 0x03
    4f2a:	09 d3       	rcall	.+1554   	; 0x553e <__gesf2>
    4f2c:	18 16       	cp	r1, r24
    4f2e:	64 f5       	brge	.+88     	; 0x4f88 <make_tensometer_measure+0xab0>
	{
		uint16_t __ticks=(uint16_t)__tmp2;
    4f30:	8e 01       	movw	r16, r28
    4f32:	0d 57       	subi	r16, 0x7D	; 125
    4f34:	1f 4f       	sbci	r17, 0xFF	; 255
    4f36:	ce 01       	movw	r24, r28
    4f38:	80 59       	subi	r24, 0x90	; 144
    4f3a:	9f 4f       	sbci	r25, 0xFF	; 255
    4f3c:	fc 01       	movw	r30, r24
    4f3e:	60 81       	ld	r22, Z
    4f40:	71 81       	ldd	r23, Z+1	; 0x01
    4f42:	82 81       	ldd	r24, Z+2	; 0x02
    4f44:	93 81       	ldd	r25, Z+3	; 0x03
    4f46:	1d d2       	rcall	.+1082   	; 0x5382 <__fixunssfsi>
    4f48:	dc 01       	movw	r26, r24
    4f4a:	cb 01       	movw	r24, r22
    4f4c:	f8 01       	movw	r30, r16
    4f4e:	91 83       	std	Z+1, r25	; 0x01
    4f50:	80 83       	st	Z, r24
    4f52:	ce 01       	movw	r24, r28
    4f54:	8b 57       	subi	r24, 0x7B	; 123
    4f56:	9f 4f       	sbci	r25, 0xFF	; 255
    4f58:	9e 01       	movw	r18, r28
    4f5a:	2d 57       	subi	r18, 0x7D	; 125
    4f5c:	3f 4f       	sbci	r19, 0xFF	; 255
    4f5e:	f9 01       	movw	r30, r18
    4f60:	20 81       	ld	r18, Z
    4f62:	31 81       	ldd	r19, Z+1	; 0x01
    4f64:	fc 01       	movw	r30, r24
    4f66:	31 83       	std	Z+1, r19	; 0x01
    4f68:	20 83       	st	Z, r18
    4f6a:	ce 01       	movw	r24, r28
    4f6c:	8b 57       	subi	r24, 0x7B	; 123
    4f6e:	9f 4f       	sbci	r25, 0xFF	; 255
    4f70:	fc 01       	movw	r30, r24
    4f72:	80 81       	ld	r24, Z
    4f74:	91 81       	ldd	r25, Z+1	; 0x01
    4f76:	01 97       	sbiw	r24, 0x01	; 1
    4f78:	f1 f7       	brne	.-4      	; 0x4f76 <make_tensometer_measure+0xa9e>
    4f7a:	9e 01       	movw	r18, r28
    4f7c:	2b 57       	subi	r18, 0x7B	; 123
    4f7e:	3f 4f       	sbci	r19, 0xFF	; 255
    4f80:	f9 01       	movw	r30, r18
    4f82:	91 83       	std	Z+1, r25	; 0x01
    4f84:	80 83       	st	Z, r24
    4f86:	27 c0       	rjmp	.+78     	; 0x4fd6 <make_tensometer_measure+0xafe>
		_delay_loop_2(__ticks);
		return;
	}
	else
		__ticks = (uint8_t)__tmp;
    4f88:	8e 01       	movw	r16, r28
    4f8a:	0c 58       	subi	r16, 0x8C	; 140
    4f8c:	1f 4f       	sbci	r17, 0xFF	; 255
    4f8e:	ce 01       	movw	r24, r28
    4f90:	84 59       	subi	r24, 0x94	; 148
    4f92:	9f 4f       	sbci	r25, 0xFF	; 255
    4f94:	fc 01       	movw	r30, r24
    4f96:	60 81       	ld	r22, Z
    4f98:	71 81       	ldd	r23, Z+1	; 0x01
    4f9a:	82 81       	ldd	r24, Z+2	; 0x02
    4f9c:	93 81       	ldd	r25, Z+3	; 0x03
    4f9e:	f1 d1       	rcall	.+994    	; 0x5382 <__fixunssfsi>
    4fa0:	dc 01       	movw	r26, r24
    4fa2:	cb 01       	movw	r24, r22
    4fa4:	f8 01       	movw	r30, r16
    4fa6:	80 83       	st	Z, r24
    4fa8:	ce 01       	movw	r24, r28
    4faa:	89 57       	subi	r24, 0x79	; 121
    4fac:	9f 4f       	sbci	r25, 0xFF	; 255
    4fae:	9e 01       	movw	r18, r28
    4fb0:	2c 58       	subi	r18, 0x8C	; 140
    4fb2:	3f 4f       	sbci	r19, 0xFF	; 255
    4fb4:	f9 01       	movw	r30, r18
    4fb6:	20 81       	ld	r18, Z
    4fb8:	fc 01       	movw	r30, r24
    4fba:	20 83       	st	Z, r18
    can be achieved.
*/
void
_delay_loop_1(uint8_t __count)
{
	__asm__ volatile (
    4fbc:	ce 01       	movw	r24, r28
    4fbe:	89 57       	subi	r24, 0x79	; 121
    4fc0:	9f 4f       	sbci	r25, 0xFF	; 255
    4fc2:	fc 01       	movw	r30, r24
    4fc4:	80 81       	ld	r24, Z
    4fc6:	28 2f       	mov	r18, r24
    4fc8:	2a 95       	dec	r18
    4fca:	f1 f7       	brne	.-4      	; 0x4fc8 <make_tensometer_measure+0xaf0>
    4fcc:	ce 01       	movw	r24, r28
    4fce:	89 57       	subi	r24, 0x79	; 121
    4fd0:	9f 4f       	sbci	r25, 0xFF	; 255
    4fd2:	fc 01       	movw	r30, r24
    4fd4:	20 83       	st	Z, r18
//		tmp >>= 5;
//		if(tmp & 0x40000) 
//		tmp |= 0xfff80000;
	

		if (tensometer[input_mux].numberConversion++ < AVERAGE_COUNT)
    4fd6:	80 91 b1 07 	lds	r24, 0x07B1	; 0x8007b1 <input_mux.1644>
    4fda:	88 2f       	mov	r24, r24
    4fdc:	90 e0       	ldi	r25, 0x00	; 0
    4fde:	4f e0       	ldi	r20, 0x0F	; 15
    4fe0:	48 9f       	mul	r20, r24
    4fe2:	90 01       	movw	r18, r0
    4fe4:	49 9f       	mul	r20, r25
    4fe6:	30 0d       	add	r19, r0
    4fe8:	11 24       	eor	r1, r1
    4fea:	24 5a       	subi	r18, 0xA4	; 164
    4fec:	34 4f       	sbci	r19, 0xF4	; 244
    4fee:	f9 01       	movw	r30, r18
    4ff0:	40 81       	ld	r20, Z
    4ff2:	51 e0       	ldi	r21, 0x01	; 1
    4ff4:	54 0f       	add	r21, r20
    4ff6:	6f e0       	ldi	r22, 0x0F	; 15
    4ff8:	68 9f       	mul	r22, r24
    4ffa:	90 01       	movw	r18, r0
    4ffc:	69 9f       	mul	r22, r25
    4ffe:	30 0d       	add	r19, r0
    5000:	11 24       	eor	r1, r1
    5002:	c9 01       	movw	r24, r18
    5004:	84 5a       	subi	r24, 0xA4	; 164
    5006:	94 4f       	sbci	r25, 0xF4	; 244
    5008:	fc 01       	movw	r30, r24
    500a:	50 83       	st	Z, r21
    500c:	44 30       	cpi	r20, 0x04	; 4
    500e:	08 f0       	brcs	.+2      	; 0x5012 <make_tensometer_measure+0xb3a>
    5010:	6f c0       	rjmp	.+222    	; 0x50f0 <make_tensometer_measure+0xc18>
		{
			tensometer[input_mux].tempPreCalculateMeasure += data>>8;  //>>8		
    5012:	80 91 b1 07 	lds	r24, 0x07B1	; 0x8007b1 <input_mux.1644>
    5016:	68 2f       	mov	r22, r24
    5018:	70 e0       	ldi	r23, 0x00	; 0
    501a:	80 91 b1 07 	lds	r24, 0x07B1	; 0x8007b1 <input_mux.1644>
    501e:	28 2f       	mov	r18, r24
    5020:	30 e0       	ldi	r19, 0x00	; 0
    5022:	4f e0       	ldi	r20, 0x0F	; 15
    5024:	42 9f       	mul	r20, r18
    5026:	c0 01       	movw	r24, r0
    5028:	43 9f       	mul	r20, r19
    502a:	90 0d       	add	r25, r0
    502c:	11 24       	eor	r1, r1
    502e:	83 5a       	subi	r24, 0xA3	; 163
    5030:	94 4f       	sbci	r25, 0xF4	; 244
    5032:	fc 01       	movw	r30, r24
    5034:	20 81       	ld	r18, Z
    5036:	31 81       	ldd	r19, Z+1	; 0x01
    5038:	42 81       	ldd	r20, Z+2	; 0x02
    503a:	53 81       	ldd	r21, Z+3	; 0x03
    503c:	89 81       	ldd	r24, Y+1	; 0x01
    503e:	9a 81       	ldd	r25, Y+2	; 0x02
    5040:	ab 81       	ldd	r26, Y+3	; 0x03
    5042:	bc 81       	ldd	r27, Y+4	; 0x04
    5044:	89 2f       	mov	r24, r25
    5046:	9a 2f       	mov	r25, r26
    5048:	ab 2f       	mov	r26, r27
    504a:	bb 27       	eor	r27, r27
    504c:	a7 fd       	sbrc	r26, 7
    504e:	ba 95       	dec	r27
    5050:	82 0f       	add	r24, r18
    5052:	93 1f       	adc	r25, r19
    5054:	a4 1f       	adc	r26, r20
    5056:	b5 1f       	adc	r27, r21
    5058:	4f e0       	ldi	r20, 0x0F	; 15
    505a:	46 9f       	mul	r20, r22
    505c:	90 01       	movw	r18, r0
    505e:	47 9f       	mul	r20, r23
    5060:	30 0d       	add	r19, r0
    5062:	11 24       	eor	r1, r1
    5064:	23 5a       	subi	r18, 0xA3	; 163
    5066:	34 4f       	sbci	r19, 0xF4	; 244
    5068:	f9 01       	movw	r30, r18
    506a:	80 83       	st	Z, r24
    506c:	91 83       	std	Z+1, r25	; 0x01
    506e:	a2 83       	std	Z+2, r26	; 0x02
    5070:	b3 83       	std	Z+3, r27	; 0x03
			if (tensometer[input_mux].tempPreCalculateMeasure & 0x8000)
    5072:	80 91 b1 07 	lds	r24, 0x07B1	; 0x8007b1 <input_mux.1644>
    5076:	28 2f       	mov	r18, r24
    5078:	30 e0       	ldi	r19, 0x00	; 0
    507a:	4f e0       	ldi	r20, 0x0F	; 15
    507c:	42 9f       	mul	r20, r18
    507e:	c0 01       	movw	r24, r0
    5080:	43 9f       	mul	r20, r19
    5082:	90 0d       	add	r25, r0
    5084:	11 24       	eor	r1, r1
    5086:	83 5a       	subi	r24, 0xA3	; 163
    5088:	94 4f       	sbci	r25, 0xF4	; 244
    508a:	fc 01       	movw	r30, r24
    508c:	80 81       	ld	r24, Z
    508e:	91 81       	ldd	r25, Z+1	; 0x01
    5090:	a2 81       	ldd	r26, Z+2	; 0x02
    5092:	b3 81       	ldd	r27, Z+3	; 0x03
    5094:	88 27       	eor	r24, r24
    5096:	90 78       	andi	r25, 0x80	; 128
    5098:	aa 27       	eor	r26, r26
    509a:	bb 27       	eor	r27, r27
    509c:	89 2b       	or	r24, r25
    509e:	8a 2b       	or	r24, r26
    50a0:	8b 2b       	or	r24, r27
    50a2:	09 f4       	brne	.+2      	; 0x50a6 <make_tensometer_measure+0xbce>
    50a4:	72 c0       	rjmp	.+228    	; 0x518a <make_tensometer_measure+0xcb2>
				tensometer[input_mux].tempPreCalculateMeasure |= 0xffff0000;
    50a6:	80 91 b1 07 	lds	r24, 0x07B1	; 0x8007b1 <input_mux.1644>
    50aa:	48 2f       	mov	r20, r24
    50ac:	50 e0       	ldi	r21, 0x00	; 0
    50ae:	80 91 b1 07 	lds	r24, 0x07B1	; 0x8007b1 <input_mux.1644>
    50b2:	28 2f       	mov	r18, r24
    50b4:	30 e0       	ldi	r19, 0x00	; 0
    50b6:	6f e0       	ldi	r22, 0x0F	; 15
    50b8:	62 9f       	mul	r22, r18
    50ba:	c0 01       	movw	r24, r0
    50bc:	63 9f       	mul	r22, r19
    50be:	90 0d       	add	r25, r0
    50c0:	11 24       	eor	r1, r1
    50c2:	83 5a       	subi	r24, 0xA3	; 163
    50c4:	94 4f       	sbci	r25, 0xF4	; 244
    50c6:	fc 01       	movw	r30, r24
    50c8:	80 81       	ld	r24, Z
    50ca:	91 81       	ldd	r25, Z+1	; 0x01
    50cc:	a2 81       	ldd	r26, Z+2	; 0x02
    50ce:	b3 81       	ldd	r27, Z+3	; 0x03
    50d0:	af 6f       	ori	r26, 0xFF	; 255
    50d2:	bf 6f       	ori	r27, 0xFF	; 255
    50d4:	6f e0       	ldi	r22, 0x0F	; 15
    50d6:	64 9f       	mul	r22, r20
    50d8:	90 01       	movw	r18, r0
    50da:	65 9f       	mul	r22, r21
    50dc:	30 0d       	add	r19, r0
    50de:	11 24       	eor	r1, r1
    50e0:	23 5a       	subi	r18, 0xA3	; 163
    50e2:	34 4f       	sbci	r19, 0xF4	; 244
    50e4:	f9 01       	movw	r30, r18
    50e6:	80 83       	st	Z, r24
    50e8:	91 83       	std	Z+1, r25	; 0x01
    50ea:	a2 83       	std	Z+2, r26	; 0x02
    50ec:	b3 83       	std	Z+3, r27	; 0x03
    50ee:	4d c0       	rjmp	.+154    	; 0x518a <make_tensometer_measure+0xcb2>
		}else
		{
			tensometer[input_mux].RAW_Value = tensometer[input_mux].tempPreCalculateMeasure/AVERAGE_COUNT;
    50f0:	80 91 b1 07 	lds	r24, 0x07B1	; 0x8007b1 <input_mux.1644>
    50f4:	28 2f       	mov	r18, r24
    50f6:	30 e0       	ldi	r19, 0x00	; 0
    50f8:	80 91 b1 07 	lds	r24, 0x07B1	; 0x8007b1 <input_mux.1644>
    50fc:	48 2f       	mov	r20, r24
    50fe:	50 e0       	ldi	r21, 0x00	; 0
    5100:	6f e0       	ldi	r22, 0x0F	; 15
    5102:	64 9f       	mul	r22, r20
    5104:	c0 01       	movw	r24, r0
    5106:	65 9f       	mul	r22, r21
    5108:	90 0d       	add	r25, r0
    510a:	11 24       	eor	r1, r1
    510c:	83 5a       	subi	r24, 0xA3	; 163
    510e:	94 4f       	sbci	r25, 0xF4	; 244
    5110:	fc 01       	movw	r30, r24
    5112:	80 81       	ld	r24, Z
    5114:	91 81       	ldd	r25, Z+1	; 0x01
    5116:	a2 81       	ldd	r26, Z+2	; 0x02
    5118:	b3 81       	ldd	r27, Z+3	; 0x03
    511a:	bb 23       	and	r27, r27
    511c:	1c f4       	brge	.+6      	; 0x5124 <make_tensometer_measure+0xc4c>
    511e:	03 96       	adiw	r24, 0x03	; 3
    5120:	a1 1d       	adc	r26, r1
    5122:	b1 1d       	adc	r27, r1
    5124:	b5 95       	asr	r27
    5126:	a7 95       	ror	r26
    5128:	97 95       	ror	r25
    512a:	87 95       	ror	r24
    512c:	b5 95       	asr	r27
    512e:	a7 95       	ror	r26
    5130:	97 95       	ror	r25
    5132:	87 95       	ror	r24
    5134:	ac 01       	movw	r20, r24
    5136:	6f e0       	ldi	r22, 0x0F	; 15
    5138:	62 9f       	mul	r22, r18
    513a:	c0 01       	movw	r24, r0
    513c:	63 9f       	mul	r22, r19
    513e:	90 0d       	add	r25, r0
    5140:	11 24       	eor	r1, r1
    5142:	8e 5a       	subi	r24, 0xAE	; 174
    5144:	94 4f       	sbci	r25, 0xF4	; 244
    5146:	fc 01       	movw	r30, r24
    5148:	51 83       	std	Z+1, r21	; 0x01
    514a:	40 83       	st	Z, r20
			tensometer[input_mux].numberConversion=0;
    514c:	80 91 b1 07 	lds	r24, 0x07B1	; 0x8007b1 <input_mux.1644>
    5150:	28 2f       	mov	r18, r24
    5152:	30 e0       	ldi	r19, 0x00	; 0
    5154:	4f e0       	ldi	r20, 0x0F	; 15
    5156:	42 9f       	mul	r20, r18
    5158:	c0 01       	movw	r24, r0
    515a:	43 9f       	mul	r20, r19
    515c:	90 0d       	add	r25, r0
    515e:	11 24       	eor	r1, r1
    5160:	84 5a       	subi	r24, 0xA4	; 164
    5162:	94 4f       	sbci	r25, 0xF4	; 244
    5164:	fc 01       	movw	r30, r24
    5166:	10 82       	st	Z, r1
			tensometer[input_mux].tempPreCalculateMeasure=0;
    5168:	80 91 b1 07 	lds	r24, 0x07B1	; 0x8007b1 <input_mux.1644>
    516c:	28 2f       	mov	r18, r24
    516e:	30 e0       	ldi	r19, 0x00	; 0
    5170:	4f e0       	ldi	r20, 0x0F	; 15
    5172:	42 9f       	mul	r20, r18
    5174:	c0 01       	movw	r24, r0
    5176:	43 9f       	mul	r20, r19
    5178:	90 0d       	add	r25, r0
    517a:	11 24       	eor	r1, r1
    517c:	83 5a       	subi	r24, 0xA3	; 163
    517e:	94 4f       	sbci	r25, 0xF4	; 244
    5180:	fc 01       	movw	r30, r24
    5182:	10 82       	st	Z, r1
    5184:	11 82       	std	Z+1, r1	; 0x01
    5186:	12 82       	std	Z+2, r1	; 0x02
    5188:	13 82       	std	Z+3, r1	; 0x03
		else
		{
//			ADS_A0_LOW;
//			input_mux=1;
		}
}
    518a:	c9 57       	subi	r28, 0x79	; 121
    518c:	df 4f       	sbci	r29, 0xFF	; 255
    518e:	0f b6       	in	r0, 0x3f	; 63
    5190:	f8 94       	cli
    5192:	de bf       	out	0x3e, r29	; 62
    5194:	0f be       	out	0x3f, r0	; 63
    5196:	cd bf       	out	0x3d, r28	; 61
    5198:	df 91       	pop	r29
    519a:	cf 91       	pop	r28
    519c:	1f 91       	pop	r17
    519e:	0f 91       	pop	r16
    51a0:	08 95       	ret

000051a2 <get_roll_weight>:
// 	uint16_t preCalculateMeasure = tensometer[input_mux].preCalculateMeasure;	
// 	tensometer[input_mux].weight =	TENSOMETER_ACCURACY*preCalculateMeasure;	
// 	tensometer[input_mux].filamentWeight = tensometer[input_mux].weight - tensometer[input_mux].rollWeight;
// }

void get_roll_weight(uint8_t input_mux){
    51a2:	cf 93       	push	r28
    51a4:	df 93       	push	r29
    51a6:	1f 92       	push	r1
    51a8:	cd b7       	in	r28, 0x3d	; 61
    51aa:	de b7       	in	r29, 0x3e	; 62
    51ac:	89 83       	std	Y+1, r24	; 0x01
	tensometer[input_mux].rollWeight = DEFAULT_ROLL_WEIGHT;
    51ae:	89 81       	ldd	r24, Y+1	; 0x01
    51b0:	28 2f       	mov	r18, r24
    51b2:	30 e0       	ldi	r19, 0x00	; 0
    51b4:	4f e0       	ldi	r20, 0x0F	; 15
    51b6:	42 9f       	mul	r20, r18
    51b8:	c0 01       	movw	r24, r0
    51ba:	43 9f       	mul	r20, r19
    51bc:	90 0d       	add	r25, r0
    51be:	11 24       	eor	r1, r1
    51c0:	8a 5a       	subi	r24, 0xAA	; 170
    51c2:	94 4f       	sbci	r25, 0xF4	; 244
    51c4:	24 e6       	ldi	r18, 0x64	; 100
    51c6:	30 e0       	ldi	r19, 0x00	; 0
    51c8:	fc 01       	movw	r30, r24
    51ca:	31 83       	std	Z+1, r19	; 0x01
    51cc:	20 83       	st	Z, r18
    51ce:	0f 90       	pop	r0
    51d0:	df 91       	pop	r29
    51d2:	cf 91       	pop	r28
    51d4:	08 95       	ret

000051d6 <__subsf3>:
    51d6:	50 58       	subi	r21, 0x80	; 128

000051d8 <__addsf3>:
    51d8:	bb 27       	eor	r27, r27
    51da:	aa 27       	eor	r26, r26
    51dc:	0e d0       	rcall	.+28     	; 0x51fa <__addsf3x>
    51de:	75 c1       	rjmp	.+746    	; 0x54ca <__fp_round>
    51e0:	66 d1       	rcall	.+716    	; 0x54ae <__fp_pscA>
    51e2:	30 f0       	brcs	.+12     	; 0x51f0 <__addsf3+0x18>
    51e4:	6b d1       	rcall	.+726    	; 0x54bc <__fp_pscB>
    51e6:	20 f0       	brcs	.+8      	; 0x51f0 <__addsf3+0x18>
    51e8:	31 f4       	brne	.+12     	; 0x51f6 <__addsf3+0x1e>
    51ea:	9f 3f       	cpi	r25, 0xFF	; 255
    51ec:	11 f4       	brne	.+4      	; 0x51f2 <__addsf3+0x1a>
    51ee:	1e f4       	brtc	.+6      	; 0x51f6 <__addsf3+0x1e>
    51f0:	5b c1       	rjmp	.+694    	; 0x54a8 <__fp_nan>
    51f2:	0e f4       	brtc	.+2      	; 0x51f6 <__addsf3+0x1e>
    51f4:	e0 95       	com	r30
    51f6:	e7 fb       	bst	r30, 7
    51f8:	51 c1       	rjmp	.+674    	; 0x549c <__fp_inf>

000051fa <__addsf3x>:
    51fa:	e9 2f       	mov	r30, r25
    51fc:	77 d1       	rcall	.+750    	; 0x54ec <__fp_split3>
    51fe:	80 f3       	brcs	.-32     	; 0x51e0 <__addsf3+0x8>
    5200:	ba 17       	cp	r27, r26
    5202:	62 07       	cpc	r22, r18
    5204:	73 07       	cpc	r23, r19
    5206:	84 07       	cpc	r24, r20
    5208:	95 07       	cpc	r25, r21
    520a:	18 f0       	brcs	.+6      	; 0x5212 <__addsf3x+0x18>
    520c:	71 f4       	brne	.+28     	; 0x522a <__addsf3x+0x30>
    520e:	9e f5       	brtc	.+102    	; 0x5276 <__addsf3x+0x7c>
    5210:	8f c1       	rjmp	.+798    	; 0x5530 <__fp_zero>
    5212:	0e f4       	brtc	.+2      	; 0x5216 <__addsf3x+0x1c>
    5214:	e0 95       	com	r30
    5216:	0b 2e       	mov	r0, r27
    5218:	ba 2f       	mov	r27, r26
    521a:	a0 2d       	mov	r26, r0
    521c:	0b 01       	movw	r0, r22
    521e:	b9 01       	movw	r22, r18
    5220:	90 01       	movw	r18, r0
    5222:	0c 01       	movw	r0, r24
    5224:	ca 01       	movw	r24, r20
    5226:	a0 01       	movw	r20, r0
    5228:	11 24       	eor	r1, r1
    522a:	ff 27       	eor	r31, r31
    522c:	59 1b       	sub	r21, r25
    522e:	99 f0       	breq	.+38     	; 0x5256 <__addsf3x+0x5c>
    5230:	59 3f       	cpi	r21, 0xF9	; 249
    5232:	50 f4       	brcc	.+20     	; 0x5248 <__addsf3x+0x4e>
    5234:	50 3e       	cpi	r21, 0xE0	; 224
    5236:	68 f1       	brcs	.+90     	; 0x5292 <__addsf3x+0x98>
    5238:	1a 16       	cp	r1, r26
    523a:	f0 40       	sbci	r31, 0x00	; 0
    523c:	a2 2f       	mov	r26, r18
    523e:	23 2f       	mov	r18, r19
    5240:	34 2f       	mov	r19, r20
    5242:	44 27       	eor	r20, r20
    5244:	58 5f       	subi	r21, 0xF8	; 248
    5246:	f3 cf       	rjmp	.-26     	; 0x522e <__addsf3x+0x34>
    5248:	46 95       	lsr	r20
    524a:	37 95       	ror	r19
    524c:	27 95       	ror	r18
    524e:	a7 95       	ror	r26
    5250:	f0 40       	sbci	r31, 0x00	; 0
    5252:	53 95       	inc	r21
    5254:	c9 f7       	brne	.-14     	; 0x5248 <__addsf3x+0x4e>
    5256:	7e f4       	brtc	.+30     	; 0x5276 <__addsf3x+0x7c>
    5258:	1f 16       	cp	r1, r31
    525a:	ba 0b       	sbc	r27, r26
    525c:	62 0b       	sbc	r22, r18
    525e:	73 0b       	sbc	r23, r19
    5260:	84 0b       	sbc	r24, r20
    5262:	ba f0       	brmi	.+46     	; 0x5292 <__addsf3x+0x98>
    5264:	91 50       	subi	r25, 0x01	; 1
    5266:	a1 f0       	breq	.+40     	; 0x5290 <__addsf3x+0x96>
    5268:	ff 0f       	add	r31, r31
    526a:	bb 1f       	adc	r27, r27
    526c:	66 1f       	adc	r22, r22
    526e:	77 1f       	adc	r23, r23
    5270:	88 1f       	adc	r24, r24
    5272:	c2 f7       	brpl	.-16     	; 0x5264 <__addsf3x+0x6a>
    5274:	0e c0       	rjmp	.+28     	; 0x5292 <__addsf3x+0x98>
    5276:	ba 0f       	add	r27, r26
    5278:	62 1f       	adc	r22, r18
    527a:	73 1f       	adc	r23, r19
    527c:	84 1f       	adc	r24, r20
    527e:	48 f4       	brcc	.+18     	; 0x5292 <__addsf3x+0x98>
    5280:	87 95       	ror	r24
    5282:	77 95       	ror	r23
    5284:	67 95       	ror	r22
    5286:	b7 95       	ror	r27
    5288:	f7 95       	ror	r31
    528a:	9e 3f       	cpi	r25, 0xFE	; 254
    528c:	08 f0       	brcs	.+2      	; 0x5290 <__addsf3x+0x96>
    528e:	b3 cf       	rjmp	.-154    	; 0x51f6 <__addsf3+0x1e>
    5290:	93 95       	inc	r25
    5292:	88 0f       	add	r24, r24
    5294:	08 f0       	brcs	.+2      	; 0x5298 <__addsf3x+0x9e>
    5296:	99 27       	eor	r25, r25
    5298:	ee 0f       	add	r30, r30
    529a:	97 95       	ror	r25
    529c:	87 95       	ror	r24
    529e:	08 95       	ret

000052a0 <__cmpsf2>:
    52a0:	d9 d0       	rcall	.+434    	; 0x5454 <__fp_cmp>
    52a2:	08 f4       	brcc	.+2      	; 0x52a6 <__cmpsf2+0x6>
    52a4:	81 e0       	ldi	r24, 0x01	; 1
    52a6:	08 95       	ret

000052a8 <__divsf3>:
    52a8:	0c d0       	rcall	.+24     	; 0x52c2 <__divsf3x>
    52aa:	0f c1       	rjmp	.+542    	; 0x54ca <__fp_round>
    52ac:	07 d1       	rcall	.+526    	; 0x54bc <__fp_pscB>
    52ae:	40 f0       	brcs	.+16     	; 0x52c0 <__divsf3+0x18>
    52b0:	fe d0       	rcall	.+508    	; 0x54ae <__fp_pscA>
    52b2:	30 f0       	brcs	.+12     	; 0x52c0 <__divsf3+0x18>
    52b4:	21 f4       	brne	.+8      	; 0x52be <__divsf3+0x16>
    52b6:	5f 3f       	cpi	r21, 0xFF	; 255
    52b8:	19 f0       	breq	.+6      	; 0x52c0 <__divsf3+0x18>
    52ba:	f0 c0       	rjmp	.+480    	; 0x549c <__fp_inf>
    52bc:	51 11       	cpse	r21, r1
    52be:	39 c1       	rjmp	.+626    	; 0x5532 <__fp_szero>
    52c0:	f3 c0       	rjmp	.+486    	; 0x54a8 <__fp_nan>

000052c2 <__divsf3x>:
    52c2:	14 d1       	rcall	.+552    	; 0x54ec <__fp_split3>
    52c4:	98 f3       	brcs	.-26     	; 0x52ac <__divsf3+0x4>

000052c6 <__divsf3_pse>:
    52c6:	99 23       	and	r25, r25
    52c8:	c9 f3       	breq	.-14     	; 0x52bc <__divsf3+0x14>
    52ca:	55 23       	and	r21, r21
    52cc:	b1 f3       	breq	.-20     	; 0x52ba <__divsf3+0x12>
    52ce:	95 1b       	sub	r25, r21
    52d0:	55 0b       	sbc	r21, r21
    52d2:	bb 27       	eor	r27, r27
    52d4:	aa 27       	eor	r26, r26
    52d6:	62 17       	cp	r22, r18
    52d8:	73 07       	cpc	r23, r19
    52da:	84 07       	cpc	r24, r20
    52dc:	38 f0       	brcs	.+14     	; 0x52ec <__divsf3_pse+0x26>
    52de:	9f 5f       	subi	r25, 0xFF	; 255
    52e0:	5f 4f       	sbci	r21, 0xFF	; 255
    52e2:	22 0f       	add	r18, r18
    52e4:	33 1f       	adc	r19, r19
    52e6:	44 1f       	adc	r20, r20
    52e8:	aa 1f       	adc	r26, r26
    52ea:	a9 f3       	breq	.-22     	; 0x52d6 <__divsf3_pse+0x10>
    52ec:	33 d0       	rcall	.+102    	; 0x5354 <__divsf3_pse+0x8e>
    52ee:	0e 2e       	mov	r0, r30
    52f0:	3a f0       	brmi	.+14     	; 0x5300 <__divsf3_pse+0x3a>
    52f2:	e0 e8       	ldi	r30, 0x80	; 128
    52f4:	30 d0       	rcall	.+96     	; 0x5356 <__divsf3_pse+0x90>
    52f6:	91 50       	subi	r25, 0x01	; 1
    52f8:	50 40       	sbci	r21, 0x00	; 0
    52fa:	e6 95       	lsr	r30
    52fc:	00 1c       	adc	r0, r0
    52fe:	ca f7       	brpl	.-14     	; 0x52f2 <__divsf3_pse+0x2c>
    5300:	29 d0       	rcall	.+82     	; 0x5354 <__divsf3_pse+0x8e>
    5302:	fe 2f       	mov	r31, r30
    5304:	27 d0       	rcall	.+78     	; 0x5354 <__divsf3_pse+0x8e>
    5306:	66 0f       	add	r22, r22
    5308:	77 1f       	adc	r23, r23
    530a:	88 1f       	adc	r24, r24
    530c:	bb 1f       	adc	r27, r27
    530e:	26 17       	cp	r18, r22
    5310:	37 07       	cpc	r19, r23
    5312:	48 07       	cpc	r20, r24
    5314:	ab 07       	cpc	r26, r27
    5316:	b0 e8       	ldi	r27, 0x80	; 128
    5318:	09 f0       	breq	.+2      	; 0x531c <__divsf3_pse+0x56>
    531a:	bb 0b       	sbc	r27, r27
    531c:	80 2d       	mov	r24, r0
    531e:	bf 01       	movw	r22, r30
    5320:	ff 27       	eor	r31, r31
    5322:	93 58       	subi	r25, 0x83	; 131
    5324:	5f 4f       	sbci	r21, 0xFF	; 255
    5326:	2a f0       	brmi	.+10     	; 0x5332 <__divsf3_pse+0x6c>
    5328:	9e 3f       	cpi	r25, 0xFE	; 254
    532a:	51 05       	cpc	r21, r1
    532c:	68 f0       	brcs	.+26     	; 0x5348 <__divsf3_pse+0x82>
    532e:	b6 c0       	rjmp	.+364    	; 0x549c <__fp_inf>
    5330:	00 c1       	rjmp	.+512    	; 0x5532 <__fp_szero>
    5332:	5f 3f       	cpi	r21, 0xFF	; 255
    5334:	ec f3       	brlt	.-6      	; 0x5330 <__divsf3_pse+0x6a>
    5336:	98 3e       	cpi	r25, 0xE8	; 232
    5338:	dc f3       	brlt	.-10     	; 0x5330 <__divsf3_pse+0x6a>
    533a:	86 95       	lsr	r24
    533c:	77 95       	ror	r23
    533e:	67 95       	ror	r22
    5340:	b7 95       	ror	r27
    5342:	f7 95       	ror	r31
    5344:	9f 5f       	subi	r25, 0xFF	; 255
    5346:	c9 f7       	brne	.-14     	; 0x533a <__divsf3_pse+0x74>
    5348:	88 0f       	add	r24, r24
    534a:	91 1d       	adc	r25, r1
    534c:	96 95       	lsr	r25
    534e:	87 95       	ror	r24
    5350:	97 f9       	bld	r25, 7
    5352:	08 95       	ret
    5354:	e1 e0       	ldi	r30, 0x01	; 1
    5356:	66 0f       	add	r22, r22
    5358:	77 1f       	adc	r23, r23
    535a:	88 1f       	adc	r24, r24
    535c:	bb 1f       	adc	r27, r27
    535e:	62 17       	cp	r22, r18
    5360:	73 07       	cpc	r23, r19
    5362:	84 07       	cpc	r24, r20
    5364:	ba 07       	cpc	r27, r26
    5366:	20 f0       	brcs	.+8      	; 0x5370 <__divsf3_pse+0xaa>
    5368:	62 1b       	sub	r22, r18
    536a:	73 0b       	sbc	r23, r19
    536c:	84 0b       	sbc	r24, r20
    536e:	ba 0b       	sbc	r27, r26
    5370:	ee 1f       	adc	r30, r30
    5372:	88 f7       	brcc	.-30     	; 0x5356 <__divsf3_pse+0x90>
    5374:	e0 95       	com	r30
    5376:	08 95       	ret

00005378 <__fixsfsi>:
    5378:	04 d0       	rcall	.+8      	; 0x5382 <__fixunssfsi>
    537a:	68 94       	set
    537c:	b1 11       	cpse	r27, r1
    537e:	d9 c0       	rjmp	.+434    	; 0x5532 <__fp_szero>
    5380:	08 95       	ret

00005382 <__fixunssfsi>:
    5382:	bc d0       	rcall	.+376    	; 0x54fc <__fp_splitA>
    5384:	88 f0       	brcs	.+34     	; 0x53a8 <__fixunssfsi+0x26>
    5386:	9f 57       	subi	r25, 0x7F	; 127
    5388:	90 f0       	brcs	.+36     	; 0x53ae <__fixunssfsi+0x2c>
    538a:	b9 2f       	mov	r27, r25
    538c:	99 27       	eor	r25, r25
    538e:	b7 51       	subi	r27, 0x17	; 23
    5390:	a0 f0       	brcs	.+40     	; 0x53ba <__fixunssfsi+0x38>
    5392:	d1 f0       	breq	.+52     	; 0x53c8 <__fixunssfsi+0x46>
    5394:	66 0f       	add	r22, r22
    5396:	77 1f       	adc	r23, r23
    5398:	88 1f       	adc	r24, r24
    539a:	99 1f       	adc	r25, r25
    539c:	1a f0       	brmi	.+6      	; 0x53a4 <__fixunssfsi+0x22>
    539e:	ba 95       	dec	r27
    53a0:	c9 f7       	brne	.-14     	; 0x5394 <__fixunssfsi+0x12>
    53a2:	12 c0       	rjmp	.+36     	; 0x53c8 <__fixunssfsi+0x46>
    53a4:	b1 30       	cpi	r27, 0x01	; 1
    53a6:	81 f0       	breq	.+32     	; 0x53c8 <__fixunssfsi+0x46>
    53a8:	c3 d0       	rcall	.+390    	; 0x5530 <__fp_zero>
    53aa:	b1 e0       	ldi	r27, 0x01	; 1
    53ac:	08 95       	ret
    53ae:	c0 c0       	rjmp	.+384    	; 0x5530 <__fp_zero>
    53b0:	67 2f       	mov	r22, r23
    53b2:	78 2f       	mov	r23, r24
    53b4:	88 27       	eor	r24, r24
    53b6:	b8 5f       	subi	r27, 0xF8	; 248
    53b8:	39 f0       	breq	.+14     	; 0x53c8 <__fixunssfsi+0x46>
    53ba:	b9 3f       	cpi	r27, 0xF9	; 249
    53bc:	cc f3       	brlt	.-14     	; 0x53b0 <__fixunssfsi+0x2e>
    53be:	86 95       	lsr	r24
    53c0:	77 95       	ror	r23
    53c2:	67 95       	ror	r22
    53c4:	b3 95       	inc	r27
    53c6:	d9 f7       	brne	.-10     	; 0x53be <__fixunssfsi+0x3c>
    53c8:	3e f4       	brtc	.+14     	; 0x53d8 <__fixunssfsi+0x56>
    53ca:	90 95       	com	r25
    53cc:	80 95       	com	r24
    53ce:	70 95       	com	r23
    53d0:	61 95       	neg	r22
    53d2:	7f 4f       	sbci	r23, 0xFF	; 255
    53d4:	8f 4f       	sbci	r24, 0xFF	; 255
    53d6:	9f 4f       	sbci	r25, 0xFF	; 255
    53d8:	08 95       	ret

000053da <__floatunsisf>:
    53da:	e8 94       	clt
    53dc:	09 c0       	rjmp	.+18     	; 0x53f0 <__floatsisf+0x12>

000053de <__floatsisf>:
    53de:	97 fb       	bst	r25, 7
    53e0:	3e f4       	brtc	.+14     	; 0x53f0 <__floatsisf+0x12>
    53e2:	90 95       	com	r25
    53e4:	80 95       	com	r24
    53e6:	70 95       	com	r23
    53e8:	61 95       	neg	r22
    53ea:	7f 4f       	sbci	r23, 0xFF	; 255
    53ec:	8f 4f       	sbci	r24, 0xFF	; 255
    53ee:	9f 4f       	sbci	r25, 0xFF	; 255
    53f0:	99 23       	and	r25, r25
    53f2:	a9 f0       	breq	.+42     	; 0x541e <__floatsisf+0x40>
    53f4:	f9 2f       	mov	r31, r25
    53f6:	96 e9       	ldi	r25, 0x96	; 150
    53f8:	bb 27       	eor	r27, r27
    53fa:	93 95       	inc	r25
    53fc:	f6 95       	lsr	r31
    53fe:	87 95       	ror	r24
    5400:	77 95       	ror	r23
    5402:	67 95       	ror	r22
    5404:	b7 95       	ror	r27
    5406:	f1 11       	cpse	r31, r1
    5408:	f8 cf       	rjmp	.-16     	; 0x53fa <__floatsisf+0x1c>
    540a:	fa f4       	brpl	.+62     	; 0x544a <__floatsisf+0x6c>
    540c:	bb 0f       	add	r27, r27
    540e:	11 f4       	brne	.+4      	; 0x5414 <__floatsisf+0x36>
    5410:	60 ff       	sbrs	r22, 0
    5412:	1b c0       	rjmp	.+54     	; 0x544a <__floatsisf+0x6c>
    5414:	6f 5f       	subi	r22, 0xFF	; 255
    5416:	7f 4f       	sbci	r23, 0xFF	; 255
    5418:	8f 4f       	sbci	r24, 0xFF	; 255
    541a:	9f 4f       	sbci	r25, 0xFF	; 255
    541c:	16 c0       	rjmp	.+44     	; 0x544a <__floatsisf+0x6c>
    541e:	88 23       	and	r24, r24
    5420:	11 f0       	breq	.+4      	; 0x5426 <__floatsisf+0x48>
    5422:	96 e9       	ldi	r25, 0x96	; 150
    5424:	11 c0       	rjmp	.+34     	; 0x5448 <__floatsisf+0x6a>
    5426:	77 23       	and	r23, r23
    5428:	21 f0       	breq	.+8      	; 0x5432 <__floatsisf+0x54>
    542a:	9e e8       	ldi	r25, 0x8E	; 142
    542c:	87 2f       	mov	r24, r23
    542e:	76 2f       	mov	r23, r22
    5430:	05 c0       	rjmp	.+10     	; 0x543c <__floatsisf+0x5e>
    5432:	66 23       	and	r22, r22
    5434:	71 f0       	breq	.+28     	; 0x5452 <__floatsisf+0x74>
    5436:	96 e8       	ldi	r25, 0x86	; 134
    5438:	86 2f       	mov	r24, r22
    543a:	70 e0       	ldi	r23, 0x00	; 0
    543c:	60 e0       	ldi	r22, 0x00	; 0
    543e:	2a f0       	brmi	.+10     	; 0x544a <__floatsisf+0x6c>
    5440:	9a 95       	dec	r25
    5442:	66 0f       	add	r22, r22
    5444:	77 1f       	adc	r23, r23
    5446:	88 1f       	adc	r24, r24
    5448:	da f7       	brpl	.-10     	; 0x5440 <__floatsisf+0x62>
    544a:	88 0f       	add	r24, r24
    544c:	96 95       	lsr	r25
    544e:	87 95       	ror	r24
    5450:	97 f9       	bld	r25, 7
    5452:	08 95       	ret

00005454 <__fp_cmp>:
    5454:	99 0f       	add	r25, r25
    5456:	00 08       	sbc	r0, r0
    5458:	55 0f       	add	r21, r21
    545a:	aa 0b       	sbc	r26, r26
    545c:	e0 e8       	ldi	r30, 0x80	; 128
    545e:	fe ef       	ldi	r31, 0xFE	; 254
    5460:	16 16       	cp	r1, r22
    5462:	17 06       	cpc	r1, r23
    5464:	e8 07       	cpc	r30, r24
    5466:	f9 07       	cpc	r31, r25
    5468:	c0 f0       	brcs	.+48     	; 0x549a <__fp_cmp+0x46>
    546a:	12 16       	cp	r1, r18
    546c:	13 06       	cpc	r1, r19
    546e:	e4 07       	cpc	r30, r20
    5470:	f5 07       	cpc	r31, r21
    5472:	98 f0       	brcs	.+38     	; 0x549a <__fp_cmp+0x46>
    5474:	62 1b       	sub	r22, r18
    5476:	73 0b       	sbc	r23, r19
    5478:	84 0b       	sbc	r24, r20
    547a:	95 0b       	sbc	r25, r21
    547c:	39 f4       	brne	.+14     	; 0x548c <__fp_cmp+0x38>
    547e:	0a 26       	eor	r0, r26
    5480:	61 f0       	breq	.+24     	; 0x549a <__fp_cmp+0x46>
    5482:	23 2b       	or	r18, r19
    5484:	24 2b       	or	r18, r20
    5486:	25 2b       	or	r18, r21
    5488:	21 f4       	brne	.+8      	; 0x5492 <__fp_cmp+0x3e>
    548a:	08 95       	ret
    548c:	0a 26       	eor	r0, r26
    548e:	09 f4       	brne	.+2      	; 0x5492 <__fp_cmp+0x3e>
    5490:	a1 40       	sbci	r26, 0x01	; 1
    5492:	a6 95       	lsr	r26
    5494:	8f ef       	ldi	r24, 0xFF	; 255
    5496:	81 1d       	adc	r24, r1
    5498:	81 1d       	adc	r24, r1
    549a:	08 95       	ret

0000549c <__fp_inf>:
    549c:	97 f9       	bld	r25, 7
    549e:	9f 67       	ori	r25, 0x7F	; 127
    54a0:	80 e8       	ldi	r24, 0x80	; 128
    54a2:	70 e0       	ldi	r23, 0x00	; 0
    54a4:	60 e0       	ldi	r22, 0x00	; 0
    54a6:	08 95       	ret

000054a8 <__fp_nan>:
    54a8:	9f ef       	ldi	r25, 0xFF	; 255
    54aa:	80 ec       	ldi	r24, 0xC0	; 192
    54ac:	08 95       	ret

000054ae <__fp_pscA>:
    54ae:	00 24       	eor	r0, r0
    54b0:	0a 94       	dec	r0
    54b2:	16 16       	cp	r1, r22
    54b4:	17 06       	cpc	r1, r23
    54b6:	18 06       	cpc	r1, r24
    54b8:	09 06       	cpc	r0, r25
    54ba:	08 95       	ret

000054bc <__fp_pscB>:
    54bc:	00 24       	eor	r0, r0
    54be:	0a 94       	dec	r0
    54c0:	12 16       	cp	r1, r18
    54c2:	13 06       	cpc	r1, r19
    54c4:	14 06       	cpc	r1, r20
    54c6:	05 06       	cpc	r0, r21
    54c8:	08 95       	ret

000054ca <__fp_round>:
    54ca:	09 2e       	mov	r0, r25
    54cc:	03 94       	inc	r0
    54ce:	00 0c       	add	r0, r0
    54d0:	11 f4       	brne	.+4      	; 0x54d6 <__fp_round+0xc>
    54d2:	88 23       	and	r24, r24
    54d4:	52 f0       	brmi	.+20     	; 0x54ea <__fp_round+0x20>
    54d6:	bb 0f       	add	r27, r27
    54d8:	40 f4       	brcc	.+16     	; 0x54ea <__fp_round+0x20>
    54da:	bf 2b       	or	r27, r31
    54dc:	11 f4       	brne	.+4      	; 0x54e2 <__fp_round+0x18>
    54de:	60 ff       	sbrs	r22, 0
    54e0:	04 c0       	rjmp	.+8      	; 0x54ea <__fp_round+0x20>
    54e2:	6f 5f       	subi	r22, 0xFF	; 255
    54e4:	7f 4f       	sbci	r23, 0xFF	; 255
    54e6:	8f 4f       	sbci	r24, 0xFF	; 255
    54e8:	9f 4f       	sbci	r25, 0xFF	; 255
    54ea:	08 95       	ret

000054ec <__fp_split3>:
    54ec:	57 fd       	sbrc	r21, 7
    54ee:	90 58       	subi	r25, 0x80	; 128
    54f0:	44 0f       	add	r20, r20
    54f2:	55 1f       	adc	r21, r21
    54f4:	59 f0       	breq	.+22     	; 0x550c <__fp_splitA+0x10>
    54f6:	5f 3f       	cpi	r21, 0xFF	; 255
    54f8:	71 f0       	breq	.+28     	; 0x5516 <__fp_splitA+0x1a>
    54fa:	47 95       	ror	r20

000054fc <__fp_splitA>:
    54fc:	88 0f       	add	r24, r24
    54fe:	97 fb       	bst	r25, 7
    5500:	99 1f       	adc	r25, r25
    5502:	61 f0       	breq	.+24     	; 0x551c <__fp_splitA+0x20>
    5504:	9f 3f       	cpi	r25, 0xFF	; 255
    5506:	79 f0       	breq	.+30     	; 0x5526 <__fp_splitA+0x2a>
    5508:	87 95       	ror	r24
    550a:	08 95       	ret
    550c:	12 16       	cp	r1, r18
    550e:	13 06       	cpc	r1, r19
    5510:	14 06       	cpc	r1, r20
    5512:	55 1f       	adc	r21, r21
    5514:	f2 cf       	rjmp	.-28     	; 0x54fa <__fp_split3+0xe>
    5516:	46 95       	lsr	r20
    5518:	f1 df       	rcall	.-30     	; 0x54fc <__fp_splitA>
    551a:	08 c0       	rjmp	.+16     	; 0x552c <__fp_splitA+0x30>
    551c:	16 16       	cp	r1, r22
    551e:	17 06       	cpc	r1, r23
    5520:	18 06       	cpc	r1, r24
    5522:	99 1f       	adc	r25, r25
    5524:	f1 cf       	rjmp	.-30     	; 0x5508 <__fp_splitA+0xc>
    5526:	86 95       	lsr	r24
    5528:	71 05       	cpc	r23, r1
    552a:	61 05       	cpc	r22, r1
    552c:	08 94       	sec
    552e:	08 95       	ret

00005530 <__fp_zero>:
    5530:	e8 94       	clt

00005532 <__fp_szero>:
    5532:	bb 27       	eor	r27, r27
    5534:	66 27       	eor	r22, r22
    5536:	77 27       	eor	r23, r23
    5538:	cb 01       	movw	r24, r22
    553a:	97 f9       	bld	r25, 7
    553c:	08 95       	ret

0000553e <__gesf2>:
    553e:	8a df       	rcall	.-236    	; 0x5454 <__fp_cmp>
    5540:	08 f4       	brcc	.+2      	; 0x5544 <__gesf2+0x6>
    5542:	8f ef       	ldi	r24, 0xFF	; 255
    5544:	08 95       	ret

00005546 <__mulsf3>:
    5546:	0b d0       	rcall	.+22     	; 0x555e <__mulsf3x>
    5548:	c0 cf       	rjmp	.-128    	; 0x54ca <__fp_round>
    554a:	b1 df       	rcall	.-158    	; 0x54ae <__fp_pscA>
    554c:	28 f0       	brcs	.+10     	; 0x5558 <__mulsf3+0x12>
    554e:	b6 df       	rcall	.-148    	; 0x54bc <__fp_pscB>
    5550:	18 f0       	brcs	.+6      	; 0x5558 <__mulsf3+0x12>
    5552:	95 23       	and	r25, r21
    5554:	09 f0       	breq	.+2      	; 0x5558 <__mulsf3+0x12>
    5556:	a2 cf       	rjmp	.-188    	; 0x549c <__fp_inf>
    5558:	a7 cf       	rjmp	.-178    	; 0x54a8 <__fp_nan>
    555a:	11 24       	eor	r1, r1
    555c:	ea cf       	rjmp	.-44     	; 0x5532 <__fp_szero>

0000555e <__mulsf3x>:
    555e:	c6 df       	rcall	.-116    	; 0x54ec <__fp_split3>
    5560:	a0 f3       	brcs	.-24     	; 0x554a <__mulsf3+0x4>

00005562 <__mulsf3_pse>:
    5562:	95 9f       	mul	r25, r21
    5564:	d1 f3       	breq	.-12     	; 0x555a <__mulsf3+0x14>
    5566:	95 0f       	add	r25, r21
    5568:	50 e0       	ldi	r21, 0x00	; 0
    556a:	55 1f       	adc	r21, r21
    556c:	62 9f       	mul	r22, r18
    556e:	f0 01       	movw	r30, r0
    5570:	72 9f       	mul	r23, r18
    5572:	bb 27       	eor	r27, r27
    5574:	f0 0d       	add	r31, r0
    5576:	b1 1d       	adc	r27, r1
    5578:	63 9f       	mul	r22, r19
    557a:	aa 27       	eor	r26, r26
    557c:	f0 0d       	add	r31, r0
    557e:	b1 1d       	adc	r27, r1
    5580:	aa 1f       	adc	r26, r26
    5582:	64 9f       	mul	r22, r20
    5584:	66 27       	eor	r22, r22
    5586:	b0 0d       	add	r27, r0
    5588:	a1 1d       	adc	r26, r1
    558a:	66 1f       	adc	r22, r22
    558c:	82 9f       	mul	r24, r18
    558e:	22 27       	eor	r18, r18
    5590:	b0 0d       	add	r27, r0
    5592:	a1 1d       	adc	r26, r1
    5594:	62 1f       	adc	r22, r18
    5596:	73 9f       	mul	r23, r19
    5598:	b0 0d       	add	r27, r0
    559a:	a1 1d       	adc	r26, r1
    559c:	62 1f       	adc	r22, r18
    559e:	83 9f       	mul	r24, r19
    55a0:	a0 0d       	add	r26, r0
    55a2:	61 1d       	adc	r22, r1
    55a4:	22 1f       	adc	r18, r18
    55a6:	74 9f       	mul	r23, r20
    55a8:	33 27       	eor	r19, r19
    55aa:	a0 0d       	add	r26, r0
    55ac:	61 1d       	adc	r22, r1
    55ae:	23 1f       	adc	r18, r19
    55b0:	84 9f       	mul	r24, r20
    55b2:	60 0d       	add	r22, r0
    55b4:	21 1d       	adc	r18, r1
    55b6:	82 2f       	mov	r24, r18
    55b8:	76 2f       	mov	r23, r22
    55ba:	6a 2f       	mov	r22, r26
    55bc:	11 24       	eor	r1, r1
    55be:	9f 57       	subi	r25, 0x7F	; 127
    55c0:	50 40       	sbci	r21, 0x00	; 0
    55c2:	8a f0       	brmi	.+34     	; 0x55e6 <__mulsf3_pse+0x84>
    55c4:	e1 f0       	breq	.+56     	; 0x55fe <__mulsf3_pse+0x9c>
    55c6:	88 23       	and	r24, r24
    55c8:	4a f0       	brmi	.+18     	; 0x55dc <__mulsf3_pse+0x7a>
    55ca:	ee 0f       	add	r30, r30
    55cc:	ff 1f       	adc	r31, r31
    55ce:	bb 1f       	adc	r27, r27
    55d0:	66 1f       	adc	r22, r22
    55d2:	77 1f       	adc	r23, r23
    55d4:	88 1f       	adc	r24, r24
    55d6:	91 50       	subi	r25, 0x01	; 1
    55d8:	50 40       	sbci	r21, 0x00	; 0
    55da:	a9 f7       	brne	.-22     	; 0x55c6 <__mulsf3_pse+0x64>
    55dc:	9e 3f       	cpi	r25, 0xFE	; 254
    55de:	51 05       	cpc	r21, r1
    55e0:	70 f0       	brcs	.+28     	; 0x55fe <__mulsf3_pse+0x9c>
    55e2:	5c cf       	rjmp	.-328    	; 0x549c <__fp_inf>
    55e4:	a6 cf       	rjmp	.-180    	; 0x5532 <__fp_szero>
    55e6:	5f 3f       	cpi	r21, 0xFF	; 255
    55e8:	ec f3       	brlt	.-6      	; 0x55e4 <__mulsf3_pse+0x82>
    55ea:	98 3e       	cpi	r25, 0xE8	; 232
    55ec:	dc f3       	brlt	.-10     	; 0x55e4 <__mulsf3_pse+0x82>
    55ee:	86 95       	lsr	r24
    55f0:	77 95       	ror	r23
    55f2:	67 95       	ror	r22
    55f4:	b7 95       	ror	r27
    55f6:	f7 95       	ror	r31
    55f8:	e7 95       	ror	r30
    55fa:	9f 5f       	subi	r25, 0xFF	; 255
    55fc:	c1 f7       	brne	.-16     	; 0x55ee <__mulsf3_pse+0x8c>
    55fe:	fe 2b       	or	r31, r30
    5600:	88 0f       	add	r24, r24
    5602:	91 1d       	adc	r25, r1
    5604:	96 95       	lsr	r25
    5606:	87 95       	ror	r24
    5608:	97 f9       	bld	r25, 7
    560a:	08 95       	ret

0000560c <__mulsi3>:
    560c:	db 01       	movw	r26, r22
    560e:	8f 93       	push	r24
    5610:	9f 93       	push	r25
    5612:	51 d0       	rcall	.+162    	; 0x56b6 <__muluhisi3>
    5614:	bf 91       	pop	r27
    5616:	af 91       	pop	r26
    5618:	a2 9f       	mul	r26, r18
    561a:	80 0d       	add	r24, r0
    561c:	91 1d       	adc	r25, r1
    561e:	a3 9f       	mul	r26, r19
    5620:	90 0d       	add	r25, r0
    5622:	b2 9f       	mul	r27, r18
    5624:	90 0d       	add	r25, r0
    5626:	11 24       	eor	r1, r1
    5628:	08 95       	ret

0000562a <__udivmodsi4>:
    562a:	a1 e2       	ldi	r26, 0x21	; 33
    562c:	1a 2e       	mov	r1, r26
    562e:	aa 1b       	sub	r26, r26
    5630:	bb 1b       	sub	r27, r27
    5632:	fd 01       	movw	r30, r26
    5634:	0d c0       	rjmp	.+26     	; 0x5650 <__udivmodsi4_ep>

00005636 <__udivmodsi4_loop>:
    5636:	aa 1f       	adc	r26, r26
    5638:	bb 1f       	adc	r27, r27
    563a:	ee 1f       	adc	r30, r30
    563c:	ff 1f       	adc	r31, r31
    563e:	a2 17       	cp	r26, r18
    5640:	b3 07       	cpc	r27, r19
    5642:	e4 07       	cpc	r30, r20
    5644:	f5 07       	cpc	r31, r21
    5646:	20 f0       	brcs	.+8      	; 0x5650 <__udivmodsi4_ep>
    5648:	a2 1b       	sub	r26, r18
    564a:	b3 0b       	sbc	r27, r19
    564c:	e4 0b       	sbc	r30, r20
    564e:	f5 0b       	sbc	r31, r21

00005650 <__udivmodsi4_ep>:
    5650:	66 1f       	adc	r22, r22
    5652:	77 1f       	adc	r23, r23
    5654:	88 1f       	adc	r24, r24
    5656:	99 1f       	adc	r25, r25
    5658:	1a 94       	dec	r1
    565a:	69 f7       	brne	.-38     	; 0x5636 <__udivmodsi4_loop>
    565c:	60 95       	com	r22
    565e:	70 95       	com	r23
    5660:	80 95       	com	r24
    5662:	90 95       	com	r25
    5664:	9b 01       	movw	r18, r22
    5666:	ac 01       	movw	r20, r24
    5668:	bd 01       	movw	r22, r26
    566a:	cf 01       	movw	r24, r30
    566c:	08 95       	ret

0000566e <__divmodsi4>:
    566e:	05 2e       	mov	r0, r21
    5670:	97 fb       	bst	r25, 7
    5672:	16 f4       	brtc	.+4      	; 0x5678 <__divmodsi4+0xa>
    5674:	00 94       	com	r0
    5676:	0f d0       	rcall	.+30     	; 0x5696 <__negsi2>
    5678:	57 fd       	sbrc	r21, 7
    567a:	05 d0       	rcall	.+10     	; 0x5686 <__divmodsi4_neg2>
    567c:	d6 df       	rcall	.-84     	; 0x562a <__udivmodsi4>
    567e:	07 fc       	sbrc	r0, 7
    5680:	02 d0       	rcall	.+4      	; 0x5686 <__divmodsi4_neg2>
    5682:	46 f4       	brtc	.+16     	; 0x5694 <__divmodsi4_exit>
    5684:	08 c0       	rjmp	.+16     	; 0x5696 <__negsi2>

00005686 <__divmodsi4_neg2>:
    5686:	50 95       	com	r21
    5688:	40 95       	com	r20
    568a:	30 95       	com	r19
    568c:	21 95       	neg	r18
    568e:	3f 4f       	sbci	r19, 0xFF	; 255
    5690:	4f 4f       	sbci	r20, 0xFF	; 255
    5692:	5f 4f       	sbci	r21, 0xFF	; 255

00005694 <__divmodsi4_exit>:
    5694:	08 95       	ret

00005696 <__negsi2>:
    5696:	90 95       	com	r25
    5698:	80 95       	com	r24
    569a:	70 95       	com	r23
    569c:	61 95       	neg	r22
    569e:	7f 4f       	sbci	r23, 0xFF	; 255
    56a0:	8f 4f       	sbci	r24, 0xFF	; 255
    56a2:	9f 4f       	sbci	r25, 0xFF	; 255
    56a4:	08 95       	ret

000056a6 <__tablejump2__>:
    56a6:	ee 0f       	add	r30, r30
    56a8:	ff 1f       	adc	r31, r31
    56aa:	88 1f       	adc	r24, r24
    56ac:	8b bf       	out	0x3b, r24	; 59
    56ae:	07 90       	elpm	r0, Z+
    56b0:	f6 91       	elpm	r31, Z
    56b2:	e0 2d       	mov	r30, r0
    56b4:	19 94       	eijmp

000056b6 <__muluhisi3>:
    56b6:	09 d0       	rcall	.+18     	; 0x56ca <__umulhisi3>
    56b8:	a5 9f       	mul	r26, r21
    56ba:	90 0d       	add	r25, r0
    56bc:	b4 9f       	mul	r27, r20
    56be:	90 0d       	add	r25, r0
    56c0:	a4 9f       	mul	r26, r20
    56c2:	80 0d       	add	r24, r0
    56c4:	91 1d       	adc	r25, r1
    56c6:	11 24       	eor	r1, r1
    56c8:	08 95       	ret

000056ca <__umulhisi3>:
    56ca:	a2 9f       	mul	r26, r18
    56cc:	b0 01       	movw	r22, r0
    56ce:	b3 9f       	mul	r27, r19
    56d0:	c0 01       	movw	r24, r0
    56d2:	a3 9f       	mul	r26, r19
    56d4:	70 0d       	add	r23, r0
    56d6:	81 1d       	adc	r24, r1
    56d8:	11 24       	eor	r1, r1
    56da:	91 1d       	adc	r25, r1
    56dc:	b2 9f       	mul	r27, r18
    56de:	70 0d       	add	r23, r0
    56e0:	81 1d       	adc	r24, r1
    56e2:	11 24       	eor	r1, r1
    56e4:	91 1d       	adc	r25, r1
    56e6:	08 95       	ret

000056e8 <_exit>:
    56e8:	f8 94       	cli

000056ea <__stop_program>:
    56ea:	ff cf       	rjmp	.-2      	; 0x56ea <__stop_program>
