
FilamentBoxBoard.elf:     file format elf32-avr

Sections:
Idx Name          Size      VMA       LMA       File off  Algn
  0 .data         00000638  00800200  00004968  000049fc  2**0
                  CONTENTS, ALLOC, LOAD, DATA
  1 .text         00004968  00000000  00000000  00000094  2**1
                  CONTENTS, ALLOC, LOAD, READONLY, CODE
  2 .bss          000003f6  00800838  00800838  00005034  2**0
                  ALLOC
  3 .comment      00000030  00000000  00000000  00005034  2**0
                  CONTENTS, READONLY
  4 .note.gnu.avr.deviceinfo 00000040  00000000  00000000  00005064  2**2
                  CONTENTS, READONLY
  5 .debug_aranges 00000360  00000000  00000000  000050a4  2**0
                  CONTENTS, READONLY, DEBUGGING
  6 .debug_info   00003c1b  00000000  00000000  00005404  2**0
                  CONTENTS, READONLY, DEBUGGING
  7 .debug_abbrev 00000d34  00000000  00000000  0000901f  2**0
                  CONTENTS, READONLY, DEBUGGING
  8 .debug_line   00002e02  00000000  00000000  00009d53  2**0
                  CONTENTS, READONLY, DEBUGGING
  9 .debug_frame  00000d8c  00000000  00000000  0000cb58  2**2
                  CONTENTS, READONLY, DEBUGGING
 10 .debug_str    00000fe1  00000000  00000000  0000d8e4  2**0
                  CONTENTS, READONLY, DEBUGGING
 11 .debug_loc    00001c50  00000000  00000000  0000e8c5  2**0
                  CONTENTS, READONLY, DEBUGGING
 12 .debug_ranges 000002d0  00000000  00000000  00010515  2**0
                  CONTENTS, READONLY, DEBUGGING

Disassembly of section .text:

00000000 <__vectors>:
       0:	81 c0       	rjmp	.+258    	; 0x104 <__ctors_end>
       2:	00 00       	nop
       4:	9f c0       	rjmp	.+318    	; 0x144 <__bad_interrupt>
       6:	00 00       	nop
       8:	9d c0       	rjmp	.+314    	; 0x144 <__bad_interrupt>
       a:	00 00       	nop
       c:	9b c0       	rjmp	.+310    	; 0x144 <__bad_interrupt>
       e:	00 00       	nop
      10:	99 c0       	rjmp	.+306    	; 0x144 <__bad_interrupt>
      12:	00 00       	nop
      14:	97 c0       	rjmp	.+302    	; 0x144 <__bad_interrupt>
      16:	00 00       	nop
      18:	95 c0       	rjmp	.+298    	; 0x144 <__bad_interrupt>
      1a:	00 00       	nop
      1c:	93 c0       	rjmp	.+294    	; 0x144 <__bad_interrupt>
      1e:	00 00       	nop
      20:	91 c0       	rjmp	.+290    	; 0x144 <__bad_interrupt>
      22:	00 00       	nop
      24:	8f c0       	rjmp	.+286    	; 0x144 <__bad_interrupt>
      26:	00 00       	nop
      28:	8d c0       	rjmp	.+282    	; 0x144 <__bad_interrupt>
      2a:	00 00       	nop
      2c:	8b c0       	rjmp	.+278    	; 0x144 <__bad_interrupt>
      2e:	00 00       	nop
      30:	89 c0       	rjmp	.+274    	; 0x144 <__bad_interrupt>
      32:	00 00       	nop
      34:	87 c0       	rjmp	.+270    	; 0x144 <__bad_interrupt>
      36:	00 00       	nop
      38:	85 c0       	rjmp	.+266    	; 0x144 <__bad_interrupt>
      3a:	00 00       	nop
      3c:	83 c0       	rjmp	.+262    	; 0x144 <__bad_interrupt>
      3e:	00 00       	nop
      40:	81 c0       	rjmp	.+258    	; 0x144 <__bad_interrupt>
      42:	00 00       	nop
      44:	1d c5       	rjmp	.+2618   	; 0xa80 <__vector_17>
      46:	00 00       	nop
      48:	7d c0       	rjmp	.+250    	; 0x144 <__bad_interrupt>
      4a:	00 00       	nop
      4c:	7b c0       	rjmp	.+246    	; 0x144 <__bad_interrupt>
      4e:	00 00       	nop
      50:	79 c0       	rjmp	.+242    	; 0x144 <__bad_interrupt>
      52:	00 00       	nop
      54:	9a c5       	rjmp	.+2868   	; 0xb8a <__vector_21>
      56:	00 00       	nop
      58:	75 c0       	rjmp	.+234    	; 0x144 <__bad_interrupt>
      5a:	00 00       	nop
      5c:	73 c0       	rjmp	.+230    	; 0x144 <__bad_interrupt>
      5e:	00 00       	nop
      60:	71 c0       	rjmp	.+226    	; 0x144 <__bad_interrupt>
      62:	00 00       	nop
      64:	6f c0       	rjmp	.+222    	; 0x144 <__bad_interrupt>
      66:	00 00       	nop
      68:	6d c0       	rjmp	.+218    	; 0x144 <__bad_interrupt>
      6a:	00 00       	nop
      6c:	6b c0       	rjmp	.+214    	; 0x144 <__bad_interrupt>
      6e:	00 00       	nop
      70:	69 c0       	rjmp	.+210    	; 0x144 <__bad_interrupt>
      72:	00 00       	nop
      74:	6e c6       	rjmp	.+3292   	; 0xd52 <__vector_29>
      76:	00 00       	nop
      78:	65 c0       	rjmp	.+202    	; 0x144 <__bad_interrupt>
      7a:	00 00       	nop
      7c:	63 c0       	rjmp	.+198    	; 0x144 <__bad_interrupt>
      7e:	00 00       	nop
      80:	61 c0       	rjmp	.+194    	; 0x144 <__bad_interrupt>
      82:	00 00       	nop
      84:	5f c0       	rjmp	.+190    	; 0x144 <__bad_interrupt>
      86:	00 00       	nop
      88:	5d c0       	rjmp	.+186    	; 0x144 <__bad_interrupt>
      8a:	00 00       	nop
      8c:	5b c0       	rjmp	.+182    	; 0x144 <__bad_interrupt>
      8e:	00 00       	nop
      90:	59 c0       	rjmp	.+178    	; 0x144 <__bad_interrupt>
      92:	00 00       	nop
      94:	57 c0       	rjmp	.+174    	; 0x144 <__bad_interrupt>
      96:	00 00       	nop
      98:	55 c0       	rjmp	.+170    	; 0x144 <__bad_interrupt>
      9a:	00 00       	nop
      9c:	53 c0       	rjmp	.+166    	; 0x144 <__bad_interrupt>
      9e:	00 00       	nop
      a0:	51 c0       	rjmp	.+162    	; 0x144 <__bad_interrupt>
      a2:	00 00       	nop
      a4:	4f c0       	rjmp	.+158    	; 0x144 <__bad_interrupt>
      a6:	00 00       	nop
      a8:	4d c0       	rjmp	.+154    	; 0x144 <__bad_interrupt>
      aa:	00 00       	nop
      ac:	4b c0       	rjmp	.+150    	; 0x144 <__bad_interrupt>
      ae:	00 00       	nop
      b0:	49 c0       	rjmp	.+146    	; 0x144 <__bad_interrupt>
      b2:	00 00       	nop
      b4:	47 c0       	rjmp	.+142    	; 0x144 <__bad_interrupt>
      b6:	00 00       	nop
      b8:	45 c0       	rjmp	.+138    	; 0x144 <__bad_interrupt>
      ba:	00 00       	nop
      bc:	43 c0       	rjmp	.+134    	; 0x144 <__bad_interrupt>
      be:	00 00       	nop
      c0:	41 c0       	rjmp	.+130    	; 0x144 <__bad_interrupt>
      c2:	00 00       	nop
      c4:	3f c0       	rjmp	.+126    	; 0x144 <__bad_interrupt>
      c6:	00 00       	nop
      c8:	3d c0       	rjmp	.+122    	; 0x144 <__bad_interrupt>
      ca:	00 00       	nop
      cc:	0c 94 96 09 	jmp	0x132c	; 0x132c <__vector_51>
      d0:	0c 94 c9 08 	jmp	0x1192	; 0x1192 <__vector_52>
      d4:	37 c0       	rjmp	.+110    	; 0x144 <__bad_interrupt>
      d6:	00 00       	nop
      d8:	35 c0       	rjmp	.+106    	; 0x144 <__bad_interrupt>
      da:	00 00       	nop
      dc:	33 c0       	rjmp	.+102    	; 0x144 <__bad_interrupt>
      de:	00 00       	nop
      e0:	31 c0       	rjmp	.+98     	; 0x144 <__bad_interrupt>
      e2:	00 00       	nop
      e4:	b9 0f       	add	r27, r25
      e6:	b9 0f       	add	r27, r25
      e8:	a9 0f       	add	r26, r25
      ea:	ad 0f       	add	r26, r29
      ec:	b9 0f       	add	r27, r25
      ee:	b1 0f       	add	r27, r17
      f0:	b9 0f       	add	r27, r25
      f2:	b9 0f       	add	r27, r25
      f4:	b9 0f       	add	r27, r25
      f6:	b9 0f       	add	r27, r25
      f8:	b9 0f       	add	r27, r25
      fa:	b9 0f       	add	r27, r25
      fc:	b9 0f       	add	r27, r25
      fe:	b9 0f       	add	r27, r25
     100:	b9 0f       	add	r27, r25
     102:	b5 0f       	add	r27, r21

00000104 <__ctors_end>:
     104:	11 24       	eor	r1, r1
     106:	1f be       	out	0x3f, r1	; 63
     108:	cf ef       	ldi	r28, 0xFF	; 255
     10a:	d1 e2       	ldi	r29, 0x21	; 33
     10c:	de bf       	out	0x3e, r29	; 62
     10e:	cd bf       	out	0x3d, r28	; 61
     110:	00 e0       	ldi	r16, 0x00	; 0
     112:	0c bf       	out	0x3c, r16	; 60

00000114 <__do_copy_data>:
     114:	18 e0       	ldi	r17, 0x08	; 8
     116:	a0 e0       	ldi	r26, 0x00	; 0
     118:	b2 e0       	ldi	r27, 0x02	; 2
     11a:	e8 e6       	ldi	r30, 0x68	; 104
     11c:	f9 e4       	ldi	r31, 0x49	; 73
     11e:	00 e0       	ldi	r16, 0x00	; 0
     120:	0b bf       	out	0x3b, r16	; 59
     122:	02 c0       	rjmp	.+4      	; 0x128 <__do_copy_data+0x14>
     124:	07 90       	elpm	r0, Z+
     126:	0d 92       	st	X+, r0
     128:	a8 33       	cpi	r26, 0x38	; 56
     12a:	b1 07       	cpc	r27, r17
     12c:	d9 f7       	brne	.-10     	; 0x124 <__do_copy_data+0x10>

0000012e <__do_clear_bss>:
     12e:	2c e0       	ldi	r18, 0x0C	; 12
     130:	a8 e3       	ldi	r26, 0x38	; 56
     132:	b8 e0       	ldi	r27, 0x08	; 8
     134:	01 c0       	rjmp	.+2      	; 0x138 <.do_clear_bss_start>

00000136 <.do_clear_bss_loop>:
     136:	1d 92       	st	X+, r1

00000138 <.do_clear_bss_start>:
     138:	ae 32       	cpi	r26, 0x2E	; 46
     13a:	b2 07       	cpc	r27, r18
     13c:	e1 f7       	brne	.-8      	; 0x136 <.do_clear_bss_loop>
     13e:	e4 d6       	rcall	.+3528   	; 0xf08 <main>
     140:	0c 94 b2 24 	jmp	0x4964	; 0x4964 <_exit>

00000144 <__bad_interrupt>:
     144:	5d cf       	rjmp	.-326    	; 0x0 <__vectors>

00000146 <init>:
//extern struct TemperatureController tempController[ANALOG_INPUTS];
//extern struct Fan fan[NUM_EXTRUDER];



void init(){
     146:	cf 93       	push	r28
     148:	df 93       	push	r29
     14a:	cd b7       	in	r28, 0x3d	; 61
     14c:	de b7       	in	r29, 0x3e	; 62
	
//***************************************
//	Init hardware
//***************************************
	//restoreEEPROMSettingsFromConfiguration();
	set_default_pins();
     14e:	ab d3       	rcall	.+1878   	; 0x8a6 <set_default_pins>
	Pin_init();
     150:	a3 d3       	rcall	.+1862   	; 0x898 <Pin_init>
	Timer0_init();
     152:	4a d4       	rcall	.+2196   	; 0x9e8 <Timer0_init>
	Timer1_init();
     154:	70 d4       	rcall	.+2272   	; 0xa36 <Timer1_init>
	readDataFromEEPROM();
     156:	bf d1       	rcall	.+894    	; 0x4d6 <readDataFromEEPROM>
	
	//initBaudrate();
	USARTX_Init(BAUDRATE);
     158:	60 e9       	ldi	r22, 0x90	; 144
     15a:	70 ed       	ldi	r23, 0xD0	; 208
     15c:	83 e0       	ldi	r24, 0x03	; 3
     15e:	90 e0       	ldi	r25, 0x00	; 0
     160:	68 d7       	rcall	.+3792   	; 0x1032 <USARTX_Init>
	initTensometer();
     162:	0e 94 e5 12 	call	0x25ca	; 0x25ca <initTensometer>
	sei();	 
     166:	78 94       	sei
}
     168:	df 91       	pop	r29
     16a:	cf 91       	pop	r28
     16c:	08 95       	ret

0000016e <register_filament_drivers_event_callback>:
				DRIVER1_DIR_PIN_HIGH;
			}
			break;
		}
	}
}
     16e:	cf 93       	push	r28
     170:	df 93       	push	r29
     172:	1f 92       	push	r1
     174:	1f 92       	push	r1
     176:	cd b7       	in	r28, 0x3d	; 61
     178:	de b7       	in	r29, 0x3e	; 62
     17a:	9a 83       	std	Y+2, r25	; 0x02
     17c:	89 83       	std	Y+1, r24	; 0x01
     17e:	89 81       	ldd	r24, Y+1	; 0x01
     180:	9a 81       	ldd	r25, Y+2	; 0x02
     182:	90 93 3f 08 	sts	0x083F, r25	; 0x80083f <filament_drivers_event_callback+0x1>
     186:	80 93 3e 08 	sts	0x083E, r24	; 0x80083e <filament_drivers_event_callback>
     18a:	0f 90       	pop	r0
     18c:	0f 90       	pop	r0
     18e:	df 91       	pop	r29
     190:	cf 91       	pop	r28
     192:	08 95       	ret

00000194 <FILAMENT_DRIVERS_EVENT>:
     194:	cf 93       	push	r28
     196:	df 93       	push	r29
     198:	cd b7       	in	r28, 0x3d	; 61
     19a:	de b7       	in	r29, 0x3e	; 62
     19c:	80 91 3e 08 	lds	r24, 0x083E	; 0x80083e <filament_drivers_event_callback>
     1a0:	90 91 3f 08 	lds	r25, 0x083F	; 0x80083f <filament_drivers_event_callback+0x1>
     1a4:	89 2b       	or	r24, r25
     1a6:	31 f0       	breq	.+12     	; 0x1b4 <FILAMENT_DRIVERS_EVENT+0x20>
     1a8:	80 91 3e 08 	lds	r24, 0x083E	; 0x80083e <filament_drivers_event_callback>
     1ac:	90 91 3f 08 	lds	r25, 0x083F	; 0x80083f <filament_drivers_event_callback+0x1>
     1b0:	fc 01       	movw	r30, r24
     1b2:	19 95       	eicall
     1b4:	df 91       	pop	r29
     1b6:	cf 91       	pop	r28
     1b8:	08 95       	ret

000001ba <initializeDrivers>:

void initializeDrivers() {
     1ba:	cf 93       	push	r28
     1bc:	df 93       	push	r29
     1be:	cd b7       	in	r28, 0x3d	; 61
     1c0:	de b7       	in	r29, 0x3e	; 62
	PIN_OUT(DRIVER0_STEP_PIN);
     1c2:	8d e2       	ldi	r24, 0x2D	; 45
     1c4:	90 e0       	ldi	r25, 0x00	; 0
     1c6:	2d e2       	ldi	r18, 0x2D	; 45
     1c8:	30 e0       	ldi	r19, 0x00	; 0
     1ca:	f9 01       	movw	r30, r18
     1cc:	20 81       	ld	r18, Z
     1ce:	20 62       	ori	r18, 0x20	; 32
     1d0:	fc 01       	movw	r30, r24
     1d2:	20 83       	st	Z, r18
	PIN_OUT(DRIVER0_DIR_PIN);
     1d4:	8d e2       	ldi	r24, 0x2D	; 45
     1d6:	90 e0       	ldi	r25, 0x00	; 0
     1d8:	2d e2       	ldi	r18, 0x2D	; 45
     1da:	30 e0       	ldi	r19, 0x00	; 0
     1dc:	f9 01       	movw	r30, r18
     1de:	20 81       	ld	r18, Z
     1e0:	20 61       	ori	r18, 0x10	; 16
     1e2:	fc 01       	movw	r30, r24
     1e4:	20 83       	st	Z, r18
	PIN_OUT(DRIVER0_ENABLE_PIN);
     1e6:	8d e2       	ldi	r24, 0x2D	; 45
     1e8:	90 e0       	ldi	r25, 0x00	; 0
     1ea:	2d e2       	ldi	r18, 0x2D	; 45
     1ec:	30 e0       	ldi	r19, 0x00	; 0
     1ee:	f9 01       	movw	r30, r18
     1f0:	20 81       	ld	r18, Z
     1f2:	28 60       	ori	r18, 0x08	; 8
     1f4:	fc 01       	movw	r30, r24
     1f6:	20 83       	st	Z, r18
	
	PIN_OUT(DRIVER1_STEP_PIN);
     1f8:	8a e0       	ldi	r24, 0x0A	; 10
     1fa:	91 e0       	ldi	r25, 0x01	; 1
     1fc:	2a e0       	ldi	r18, 0x0A	; 10
     1fe:	31 e0       	ldi	r19, 0x01	; 1
     200:	f9 01       	movw	r30, r18
     202:	20 81       	ld	r18, Z
     204:	20 62       	ori	r18, 0x20	; 32
     206:	fc 01       	movw	r30, r24
     208:	20 83       	st	Z, r18
	PIN_OUT(DRIVER1_DIR_PIN);
     20a:	8a e0       	ldi	r24, 0x0A	; 10
     20c:	91 e0       	ldi	r25, 0x01	; 1
     20e:	2a e0       	ldi	r18, 0x0A	; 10
     210:	31 e0       	ldi	r19, 0x01	; 1
     212:	f9 01       	movw	r30, r18
     214:	20 81       	ld	r18, Z
     216:	20 61       	ori	r18, 0x10	; 16
     218:	fc 01       	movw	r30, r24
     21a:	20 83       	st	Z, r18
	PIN_OUT(DRIVER1_ENABLE_PIN);
     21c:	8a e0       	ldi	r24, 0x0A	; 10
     21e:	91 e0       	ldi	r25, 0x01	; 1
     220:	2a e0       	ldi	r18, 0x0A	; 10
     222:	31 e0       	ldi	r19, 0x01	; 1
     224:	f9 01       	movw	r30, r18
     226:	20 81       	ld	r18, Z
     228:	28 60       	ori	r18, 0x08	; 8
     22a:	fc 01       	movw	r30, r24
     22c:	20 83       	st	Z, r18

	DRIVER0_STEP_PIN_LOW;
     22e:	8e e2       	ldi	r24, 0x2E	; 46
     230:	90 e0       	ldi	r25, 0x00	; 0
     232:	2e e2       	ldi	r18, 0x2E	; 46
     234:	30 e0       	ldi	r19, 0x00	; 0
     236:	f9 01       	movw	r30, r18
     238:	20 81       	ld	r18, Z
     23a:	2f 7d       	andi	r18, 0xDF	; 223
     23c:	fc 01       	movw	r30, r24
     23e:	20 83       	st	Z, r18
	DRIVER0_DIR_PIN_LOW;
     240:	8e e2       	ldi	r24, 0x2E	; 46
     242:	90 e0       	ldi	r25, 0x00	; 0
     244:	2e e2       	ldi	r18, 0x2E	; 46
     246:	30 e0       	ldi	r19, 0x00	; 0
     248:	f9 01       	movw	r30, r18
     24a:	20 81       	ld	r18, Z
     24c:	2f 7e       	andi	r18, 0xEF	; 239
     24e:	fc 01       	movw	r30, r24
     250:	20 83       	st	Z, r18
	DRIVER0_ENABLE_PIN_LOW;
     252:	8e e2       	ldi	r24, 0x2E	; 46
     254:	90 e0       	ldi	r25, 0x00	; 0
     256:	2e e2       	ldi	r18, 0x2E	; 46
     258:	30 e0       	ldi	r19, 0x00	; 0
     25a:	f9 01       	movw	r30, r18
     25c:	20 81       	ld	r18, Z
     25e:	27 7f       	andi	r18, 0xF7	; 247
     260:	fc 01       	movw	r30, r24
     262:	20 83       	st	Z, r18
	
	DRIVER1_STEP_PIN_LOW;
     264:	8b e0       	ldi	r24, 0x0B	; 11
     266:	91 e0       	ldi	r25, 0x01	; 1
     268:	2b e0       	ldi	r18, 0x0B	; 11
     26a:	31 e0       	ldi	r19, 0x01	; 1
     26c:	f9 01       	movw	r30, r18
     26e:	20 81       	ld	r18, Z
     270:	2f 7d       	andi	r18, 0xDF	; 223
     272:	fc 01       	movw	r30, r24
     274:	20 83       	st	Z, r18
	DRIVER1_DIR_PIN_LOW;
     276:	8b e0       	ldi	r24, 0x0B	; 11
     278:	91 e0       	ldi	r25, 0x01	; 1
     27a:	2b e0       	ldi	r18, 0x0B	; 11
     27c:	31 e0       	ldi	r19, 0x01	; 1
     27e:	f9 01       	movw	r30, r18
     280:	20 81       	ld	r18, Z
     282:	2f 7e       	andi	r18, 0xEF	; 239
     284:	fc 01       	movw	r30, r24
     286:	20 83       	st	Z, r18
	DRIVER1_ENABLE_PIN_LOW;
     288:	8b e0       	ldi	r24, 0x0B	; 11
     28a:	91 e0       	ldi	r25, 0x01	; 1
     28c:	2b e0       	ldi	r18, 0x0B	; 11
     28e:	31 e0       	ldi	r19, 0x01	; 1
     290:	f9 01       	movw	r30, r18
     292:	20 81       	ld	r18, Z
     294:	27 7f       	andi	r18, 0xF7	; 247
     296:	fc 01       	movw	r30, r24
     298:	20 83       	st	Z, r18
	
	driver_speed = DRIVER_COSNTANT_DELAY;
     29a:	8a e0       	ldi	r24, 0x0A	; 10
     29c:	90 e0       	ldi	r25, 0x00	; 0
     29e:	a0 e0       	ldi	r26, 0x00	; 0
     2a0:	b0 e0       	ldi	r27, 0x00	; 0
     2a2:	80 93 38 08 	sts	0x0838, r24	; 0x800838 <__data_end>
     2a6:	90 93 39 08 	sts	0x0839, r25	; 0x800839 <__data_end+0x1>
     2aa:	a0 93 3a 08 	sts	0x083A, r26	; 0x80083a <__data_end+0x2>
     2ae:	b0 93 3b 08 	sts	0x083B, r27	; 0x80083b <__data_end+0x3>
}
     2b2:	df 91       	pop	r29
     2b4:	cf 91       	pop	r28
     2b6:	08 95       	ret

000002b8 <manageFilamentDrivers>:

void manageFilamentDrivers(){
     2b8:	cf 93       	push	r28
     2ba:	df 93       	push	r29
     2bc:	cd b7       	in	r28, 0x3d	; 61
     2be:	de b7       	in	r29, 0x3e	; 62
	
}
     2c0:	df 91       	pop	r29
     2c2:	cf 91       	pop	r28
     2c4:	08 95       	ret

000002c6 <eprSetuint8_t>:
	baudrate = BAUDRATE;
	if(eprGetuint8_t(EPR_MAGIC_uint8_t) == EEPROM_MODE)
	{
		baudrate = eprGetInt32(EPR_BAUDRATE);
	}
}
     2c6:	cf 93       	push	r28
     2c8:	df 93       	push	r29
     2ca:	00 d0       	rcall	.+0      	; 0x2cc <eprSetuint8_t+0x6>
     2cc:	cd b7       	in	r28, 0x3d	; 61
     2ce:	de b7       	in	r29, 0x3e	; 62
     2d0:	9a 83       	std	Y+2, r25	; 0x02
     2d2:	89 83       	std	Y+1, r24	; 0x01
     2d4:	6b 83       	std	Y+3, r22	; 0x03
     2d6:	89 81       	ldd	r24, Y+1	; 0x01
     2d8:	9a 81       	ldd	r25, Y+2	; 0x02
     2da:	6b 81       	ldd	r22, Y+3	; 0x03
     2dc:	0e 94 9c 24 	call	0x4938	; 0x4938 <eeprom_write_byte>
     2e0:	0f 90       	pop	r0
     2e2:	0f 90       	pop	r0
     2e4:	0f 90       	pop	r0
     2e6:	df 91       	pop	r29
     2e8:	cf 91       	pop	r28
     2ea:	08 95       	ret

000002ec <eprSetInt16>:
     2ec:	cf 93       	push	r28
     2ee:	df 93       	push	r29
     2f0:	00 d0       	rcall	.+0      	; 0x2f2 <eprSetInt16+0x6>
     2f2:	1f 92       	push	r1
     2f4:	cd b7       	in	r28, 0x3d	; 61
     2f6:	de b7       	in	r29, 0x3e	; 62
     2f8:	9a 83       	std	Y+2, r25	; 0x02
     2fa:	89 83       	std	Y+1, r24	; 0x01
     2fc:	7c 83       	std	Y+4, r23	; 0x04
     2fe:	6b 83       	std	Y+3, r22	; 0x03
     300:	2b 81       	ldd	r18, Y+3	; 0x03
     302:	3c 81       	ldd	r19, Y+4	; 0x04
     304:	89 81       	ldd	r24, Y+1	; 0x01
     306:	9a 81       	ldd	r25, Y+2	; 0x02
     308:	b9 01       	movw	r22, r18
     30a:	0e 94 af 24 	call	0x495e	; 0x495e <eeprom_write_word>
     30e:	0f 90       	pop	r0
     310:	0f 90       	pop	r0
     312:	0f 90       	pop	r0
     314:	0f 90       	pop	r0
     316:	df 91       	pop	r29
     318:	cf 91       	pop	r28
     31a:	08 95       	ret

0000031c <eprSetInt32>:
     31c:	cf 93       	push	r28
     31e:	df 93       	push	r29
     320:	00 d0       	rcall	.+0      	; 0x322 <eprSetInt32+0x6>
     322:	00 d0       	rcall	.+0      	; 0x324 <eprSetInt32+0x8>
     324:	cd b7       	in	r28, 0x3d	; 61
     326:	de b7       	in	r29, 0x3e	; 62
     328:	9a 83       	std	Y+2, r25	; 0x02
     32a:	89 83       	std	Y+1, r24	; 0x01
     32c:	4b 83       	std	Y+3, r20	; 0x03
     32e:	5c 83       	std	Y+4, r21	; 0x04
     330:	6d 83       	std	Y+5, r22	; 0x05
     332:	7e 83       	std	Y+6, r23	; 0x06
     334:	8b 81       	ldd	r24, Y+3	; 0x03
     336:	9c 81       	ldd	r25, Y+4	; 0x04
     338:	ad 81       	ldd	r26, Y+5	; 0x05
     33a:	be 81       	ldd	r27, Y+6	; 0x06
     33c:	29 81       	ldd	r18, Y+1	; 0x01
     33e:	3a 81       	ldd	r19, Y+2	; 0x02
     340:	ac 01       	movw	r20, r24
     342:	bd 01       	movw	r22, r26
     344:	c9 01       	movw	r24, r18
     346:	0e 94 aa 24 	call	0x4954	; 0x4954 <eeprom_write_dword>
     34a:	26 96       	adiw	r28, 0x06	; 6
     34c:	0f b6       	in	r0, 0x3f	; 63
     34e:	f8 94       	cli
     350:	de bf       	out	0x3e, r29	; 62
     352:	0f be       	out	0x3f, r0	; 63
     354:	cd bf       	out	0x3d, r28	; 61
     356:	df 91       	pop	r29
     358:	cf 91       	pop	r28
     35a:	08 95       	ret

0000035c <eprGetuint8_t>:
     35c:	cf 93       	push	r28
     35e:	df 93       	push	r29
     360:	1f 92       	push	r1
     362:	1f 92       	push	r1
     364:	cd b7       	in	r28, 0x3d	; 61
     366:	de b7       	in	r29, 0x3e	; 62
     368:	9a 83       	std	Y+2, r25	; 0x02
     36a:	89 83       	std	Y+1, r24	; 0x01
     36c:	89 81       	ldd	r24, Y+1	; 0x01
     36e:	9a 81       	ldd	r25, Y+2	; 0x02
     370:	0e 94 8a 24 	call	0x4914	; 0x4914 <eeprom_read_byte>
     374:	0f 90       	pop	r0
     376:	0f 90       	pop	r0
     378:	df 91       	pop	r29
     37a:	cf 91       	pop	r28
     37c:	08 95       	ret

0000037e <eprGetInt16>:
     37e:	cf 93       	push	r28
     380:	df 93       	push	r29
     382:	1f 92       	push	r1
     384:	1f 92       	push	r1
     386:	cd b7       	in	r28, 0x3d	; 61
     388:	de b7       	in	r29, 0x3e	; 62
     38a:	9a 83       	std	Y+2, r25	; 0x02
     38c:	89 83       	std	Y+1, r24	; 0x01
     38e:	89 81       	ldd	r24, Y+1	; 0x01
     390:	9a 81       	ldd	r25, Y+2	; 0x02
     392:	0e 94 97 24 	call	0x492e	; 0x492e <eeprom_read_word>
     396:	0f 90       	pop	r0
     398:	0f 90       	pop	r0
     39a:	df 91       	pop	r29
     39c:	cf 91       	pop	r28
     39e:	08 95       	ret

000003a0 <eprGetInt32>:
     3a0:	cf 93       	push	r28
     3a2:	df 93       	push	r29
     3a4:	1f 92       	push	r1
     3a6:	1f 92       	push	r1
     3a8:	cd b7       	in	r28, 0x3d	; 61
     3aa:	de b7       	in	r29, 0x3e	; 62
     3ac:	9a 83       	std	Y+2, r25	; 0x02
     3ae:	89 83       	std	Y+1, r24	; 0x01
     3b0:	89 81       	ldd	r24, Y+1	; 0x01
     3b2:	9a 81       	ldd	r25, Y+2	; 0x02
     3b4:	0e 94 92 24 	call	0x4924	; 0x4924 <eeprom_read_dword>
     3b8:	dc 01       	movw	r26, r24
     3ba:	cb 01       	movw	r24, r22
     3bc:	bc 01       	movw	r22, r24
     3be:	cd 01       	movw	r24, r26
     3c0:	0f 90       	pop	r0
     3c2:	0f 90       	pop	r0
     3c4:	df 91       	pop	r29
     3c6:	cf 91       	pop	r28
     3c8:	08 95       	ret

000003ca <computeChecksum>:
     3ca:	cf 93       	push	r28
     3cc:	df 93       	push	r29
     3ce:	00 d0       	rcall	.+0      	; 0x3d0 <computeChecksum+0x6>
     3d0:	cd b7       	in	r28, 0x3d	; 61
     3d2:	de b7       	in	r29, 0x3e	; 62
     3d4:	1b 82       	std	Y+3, r1	; 0x03
     3d6:	1a 82       	std	Y+2, r1	; 0x02
     3d8:	19 82       	std	Y+1, r1	; 0x01
     3da:	11 c0       	rjmp	.+34     	; 0x3fe <computeChecksum+0x34>
     3dc:	89 81       	ldd	r24, Y+1	; 0x01
     3de:	9a 81       	ldd	r25, Y+2	; 0x02
     3e0:	05 97       	sbiw	r24, 0x05	; 5
     3e2:	09 f4       	brne	.+2      	; 0x3e6 <computeChecksum+0x1c>
     3e4:	07 c0       	rjmp	.+14     	; 0x3f4 <computeChecksum+0x2a>
     3e6:	89 81       	ldd	r24, Y+1	; 0x01
     3e8:	9a 81       	ldd	r25, Y+2	; 0x02
     3ea:	b8 df       	rcall	.-144    	; 0x35c <eprGetuint8_t>
     3ec:	98 2f       	mov	r25, r24
     3ee:	8b 81       	ldd	r24, Y+3	; 0x03
     3f0:	89 0f       	add	r24, r25
     3f2:	8b 83       	std	Y+3, r24	; 0x03
     3f4:	89 81       	ldd	r24, Y+1	; 0x01
     3f6:	9a 81       	ldd	r25, Y+2	; 0x02
     3f8:	01 96       	adiw	r24, 0x01	; 1
     3fa:	9a 83       	std	Y+2, r25	; 0x02
     3fc:	89 83       	std	Y+1, r24	; 0x01
     3fe:	89 81       	ldd	r24, Y+1	; 0x01
     400:	9a 81       	ldd	r25, Y+2	; 0x02
     402:	81 15       	cp	r24, r1
     404:	98 40       	sbci	r25, 0x08	; 8
     406:	50 f3       	brcs	.-44     	; 0x3dc <computeChecksum+0x12>
     408:	8b 81       	ldd	r24, Y+3	; 0x03
     40a:	0f 90       	pop	r0
     40c:	0f 90       	pop	r0
     40e:	0f 90       	pop	r0
     410:	df 91       	pop	r29
     412:	cf 91       	pop	r28
     414:	08 95       	ret

00000416 <storeDataIntoEEPROM>:


void storeDataIntoEEPROM(){
     416:	cf 93       	push	r28
     418:	df 93       	push	r29
     41a:	cd b7       	in	r28, 0x3d	; 61
     41c:	de b7       	in	r29, 0x3e	; 62
	
	eprSetuint8_t(EPR_VERSION, EEPROM_PROTOCOL_VERSION);
     41e:	62 e0       	ldi	r22, 0x02	; 2
     420:	86 e0       	ldi	r24, 0x06	; 6
     422:	90 e0       	ldi	r25, 0x00	; 0
     424:	50 df       	rcall	.-352    	; 0x2c6 <eprSetuint8_t>
	eprSetInt32(EPR_BAUDRATE,baudrate);
     426:	80 91 00 02 	lds	r24, 0x0200	; 0x800200 <__data_start>
     42a:	90 91 01 02 	lds	r25, 0x0201	; 0x800201 <__data_start+0x1>
     42e:	a0 91 02 02 	lds	r26, 0x0202	; 0x800202 <__data_start+0x2>
     432:	b0 91 03 02 	lds	r27, 0x0203	; 0x800203 <__data_start+0x3>
     436:	ac 01       	movw	r20, r24
     438:	bd 01       	movw	r22, r26
     43a:	81 e0       	ldi	r24, 0x01	; 1
     43c:	90 e0       	ldi	r25, 0x00	; 0
     43e:	6e df       	rcall	.-292    	; 0x31c <eprSetInt32>
	
	eprSetInt16(EPR_TENS0_CONSTATNT, tensometer[TENSOMETER_0].constantCalibrationValue );
     440:	80 91 0f 0c 	lds	r24, 0x0C0F	; 0x800c0f <tensometer+0xf>
     444:	90 91 10 0c 	lds	r25, 0x0C10	; 0x800c10 <tensometer+0x10>
     448:	bc 01       	movw	r22, r24
     44a:	85 e6       	ldi	r24, 0x65	; 101
     44c:	90 e0       	ldi	r25, 0x00	; 0
     44e:	4e df       	rcall	.-356    	; 0x2ec <eprSetInt16>
	eprSetInt32(EPR_TENS0_ZERO_SCALE_MASS, tensometer[TENSOMETER_0].zeroScaleMass );
     450:	80 91 11 0c 	lds	r24, 0x0C11	; 0x800c11 <tensometer+0x11>
     454:	90 91 12 0c 	lds	r25, 0x0C12	; 0x800c12 <tensometer+0x12>
     458:	a0 91 13 0c 	lds	r26, 0x0C13	; 0x800c13 <tensometer+0x13>
     45c:	b0 91 14 0c 	lds	r27, 0x0C14	; 0x800c14 <tensometer+0x14>
     460:	ac 01       	movw	r20, r24
     462:	bd 01       	movw	r22, r26
     464:	87 e6       	ldi	r24, 0x67	; 103
     466:	90 e0       	ldi	r25, 0x00	; 0
     468:	59 df       	rcall	.-334    	; 0x31c <eprSetInt32>
	eprSetInt16(EPR_TENS0_ROLL_WEIGHT, tensometer[TENSOMETER_0].rollWeight );
     46a:	80 91 04 0c 	lds	r24, 0x0C04	; 0x800c04 <tensometer+0x4>
     46e:	90 91 05 0c 	lds	r25, 0x0C05	; 0x800c05 <tensometer+0x5>
     472:	bc 01       	movw	r22, r24
     474:	89 e6       	ldi	r24, 0x69	; 105
     476:	90 e0       	ldi	r25, 0x00	; 0
     478:	39 df       	rcall	.-398    	; 0x2ec <eprSetInt16>
	
	eprSetInt16(EPR_TENS1_CONSTATNT, tensometer[TENSOMETER_1].constantCalibrationValue );
     47a:	80 91 26 0c 	lds	r24, 0x0C26	; 0x800c26 <tensometer+0x26>
     47e:	90 91 27 0c 	lds	r25, 0x0C27	; 0x800c27 <tensometer+0x27>
     482:	bc 01       	movw	r22, r24
     484:	8e e6       	ldi	r24, 0x6E	; 110
     486:	90 e0       	ldi	r25, 0x00	; 0
     488:	31 df       	rcall	.-414    	; 0x2ec <eprSetInt16>
	eprSetInt32(EPR_TENS1_ZERO_SCALE_MASS, tensometer[TENSOMETER_1].zeroScaleMass );
     48a:	80 91 28 0c 	lds	r24, 0x0C28	; 0x800c28 <tensometer+0x28>
     48e:	90 91 29 0c 	lds	r25, 0x0C29	; 0x800c29 <tensometer+0x29>
     492:	a0 91 2a 0c 	lds	r26, 0x0C2A	; 0x800c2a <tensometer+0x2a>
     496:	b0 91 2b 0c 	lds	r27, 0x0C2B	; 0x800c2b <tensometer+0x2b>
     49a:	ac 01       	movw	r20, r24
     49c:	bd 01       	movw	r22, r26
     49e:	80 e7       	ldi	r24, 0x70	; 112
     4a0:	90 e0       	ldi	r25, 0x00	; 0
     4a2:	3c df       	rcall	.-392    	; 0x31c <eprSetInt32>
	eprSetInt16(EPR_TENS1_ROLL_WEIGHT, tensometer[TENSOMETER_1].rollWeight );
     4a4:	80 91 1b 0c 	lds	r24, 0x0C1B	; 0x800c1b <tensometer+0x1b>
     4a8:	90 91 1c 0c 	lds	r25, 0x0C1C	; 0x800c1c <tensometer+0x1c>
     4ac:	bc 01       	movw	r22, r24
     4ae:	82 e7       	ldi	r24, 0x72	; 114
     4b0:	90 e0       	ldi	r25, 0x00	; 0
     4b2:	1c df       	rcall	.-456    	; 0x2ec <eprSetInt16>
	
	eprSetuint8_t(EPR_INTEGRITY_uint8_t, computeChecksum());
     4b4:	8a df       	rcall	.-236    	; 0x3ca <computeChecksum>
     4b6:	68 2f       	mov	r22, r24
     4b8:	85 e0       	ldi	r24, 0x05	; 5
     4ba:	90 e0       	ldi	r25, 0x00	; 0
     4bc:	04 df       	rcall	.-504    	; 0x2c6 <eprSetuint8_t>
	
}
     4be:	df 91       	pop	r29
     4c0:	cf 91       	pop	r28
     4c2:	08 95       	ret

000004c4 <restoreEEPROMSettingsFromConfiguration>:

void restoreEEPROMSettingsFromConfiguration()
{
     4c4:	cf 93       	push	r28
     4c6:	df 93       	push	r29
     4c8:	cd b7       	in	r28, 0x3d	; 61
     4ca:	de b7       	in	r29, 0x3e	; 62
	load_default_variables();
     4cc:	5f d0       	rcall	.+190    	; 0x58c <load_default_variables>
	storeDataIntoEEPROM();
     4ce:	a3 df       	rcall	.-186    	; 0x416 <storeDataIntoEEPROM>
}
     4d0:	df 91       	pop	r29
     4d2:	cf 91       	pop	r28
     4d4:	08 95       	ret

000004d6 <readDataFromEEPROM>:

void readDataFromEEPROM()
{
     4d6:	cf 93       	push	r28
     4d8:	df 93       	push	r29
     4da:	1f 92       	push	r1
     4dc:	cd b7       	in	r28, 0x3d	; 61
     4de:	de b7       	in	r29, 0x3e	; 62
	uint8_t newcheck = computeChecksum();
     4e0:	74 df       	rcall	.-280    	; 0x3ca <computeChecksum>
     4e2:	89 83       	std	Y+1, r24	; 0x01
	if(newcheck != eprGetuint8_t(EPR_INTEGRITY_uint8_t))
     4e4:	85 e0       	ldi	r24, 0x05	; 5
     4e6:	90 e0       	ldi	r25, 0x00	; 0
     4e8:	39 df       	rcall	.-398    	; 0x35c <eprGetuint8_t>
     4ea:	98 2f       	mov	r25, r24
     4ec:	89 81       	ldd	r24, Y+1	; 0x01
     4ee:	98 17       	cp	r25, r24
     4f0:	09 f0       	breq	.+2      	; 0x4f4 <readDataFromEEPROM+0x1e>
		restoreEEPROMSettingsFromConfiguration();
     4f2:	e8 df       	rcall	.-48     	; 0x4c4 <restoreEEPROMSettingsFromConfiguration>
	newcheck = eprGetuint8_t(EPR_VERSION);
     4f4:	86 e0       	ldi	r24, 0x06	; 6
     4f6:	90 e0       	ldi	r25, 0x00	; 0
     4f8:	31 df       	rcall	.-414    	; 0x35c <eprGetuint8_t>
     4fa:	89 83       	std	Y+1, r24	; 0x01
	if(EEPROM_PROTOCOL_VERSION != get_epr_version())
     4fc:	3d d0       	rcall	.+122    	; 0x578 <get_epr_version>
     4fe:	82 30       	cpi	r24, 0x02	; 2
     500:	09 f0       	breq	.+2      	; 0x504 <readDataFromEEPROM+0x2e>
		restoreEEPROMSettingsFromConfiguration();
     502:	e0 df       	rcall	.-64     	; 0x4c4 <restoreEEPROMSettingsFromConfiguration>
	
	//baudrate = eprGetInt32(EPR_BAUDRATE);
	
	tensometer[TENSOMETER_0].constantCalibrationValue = eprGetInt16(EPR_TENS0_CONSTATNT);
     504:	85 e6       	ldi	r24, 0x65	; 101
     506:	90 e0       	ldi	r25, 0x00	; 0
     508:	3a df       	rcall	.-396    	; 0x37e <eprGetInt16>
     50a:	90 93 10 0c 	sts	0x0C10, r25	; 0x800c10 <tensometer+0x10>
     50e:	80 93 0f 0c 	sts	0x0C0F, r24	; 0x800c0f <tensometer+0xf>
	tensometer[TENSOMETER_0].zeroScaleMass = eprGetInt32(EPR_TENS0_ZERO_SCALE_MASS);
     512:	87 e6       	ldi	r24, 0x67	; 103
     514:	90 e0       	ldi	r25, 0x00	; 0
     516:	44 df       	rcall	.-376    	; 0x3a0 <eprGetInt32>
     518:	dc 01       	movw	r26, r24
     51a:	cb 01       	movw	r24, r22
     51c:	80 93 11 0c 	sts	0x0C11, r24	; 0x800c11 <tensometer+0x11>
     520:	90 93 12 0c 	sts	0x0C12, r25	; 0x800c12 <tensometer+0x12>
     524:	a0 93 13 0c 	sts	0x0C13, r26	; 0x800c13 <tensometer+0x13>
     528:	b0 93 14 0c 	sts	0x0C14, r27	; 0x800c14 <tensometer+0x14>
	tensometer[TENSOMETER_0].rollWeight = eprGetInt16(EPR_TENS0_ROLL_WEIGHT);
     52c:	89 e6       	ldi	r24, 0x69	; 105
     52e:	90 e0       	ldi	r25, 0x00	; 0
     530:	26 df       	rcall	.-436    	; 0x37e <eprGetInt16>
     532:	90 93 05 0c 	sts	0x0C05, r25	; 0x800c05 <tensometer+0x5>
     536:	80 93 04 0c 	sts	0x0C04, r24	; 0x800c04 <tensometer+0x4>
	
	tensometer[TENSOMETER_1].constantCalibrationValue = eprGetInt16(EPR_TENS1_CONSTATNT);
     53a:	8e e6       	ldi	r24, 0x6E	; 110
     53c:	90 e0       	ldi	r25, 0x00	; 0
     53e:	1f df       	rcall	.-450    	; 0x37e <eprGetInt16>
     540:	90 93 27 0c 	sts	0x0C27, r25	; 0x800c27 <tensometer+0x27>
     544:	80 93 26 0c 	sts	0x0C26, r24	; 0x800c26 <tensometer+0x26>
	tensometer[TENSOMETER_1].zeroScaleMass = eprGetInt32(EPR_TENS1_ZERO_SCALE_MASS);
     548:	80 e7       	ldi	r24, 0x70	; 112
     54a:	90 e0       	ldi	r25, 0x00	; 0
     54c:	29 df       	rcall	.-430    	; 0x3a0 <eprGetInt32>
     54e:	dc 01       	movw	r26, r24
     550:	cb 01       	movw	r24, r22
     552:	80 93 28 0c 	sts	0x0C28, r24	; 0x800c28 <tensometer+0x28>
     556:	90 93 29 0c 	sts	0x0C29, r25	; 0x800c29 <tensometer+0x29>
     55a:	a0 93 2a 0c 	sts	0x0C2A, r26	; 0x800c2a <tensometer+0x2a>
     55e:	b0 93 2b 0c 	sts	0x0C2B, r27	; 0x800c2b <tensometer+0x2b>
	tensometer[TENSOMETER_1].rollWeight = eprGetInt16(EPR_TENS1_ROLL_WEIGHT);
     562:	82 e7       	ldi	r24, 0x72	; 114
     564:	90 e0       	ldi	r25, 0x00	; 0
     566:	0b df       	rcall	.-490    	; 0x37e <eprGetInt16>
     568:	90 93 1c 0c 	sts	0x0C1C, r25	; 0x800c1c <tensometer+0x1c>
     56c:	80 93 1b 0c 	sts	0x0C1B, r24	; 0x800c1b <tensometer+0x1b>
}
     570:	0f 90       	pop	r0
     572:	df 91       	pop	r29
     574:	cf 91       	pop	r28
     576:	08 95       	ret

00000578 <get_epr_version>:

uint8_t get_epr_version(){
     578:	cf 93       	push	r28
     57a:	df 93       	push	r29
     57c:	cd b7       	in	r28, 0x3d	; 61
     57e:	de b7       	in	r29, 0x3e	; 62
	return eprGetuint8_t(EPR_VERSION);
     580:	86 e0       	ldi	r24, 0x06	; 6
     582:	90 e0       	ldi	r25, 0x00	; 0
     584:	eb de       	rcall	.-554    	; 0x35c <eprGetuint8_t>
}
     586:	df 91       	pop	r29
     588:	cf 91       	pop	r28
     58a:	08 95       	ret

0000058c <load_default_variables>:

void load_default_variables(){
     58c:	cf 93       	push	r28
     58e:	df 93       	push	r29
     590:	cd b7       	in	r28, 0x3d	; 61
     592:	de b7       	in	r29, 0x3e	; 62
	tempController[EXT0].heatManager = EXT0_HEAT_MANAGER;
     594:	81 e0       	ldi	r24, 0x01	; 1
     596:	80 93 b5 09 	sts	0x09B5, r24	; 0x8009b5 <tempController+0x14>
	tempController[EXT0].sensorPin = EXT0_ANALOG_INPUT;
     59a:	10 92 a4 09 	sts	0x09A4, r1	; 0x8009a4 <tempController+0x3>
	tempController[EXT0].pidDriveMax = EXT0_DRIVE_MAX;
     59e:	86 ee       	ldi	r24, 0xE6	; 230
     5a0:	80 93 ba 09 	sts	0x09BA, r24	; 0x8009ba <tempController+0x19>
	tempController[EXT0].pidPGain = EXT0_PID_PGAIN;
     5a4:	8c ee       	ldi	r24, 0xEC	; 236
     5a6:	91 e5       	ldi	r25, 0x51	; 81
     5a8:	aa eb       	ldi	r26, 0xBA	; 186
     5aa:	b1 e4       	ldi	r27, 0x41	; 65
     5ac:	80 93 bc 09 	sts	0x09BC, r24	; 0x8009bc <tempController+0x1b>
     5b0:	90 93 bd 09 	sts	0x09BD, r25	; 0x8009bd <tempController+0x1c>
     5b4:	a0 93 be 09 	sts	0x09BE, r26	; 0x8009be <tempController+0x1d>
     5b8:	b0 93 bf 09 	sts	0x09BF, r27	; 0x8009bf <tempController+0x1e>
	tempController[EXT0].pidIGain = EXT0_PID_IGAIN;
     5bc:	8d e3       	ldi	r24, 0x3D	; 61
     5be:	9a e0       	ldi	r25, 0x0A	; 10
     5c0:	a7 e5       	ldi	r26, 0x57	; 87
     5c2:	bf e3       	ldi	r27, 0x3F	; 63
     5c4:	80 93 c0 09 	sts	0x09C0, r24	; 0x8009c0 <tempController+0x1f>
     5c8:	90 93 c1 09 	sts	0x09C1, r25	; 0x8009c1 <tempController+0x20>
     5cc:	a0 93 c2 09 	sts	0x09C2, r26	; 0x8009c2 <tempController+0x21>
     5d0:	b0 93 c3 09 	sts	0x09C3, r27	; 0x8009c3 <tempController+0x22>
	tempController[EXT0].pidDGain = EXT0_PID_DGAIN;
     5d4:	81 e7       	ldi	r24, 0x71	; 113
     5d6:	9d e3       	ldi	r25, 0x3D	; 61
     5d8:	a1 e2       	ldi	r26, 0x21	; 33
     5da:	b3 e4       	ldi	r27, 0x43	; 67
     5dc:	80 93 c4 09 	sts	0x09C4, r24	; 0x8009c4 <tempController+0x23>
     5e0:	90 93 c5 09 	sts	0x09C5, r25	; 0x8009c5 <tempController+0x24>
     5e4:	a0 93 c6 09 	sts	0x09C6, r26	; 0x8009c6 <tempController+0x25>
     5e8:	b0 93 c7 09 	sts	0x09C7, r27	; 0x8009c7 <tempController+0x26>
	tempController[EXT0].pidMax = EXT0_PID_MAX;
     5ec:	8f ef       	ldi	r24, 0xFF	; 255
     5ee:	80 93 c8 09 	sts	0x09C8, r24	; 0x8009c8 <tempController+0x27>
	tempController[EXT0].pidDriveMin = EXT0_DRIVE_MIN;
     5f2:	88 e2       	ldi	r24, 0x28	; 40
     5f4:	80 93 bb 09 	sts	0x09BB, r24	; 0x8009bb <tempController+0x1a>
	tempController[EXT0].sensorType = DEF_SENSOR_TYPE;//SENSOR_TYPE_TT2_231KC6_1;
     5f8:	8c ec       	ldi	r24, 0xCC	; 204
     5fa:	80 93 a3 09 	sts	0x09A3, r24	; 0x8009a3 <tempController+0x2>
	fan[EXT0].coolerSpeed = EXT0_EXTRUDER_COOLER_SPEED;
     5fe:	8f ef       	ldi	r24, 0xFF	; 255
     600:	80 93 6f 0b 	sts	0x0B6F, r24	; 0x800b6f <fan>
	
	tempController[EXT1].heatManager = EXT1_HEAT_MANAGER;
     604:	81 e0       	ldi	r24, 0x01	; 1
     606:	80 93 f7 09 	sts	0x09F7, r24	; 0x8009f7 <tempController+0x56>
	tempController[EXT1].sensorPin = EXT1_ANALOG_INPUT;
     60a:	81 e0       	ldi	r24, 0x01	; 1
     60c:	80 93 e6 09 	sts	0x09E6, r24	; 0x8009e6 <tempController+0x45>
	tempController[EXT1].pidDriveMax = EXT1_DRIVE_MAX;
     610:	86 ee       	ldi	r24, 0xE6	; 230
     612:	80 93 fc 09 	sts	0x09FC, r24	; 0x8009fc <tempController+0x5b>
	tempController[EXT1].pidPGain = EXT1_PID_PGAIN;
     616:	8c ee       	ldi	r24, 0xEC	; 236
     618:	91 e5       	ldi	r25, 0x51	; 81
     61a:	aa eb       	ldi	r26, 0xBA	; 186
     61c:	b1 e4       	ldi	r27, 0x41	; 65
     61e:	80 93 fe 09 	sts	0x09FE, r24	; 0x8009fe <tempController+0x5d>
     622:	90 93 ff 09 	sts	0x09FF, r25	; 0x8009ff <tempController+0x5e>
     626:	a0 93 00 0a 	sts	0x0A00, r26	; 0x800a00 <tempController+0x5f>
     62a:	b0 93 01 0a 	sts	0x0A01, r27	; 0x800a01 <tempController+0x60>
	tempController[EXT1].pidIGain = EXT1_PID_IGAIN;
     62e:	8d e3       	ldi	r24, 0x3D	; 61
     630:	9a e0       	ldi	r25, 0x0A	; 10
     632:	a7 e5       	ldi	r26, 0x57	; 87
     634:	bf e3       	ldi	r27, 0x3F	; 63
     636:	80 93 02 0a 	sts	0x0A02, r24	; 0x800a02 <tempController+0x61>
     63a:	90 93 03 0a 	sts	0x0A03, r25	; 0x800a03 <tempController+0x62>
     63e:	a0 93 04 0a 	sts	0x0A04, r26	; 0x800a04 <tempController+0x63>
     642:	b0 93 05 0a 	sts	0x0A05, r27	; 0x800a05 <tempController+0x64>
	tempController[EXT1].pidDGain = EXT1_PID_DGAIN;
     646:	81 e7       	ldi	r24, 0x71	; 113
     648:	9d e3       	ldi	r25, 0x3D	; 61
     64a:	a1 e2       	ldi	r26, 0x21	; 33
     64c:	b3 e4       	ldi	r27, 0x43	; 67
     64e:	80 93 06 0a 	sts	0x0A06, r24	; 0x800a06 <tempController+0x65>
     652:	90 93 07 0a 	sts	0x0A07, r25	; 0x800a07 <tempController+0x66>
     656:	a0 93 08 0a 	sts	0x0A08, r26	; 0x800a08 <tempController+0x67>
     65a:	b0 93 09 0a 	sts	0x0A09, r27	; 0x800a09 <tempController+0x68>
	tempController[EXT1].pidMax = EXT1_PID_MAX;
     65e:	8f ef       	ldi	r24, 0xFF	; 255
     660:	80 93 0a 0a 	sts	0x0A0A, r24	; 0x800a0a <tempController+0x69>
	tempController[EXT1].pidDriveMin = EXT1_DRIVE_MIN;
     664:	88 e2       	ldi	r24, 0x28	; 40
     666:	80 93 fd 09 	sts	0x09FD, r24	; 0x8009fd <tempController+0x5c>
	tempController[EXT1].sensorType = SENSOR_TYPE_TT2_231KC6_1;
     66a:	8b ec       	ldi	r24, 0xCB	; 203
     66c:	80 93 e5 09 	sts	0x09E5, r24	; 0x8009e5 <tempController+0x44>
	fan[EXT1].coolerSpeed = EXT1_EXTRUDER_COOLER_SPEED;
     670:	8f ef       	ldi	r24, 0xFF	; 255
     672:	80 93 71 0b 	sts	0x0B71, r24	; 0x800b71 <fan+0x2>
	
	tempController[BED0].heatManager = BED0_HEAT_MANAGER;
     676:	81 e0       	ldi	r24, 0x01	; 1
     678:	80 93 39 0a 	sts	0x0A39, r24	; 0x800a39 <tempController+0x98>
	tempController[BED0].sensorPin = BED0_ANALOG_INPUT;
     67c:	82 e0       	ldi	r24, 0x02	; 2
     67e:	80 93 28 0a 	sts	0x0A28, r24	; 0x800a28 <tempController+0x87>
	tempController[BED0].pidDriveMax = BED0_DRIVE_MAX;
     682:	8f ef       	ldi	r24, 0xFF	; 255
     684:	80 93 3e 0a 	sts	0x0A3E, r24	; 0x800a3e <tempController+0x9d>
	tempController[BED0].pidPGain = BED0_PID_PGAIN;
     688:	80 e0       	ldi	r24, 0x00	; 0
     68a:	90 e0       	ldi	r25, 0x00	; 0
     68c:	a4 e4       	ldi	r26, 0x44	; 68
     68e:	b3 e4       	ldi	r27, 0x43	; 67
     690:	80 93 40 0a 	sts	0x0A40, r24	; 0x800a40 <tempController+0x9f>
     694:	90 93 41 0a 	sts	0x0A41, r25	; 0x800a41 <tempController+0xa0>
     698:	a0 93 42 0a 	sts	0x0A42, r26	; 0x800a42 <tempController+0xa1>
     69c:	b0 93 43 0a 	sts	0x0A43, r27	; 0x800a43 <tempController+0xa2>
	tempController[BED0].pidIGain = BED0_PID_IGAIN;
     6a0:	80 e0       	ldi	r24, 0x00	; 0
     6a2:	90 e0       	ldi	r25, 0x00	; 0
     6a4:	a4 e0       	ldi	r26, 0x04	; 4
     6a6:	b2 e4       	ldi	r27, 0x42	; 66
     6a8:	80 93 44 0a 	sts	0x0A44, r24	; 0x800a44 <tempController+0xa3>
     6ac:	90 93 45 0a 	sts	0x0A45, r25	; 0x800a45 <tempController+0xa4>
     6b0:	a0 93 46 0a 	sts	0x0A46, r26	; 0x800a46 <tempController+0xa5>
     6b4:	b0 93 47 0a 	sts	0x0A47, r27	; 0x800a47 <tempController+0xa6>
	tempController[BED0].pidDGain = BED0_PID_DGAIN;
     6b8:	80 e0       	ldi	r24, 0x00	; 0
     6ba:	90 e0       	ldi	r25, 0x00	; 0
     6bc:	a1 e9       	ldi	r26, 0x91	; 145
     6be:	b3 e4       	ldi	r27, 0x43	; 67
     6c0:	80 93 48 0a 	sts	0x0A48, r24	; 0x800a48 <tempController+0xa7>
     6c4:	90 93 49 0a 	sts	0x0A49, r25	; 0x800a49 <tempController+0xa8>
     6c8:	a0 93 4a 0a 	sts	0x0A4A, r26	; 0x800a4a <tempController+0xa9>
     6cc:	b0 93 4b 0a 	sts	0x0A4B, r27	; 0x800a4b <tempController+0xaa>
	tempController[BED0].pidMax = BED0_PID_MAX;
     6d0:	8f ef       	ldi	r24, 0xFF	; 255
     6d2:	80 93 4c 0a 	sts	0x0A4C, r24	; 0x800a4c <tempController+0xab>
	tempController[BED0].pidDriveMin = BED0_DRIVE_MIN;
     6d6:	80 e5       	ldi	r24, 0x50	; 80
     6d8:	80 93 3f 0a 	sts	0x0A3F, r24	; 0x800a3f <tempController+0x9e>
	tempController[BED0].sensorType = SENSOR_TYPE_TT2_231KC6_1;
     6dc:	8b ec       	ldi	r24, 0xCB	; 203
     6de:	80 93 27 0a 	sts	0x0A27, r24	; 0x800a27 <tempController+0x86>
	
	tempController[BED1].heatManager = BED1_HEAT_MANAGER;
     6e2:	81 e0       	ldi	r24, 0x01	; 1
     6e4:	80 93 7b 0a 	sts	0x0A7B, r24	; 0x800a7b <tempController+0xda>
	tempController[BED1].sensorPin = BED1_ANALOG_INPUT;
     6e8:	83 e0       	ldi	r24, 0x03	; 3
     6ea:	80 93 6a 0a 	sts	0x0A6A, r24	; 0x800a6a <tempController+0xc9>
	tempController[BED1].pidDriveMax = BED1_DRIVE_MAX;
     6ee:	8f ef       	ldi	r24, 0xFF	; 255
     6f0:	80 93 80 0a 	sts	0x0A80, r24	; 0x800a80 <tempController+0xdf>
	tempController[BED1].pidPGain = BED1_PID_PGAIN;
     6f4:	80 e0       	ldi	r24, 0x00	; 0
     6f6:	90 e0       	ldi	r25, 0x00	; 0
     6f8:	a4 e4       	ldi	r26, 0x44	; 68
     6fa:	b3 e4       	ldi	r27, 0x43	; 67
     6fc:	80 93 82 0a 	sts	0x0A82, r24	; 0x800a82 <tempController+0xe1>
     700:	90 93 83 0a 	sts	0x0A83, r25	; 0x800a83 <tempController+0xe2>
     704:	a0 93 84 0a 	sts	0x0A84, r26	; 0x800a84 <tempController+0xe3>
     708:	b0 93 85 0a 	sts	0x0A85, r27	; 0x800a85 <tempController+0xe4>
	tempController[BED1].pidIGain = BED1_PID_IGAIN;
     70c:	80 e0       	ldi	r24, 0x00	; 0
     70e:	90 e0       	ldi	r25, 0x00	; 0
     710:	a4 e0       	ldi	r26, 0x04	; 4
     712:	b2 e4       	ldi	r27, 0x42	; 66
     714:	80 93 86 0a 	sts	0x0A86, r24	; 0x800a86 <tempController+0xe5>
     718:	90 93 87 0a 	sts	0x0A87, r25	; 0x800a87 <tempController+0xe6>
     71c:	a0 93 88 0a 	sts	0x0A88, r26	; 0x800a88 <tempController+0xe7>
     720:	b0 93 89 0a 	sts	0x0A89, r27	; 0x800a89 <tempController+0xe8>
	tempController[BED1].pidDGain = BED1_PID_DGAIN;
     724:	80 e0       	ldi	r24, 0x00	; 0
     726:	90 e0       	ldi	r25, 0x00	; 0
     728:	a1 e9       	ldi	r26, 0x91	; 145
     72a:	b3 e4       	ldi	r27, 0x43	; 67
     72c:	80 93 8a 0a 	sts	0x0A8A, r24	; 0x800a8a <tempController+0xe9>
     730:	90 93 8b 0a 	sts	0x0A8B, r25	; 0x800a8b <tempController+0xea>
     734:	a0 93 8c 0a 	sts	0x0A8C, r26	; 0x800a8c <tempController+0xeb>
     738:	b0 93 8d 0a 	sts	0x0A8D, r27	; 0x800a8d <tempController+0xec>
	tempController[BED1].pidMax = BED1_PID_MAX;
     73c:	8f ef       	ldi	r24, 0xFF	; 255
     73e:	80 93 8e 0a 	sts	0x0A8E, r24	; 0x800a8e <tempController+0xed>
	tempController[BED1].pidDriveMin = BED1_DRIVE_MIN;
     742:	80 e5       	ldi	r24, 0x50	; 80
     744:	80 93 81 0a 	sts	0x0A81, r24	; 0x800a81 <tempController+0xe0>
	tempController[BED1].sensorType = SENSOR_TYPE_TT2_231KC6_1;
     748:	8b ec       	ldi	r24, 0xCB	; 203
     74a:	80 93 69 0a 	sts	0x0A69, r24	; 0x800a69 <tempController+0xc8>
	
	tempController[BED2].heatManager = BED2_HEAT_MANAGER;
     74e:	81 e0       	ldi	r24, 0x01	; 1
     750:	80 93 bd 0a 	sts	0x0ABD, r24	; 0x800abd <tempController+0x11c>
	tempController[BED2].sensorPin = BED2_ANALOG_INPUT;
     754:	88 e0       	ldi	r24, 0x08	; 8
     756:	80 93 ac 0a 	sts	0x0AAC, r24	; 0x800aac <tempController+0x10b>
	tempController[BED2].pidDriveMax = BED2_DRIVE_MAX;
     75a:	8f ef       	ldi	r24, 0xFF	; 255
     75c:	80 93 c2 0a 	sts	0x0AC2, r24	; 0x800ac2 <tempController+0x121>
	tempController[BED2].pidPGain = BED2_PID_PGAIN;
     760:	80 e0       	ldi	r24, 0x00	; 0
     762:	90 e0       	ldi	r25, 0x00	; 0
     764:	a4 e4       	ldi	r26, 0x44	; 68
     766:	b3 e4       	ldi	r27, 0x43	; 67
     768:	80 93 c4 0a 	sts	0x0AC4, r24	; 0x800ac4 <tempController+0x123>
     76c:	90 93 c5 0a 	sts	0x0AC5, r25	; 0x800ac5 <tempController+0x124>
     770:	a0 93 c6 0a 	sts	0x0AC6, r26	; 0x800ac6 <tempController+0x125>
     774:	b0 93 c7 0a 	sts	0x0AC7, r27	; 0x800ac7 <tempController+0x126>
	tempController[BED2].pidIGain = BED2_PID_IGAIN;
     778:	80 e0       	ldi	r24, 0x00	; 0
     77a:	90 e0       	ldi	r25, 0x00	; 0
     77c:	a4 e0       	ldi	r26, 0x04	; 4
     77e:	b2 e4       	ldi	r27, 0x42	; 66
     780:	80 93 c8 0a 	sts	0x0AC8, r24	; 0x800ac8 <tempController+0x127>
     784:	90 93 c9 0a 	sts	0x0AC9, r25	; 0x800ac9 <tempController+0x128>
     788:	a0 93 ca 0a 	sts	0x0ACA, r26	; 0x800aca <tempController+0x129>
     78c:	b0 93 cb 0a 	sts	0x0ACB, r27	; 0x800acb <tempController+0x12a>
	tempController[BED2].pidDGain = BED2_PID_DGAIN;
     790:	80 e0       	ldi	r24, 0x00	; 0
     792:	90 e0       	ldi	r25, 0x00	; 0
     794:	a1 e9       	ldi	r26, 0x91	; 145
     796:	b3 e4       	ldi	r27, 0x43	; 67
     798:	80 93 cc 0a 	sts	0x0ACC, r24	; 0x800acc <tempController+0x12b>
     79c:	90 93 cd 0a 	sts	0x0ACD, r25	; 0x800acd <tempController+0x12c>
     7a0:	a0 93 ce 0a 	sts	0x0ACE, r26	; 0x800ace <tempController+0x12d>
     7a4:	b0 93 cf 0a 	sts	0x0ACF, r27	; 0x800acf <tempController+0x12e>
	tempController[BED2].pidMax = BED2_PID_MAX;
     7a8:	8f ef       	ldi	r24, 0xFF	; 255
     7aa:	80 93 d0 0a 	sts	0x0AD0, r24	; 0x800ad0 <tempController+0x12f>
	tempController[BED2].pidDriveMin = BED2_DRIVE_MIN;
     7ae:	80 e5       	ldi	r24, 0x50	; 80
     7b0:	80 93 c3 0a 	sts	0x0AC3, r24	; 0x800ac3 <tempController+0x122>
	tempController[BED2].sensorType = SENSOR_TYPE_TT2_231KC6_1;
     7b4:	8b ec       	ldi	r24, 0xCB	; 203
     7b6:	80 93 ab 0a 	sts	0x0AAB, r24	; 0x800aab <tempController+0x10a>
	
	tempController[BED3].heatManager = BED3_HEAT_MANAGER;
     7ba:	81 e0       	ldi	r24, 0x01	; 1
     7bc:	80 93 ff 0a 	sts	0x0AFF, r24	; 0x800aff <tempController+0x15e>
	tempController[BED3].sensorPin = BED3_ANALOG_INPUT;
     7c0:	89 e0       	ldi	r24, 0x09	; 9
     7c2:	80 93 ee 0a 	sts	0x0AEE, r24	; 0x800aee <tempController+0x14d>
	tempController[BED3].pidDriveMax = BED3_DRIVE_MAX;
     7c6:	8f ef       	ldi	r24, 0xFF	; 255
     7c8:	80 93 04 0b 	sts	0x0B04, r24	; 0x800b04 <tempController+0x163>
	tempController[BED3].pidPGain = BED3_PID_PGAIN;
     7cc:	80 e0       	ldi	r24, 0x00	; 0
     7ce:	90 e0       	ldi	r25, 0x00	; 0
     7d0:	a4 e4       	ldi	r26, 0x44	; 68
     7d2:	b3 e4       	ldi	r27, 0x43	; 67
     7d4:	80 93 06 0b 	sts	0x0B06, r24	; 0x800b06 <tempController+0x165>
     7d8:	90 93 07 0b 	sts	0x0B07, r25	; 0x800b07 <tempController+0x166>
     7dc:	a0 93 08 0b 	sts	0x0B08, r26	; 0x800b08 <tempController+0x167>
     7e0:	b0 93 09 0b 	sts	0x0B09, r27	; 0x800b09 <tempController+0x168>
	tempController[BED3].pidIGain = BED3_PID_IGAIN;
     7e4:	80 e0       	ldi	r24, 0x00	; 0
     7e6:	90 e0       	ldi	r25, 0x00	; 0
     7e8:	a4 e0       	ldi	r26, 0x04	; 4
     7ea:	b2 e4       	ldi	r27, 0x42	; 66
     7ec:	80 93 0a 0b 	sts	0x0B0A, r24	; 0x800b0a <tempController+0x169>
     7f0:	90 93 0b 0b 	sts	0x0B0B, r25	; 0x800b0b <tempController+0x16a>
     7f4:	a0 93 0c 0b 	sts	0x0B0C, r26	; 0x800b0c <tempController+0x16b>
     7f8:	b0 93 0d 0b 	sts	0x0B0D, r27	; 0x800b0d <tempController+0x16c>
	tempController[BED3].pidDGain = BED3_PID_DGAIN;
     7fc:	80 e0       	ldi	r24, 0x00	; 0
     7fe:	90 e0       	ldi	r25, 0x00	; 0
     800:	a1 e9       	ldi	r26, 0x91	; 145
     802:	b3 e4       	ldi	r27, 0x43	; 67
     804:	80 93 0e 0b 	sts	0x0B0E, r24	; 0x800b0e <tempController+0x16d>
     808:	90 93 0f 0b 	sts	0x0B0F, r25	; 0x800b0f <tempController+0x16e>
     80c:	a0 93 10 0b 	sts	0x0B10, r26	; 0x800b10 <tempController+0x16f>
     810:	b0 93 11 0b 	sts	0x0B11, r27	; 0x800b11 <tempController+0x170>
	tempController[BED3].pidMax = BED3_PID_MAX;
     814:	8f ef       	ldi	r24, 0xFF	; 255
     816:	80 93 12 0b 	sts	0x0B12, r24	; 0x800b12 <tempController+0x171>
	tempController[BED3].pidDriveMin = BED3_DRIVE_MIN;
     81a:	80 e5       	ldi	r24, 0x50	; 80
     81c:	80 93 05 0b 	sts	0x0B05, r24	; 0x800b05 <tempController+0x164>
	tempController[BED3].sensorType = SENSOR_TYPE_TT2_231KC6_1;
     820:	8b ec       	ldi	r24, 0xCB	; 203
     822:	80 93 ed 0a 	sts	0x0AED, r24	; 0x800aed <tempController+0x14c>
	
	tempController[CHAMB0].heatManager = CHAMB0_HEAT_MANAGER;
     826:	81 e0       	ldi	r24, 0x01	; 1
     828:	80 93 41 0b 	sts	0x0B41, r24	; 0x800b41 <tempController+0x1a0>
	tempController[CHAMB0].sensorPin = CHAMBER0_ANALOG_INPUT;
     82c:	8a e0       	ldi	r24, 0x0A	; 10
     82e:	80 93 30 0b 	sts	0x0B30, r24	; 0x800b30 <tempController+0x18f>
	tempController[CHAMB0].pidDriveMax = CHAMB0_DRIVE_MAX;
     832:	8f ef       	ldi	r24, 0xFF	; 255
     834:	80 93 46 0b 	sts	0x0B46, r24	; 0x800b46 <tempController+0x1a5>
	tempController[CHAMB0].pidPGain = CHAMB0_PID_PGAIN;
     838:	80 e0       	ldi	r24, 0x00	; 0
     83a:	90 e0       	ldi	r25, 0x00	; 0
     83c:	a4 e4       	ldi	r26, 0x44	; 68
     83e:	b3 e4       	ldi	r27, 0x43	; 67
     840:	80 93 48 0b 	sts	0x0B48, r24	; 0x800b48 <tempController+0x1a7>
     844:	90 93 49 0b 	sts	0x0B49, r25	; 0x800b49 <tempController+0x1a8>
     848:	a0 93 4a 0b 	sts	0x0B4A, r26	; 0x800b4a <tempController+0x1a9>
     84c:	b0 93 4b 0b 	sts	0x0B4B, r27	; 0x800b4b <tempController+0x1aa>
	tempController[CHAMB0].pidIGain = CHAMB0_PID_IGAIN;
     850:	80 e0       	ldi	r24, 0x00	; 0
     852:	90 e0       	ldi	r25, 0x00	; 0
     854:	a4 e0       	ldi	r26, 0x04	; 4
     856:	b2 e4       	ldi	r27, 0x42	; 66
     858:	80 93 4c 0b 	sts	0x0B4C, r24	; 0x800b4c <tempController+0x1ab>
     85c:	90 93 4d 0b 	sts	0x0B4D, r25	; 0x800b4d <tempController+0x1ac>
     860:	a0 93 4e 0b 	sts	0x0B4E, r26	; 0x800b4e <tempController+0x1ad>
     864:	b0 93 4f 0b 	sts	0x0B4F, r27	; 0x800b4f <tempController+0x1ae>
	tempController[CHAMB0].pidDGain = CHAMB0_PID_DGAIN;
     868:	80 e0       	ldi	r24, 0x00	; 0
     86a:	90 e0       	ldi	r25, 0x00	; 0
     86c:	a1 e9       	ldi	r26, 0x91	; 145
     86e:	b3 e4       	ldi	r27, 0x43	; 67
     870:	80 93 50 0b 	sts	0x0B50, r24	; 0x800b50 <tempController+0x1af>
     874:	90 93 51 0b 	sts	0x0B51, r25	; 0x800b51 <tempController+0x1b0>
     878:	a0 93 52 0b 	sts	0x0B52, r26	; 0x800b52 <tempController+0x1b1>
     87c:	b0 93 53 0b 	sts	0x0B53, r27	; 0x800b53 <tempController+0x1b2>
	tempController[CHAMB0].pidMax = CHAMB0_PID_MAX;
     880:	8f ef       	ldi	r24, 0xFF	; 255
     882:	80 93 54 0b 	sts	0x0B54, r24	; 0x800b54 <tempController+0x1b3>
	tempController[CHAMB0].pidDriveMin = CHAMB0_DRIVE_MIN;
     886:	80 e5       	ldi	r24, 0x50	; 80
     888:	80 93 47 0b 	sts	0x0B47, r24	; 0x800b47 <tempController+0x1a6>
	tempController[CHAMB0].sensorType = SENSOR_TYPE_TT2_231KC6_1;
     88c:	8b ec       	ldi	r24, 0xCB	; 203
     88e:	80 93 2f 0b 	sts	0x0B2F, r24	; 0x800b2f <tempController+0x18e>
     892:	df 91       	pop	r29
     894:	cf 91       	pop	r28
     896:	08 95       	ret

00000898 <Pin_init>:
	#if defined(DISABLE_DIGITAL_IO_FUNCTIONS_8_15)
		DIDR1 |= DISABLE_DIGITAL_IO_FUNCTIONS_8_15; //wylaczamy funkcje cyfrowe pinw wykorzystywanych do pomiarw adc
	#endif
	ADCSRA |= (1<<ADSC); //start pomiaru ADC
#endif
}
     898:	cf 93       	push	r28
     89a:	df 93       	push	r29
     89c:	cd b7       	in	r28, 0x3d	; 61
     89e:	de b7       	in	r29, 0x3e	; 62
     8a0:	df 91       	pop	r29
     8a2:	cf 91       	pop	r28
     8a4:	08 95       	ret

000008a6 <set_default_pins>:
     8a6:	cf 93       	push	r28
     8a8:	df 93       	push	r29
     8aa:	cd b7       	in	r28, 0x3d	; 61
     8ac:	de b7       	in	r29, 0x3e	; 62
     8ae:	81 e2       	ldi	r24, 0x21	; 33
     8b0:	90 e0       	ldi	r25, 0x00	; 0
     8b2:	fc 01       	movw	r30, r24
     8b4:	80 81       	ld	r24, Z
     8b6:	81 e2       	ldi	r24, 0x21	; 33
     8b8:	90 e0       	ldi	r25, 0x00	; 0
     8ba:	2f ef       	ldi	r18, 0xFF	; 255
     8bc:	fc 01       	movw	r30, r24
     8be:	20 83       	st	Z, r18
     8c0:	82 e2       	ldi	r24, 0x22	; 34
     8c2:	90 e0       	ldi	r25, 0x00	; 0
     8c4:	fc 01       	movw	r30, r24
     8c6:	80 81       	ld	r24, Z
     8c8:	82 e2       	ldi	r24, 0x22	; 34
     8ca:	90 e0       	ldi	r25, 0x00	; 0
     8cc:	fc 01       	movw	r30, r24
     8ce:	10 82       	st	Z, r1
     8d0:	84 e2       	ldi	r24, 0x24	; 36
     8d2:	90 e0       	ldi	r25, 0x00	; 0
     8d4:	24 e2       	ldi	r18, 0x24	; 36
     8d6:	30 e0       	ldi	r19, 0x00	; 0
     8d8:	f9 01       	movw	r30, r18
     8da:	20 81       	ld	r18, Z
     8dc:	21 6f       	ori	r18, 0xF1	; 241
     8de:	fc 01       	movw	r30, r24
     8e0:	20 83       	st	Z, r18
     8e2:	85 e2       	ldi	r24, 0x25	; 37
     8e4:	90 e0       	ldi	r25, 0x00	; 0
     8e6:	25 e2       	ldi	r18, 0x25	; 37
     8e8:	30 e0       	ldi	r19, 0x00	; 0
     8ea:	f9 01       	movw	r30, r18
     8ec:	20 81       	ld	r18, Z
     8ee:	2e 70       	andi	r18, 0x0E	; 14
     8f0:	fc 01       	movw	r30, r24
     8f2:	20 83       	st	Z, r18
     8f4:	87 e2       	ldi	r24, 0x27	; 39
     8f6:	90 e0       	ldi	r25, 0x00	; 0
     8f8:	fc 01       	movw	r30, r24
     8fa:	80 81       	ld	r24, Z
     8fc:	87 e2       	ldi	r24, 0x27	; 39
     8fe:	90 e0       	ldi	r25, 0x00	; 0
     900:	2f ef       	ldi	r18, 0xFF	; 255
     902:	fc 01       	movw	r30, r24
     904:	20 83       	st	Z, r18
     906:	88 e2       	ldi	r24, 0x28	; 40
     908:	90 e0       	ldi	r25, 0x00	; 0
     90a:	fc 01       	movw	r30, r24
     90c:	80 81       	ld	r24, Z
     90e:	88 e2       	ldi	r24, 0x28	; 40
     910:	90 e0       	ldi	r25, 0x00	; 0
     912:	fc 01       	movw	r30, r24
     914:	10 82       	st	Z, r1
     916:	8a e2       	ldi	r24, 0x2A	; 42
     918:	90 e0       	ldi	r25, 0x00	; 0
     91a:	fc 01       	movw	r30, r24
     91c:	80 81       	ld	r24, Z
     91e:	8a e2       	ldi	r24, 0x2A	; 42
     920:	90 e0       	ldi	r25, 0x00	; 0
     922:	2f ef       	ldi	r18, 0xFF	; 255
     924:	fc 01       	movw	r30, r24
     926:	20 83       	st	Z, r18
     928:	8b e2       	ldi	r24, 0x2B	; 43
     92a:	90 e0       	ldi	r25, 0x00	; 0
     92c:	fc 01       	movw	r30, r24
     92e:	80 81       	ld	r24, Z
     930:	8b e2       	ldi	r24, 0x2B	; 43
     932:	90 e0       	ldi	r25, 0x00	; 0
     934:	fc 01       	movw	r30, r24
     936:	10 82       	st	Z, r1
     938:	8d e2       	ldi	r24, 0x2D	; 45
     93a:	90 e0       	ldi	r25, 0x00	; 0
     93c:	fc 01       	movw	r30, r24
     93e:	80 81       	ld	r24, Z
     940:	8d e2       	ldi	r24, 0x2D	; 45
     942:	90 e0       	ldi	r25, 0x00	; 0
     944:	2f ef       	ldi	r18, 0xFF	; 255
     946:	fc 01       	movw	r30, r24
     948:	20 83       	st	Z, r18
     94a:	8e e2       	ldi	r24, 0x2E	; 46
     94c:	90 e0       	ldi	r25, 0x00	; 0
     94e:	fc 01       	movw	r30, r24
     950:	80 81       	ld	r24, Z
     952:	8e e2       	ldi	r24, 0x2E	; 46
     954:	90 e0       	ldi	r25, 0x00	; 0
     956:	fc 01       	movw	r30, r24
     958:	10 82       	st	Z, r1
     95a:	83 e3       	ldi	r24, 0x33	; 51
     95c:	90 e0       	ldi	r25, 0x00	; 0
     95e:	fc 01       	movw	r30, r24
     960:	80 81       	ld	r24, Z
     962:	83 e3       	ldi	r24, 0x33	; 51
     964:	90 e0       	ldi	r25, 0x00	; 0
     966:	2f ef       	ldi	r18, 0xFF	; 255
     968:	fc 01       	movw	r30, r24
     96a:	20 83       	st	Z, r18
     96c:	84 e3       	ldi	r24, 0x34	; 52
     96e:	90 e0       	ldi	r25, 0x00	; 0
     970:	fc 01       	movw	r30, r24
     972:	80 81       	ld	r24, Z
     974:	84 e3       	ldi	r24, 0x34	; 52
     976:	90 e0       	ldi	r25, 0x00	; 0
     978:	fc 01       	movw	r30, r24
     97a:	10 82       	st	Z, r1
     97c:	81 e0       	ldi	r24, 0x01	; 1
     97e:	91 e0       	ldi	r25, 0x01	; 1
     980:	fc 01       	movw	r30, r24
     982:	80 81       	ld	r24, Z
     984:	81 e0       	ldi	r24, 0x01	; 1
     986:	91 e0       	ldi	r25, 0x01	; 1
     988:	2f ef       	ldi	r18, 0xFF	; 255
     98a:	fc 01       	movw	r30, r24
     98c:	20 83       	st	Z, r18
     98e:	82 e0       	ldi	r24, 0x02	; 2
     990:	91 e0       	ldi	r25, 0x01	; 1
     992:	fc 01       	movw	r30, r24
     994:	80 81       	ld	r24, Z
     996:	82 e0       	ldi	r24, 0x02	; 2
     998:	91 e0       	ldi	r25, 0x01	; 1
     99a:	fc 01       	movw	r30, r24
     99c:	10 82       	st	Z, r1
     99e:	84 e0       	ldi	r24, 0x04	; 4
     9a0:	91 e0       	ldi	r25, 0x01	; 1
     9a2:	fc 01       	movw	r30, r24
     9a4:	80 81       	ld	r24, Z
     9a6:	84 e0       	ldi	r24, 0x04	; 4
     9a8:	91 e0       	ldi	r25, 0x01	; 1
     9aa:	2f ef       	ldi	r18, 0xFF	; 255
     9ac:	fc 01       	movw	r30, r24
     9ae:	20 83       	st	Z, r18
     9b0:	85 e0       	ldi	r24, 0x05	; 5
     9b2:	91 e0       	ldi	r25, 0x01	; 1
     9b4:	fc 01       	movw	r30, r24
     9b6:	80 81       	ld	r24, Z
     9b8:	85 e0       	ldi	r24, 0x05	; 5
     9ba:	91 e0       	ldi	r25, 0x01	; 1
     9bc:	fc 01       	movw	r30, r24
     9be:	10 82       	st	Z, r1
     9c0:	8a e0       	ldi	r24, 0x0A	; 10
     9c2:	91 e0       	ldi	r25, 0x01	; 1
     9c4:	fc 01       	movw	r30, r24
     9c6:	80 81       	ld	r24, Z
     9c8:	8a e0       	ldi	r24, 0x0A	; 10
     9ca:	91 e0       	ldi	r25, 0x01	; 1
     9cc:	2f ef       	ldi	r18, 0xFF	; 255
     9ce:	fc 01       	movw	r30, r24
     9d0:	20 83       	st	Z, r18
     9d2:	8b e0       	ldi	r24, 0x0B	; 11
     9d4:	91 e0       	ldi	r25, 0x01	; 1
     9d6:	fc 01       	movw	r30, r24
     9d8:	80 81       	ld	r24, Z
     9da:	8b e0       	ldi	r24, 0x0B	; 11
     9dc:	91 e0       	ldi	r25, 0x01	; 1
     9de:	fc 01       	movw	r30, r24
     9e0:	10 82       	st	Z, r1
     9e2:	df 91       	pop	r29
     9e4:	cf 91       	pop	r28
     9e6:	08 95       	ret

000009e8 <Timer0_init>:
     9e8:	cf 93       	push	r28
     9ea:	df 93       	push	r29
     9ec:	cd b7       	in	r28, 0x3d	; 61
     9ee:	de b7       	in	r29, 0x3e	; 62
     9f0:	84 e4       	ldi	r24, 0x44	; 68
     9f2:	90 e0       	ldi	r25, 0x00	; 0
     9f4:	24 e4       	ldi	r18, 0x44	; 68
     9f6:	30 e0       	ldi	r19, 0x00	; 0
     9f8:	f9 01       	movw	r30, r18
     9fa:	20 81       	ld	r18, Z
     9fc:	22 60       	ori	r18, 0x02	; 2
     9fe:	fc 01       	movw	r30, r24
     a00:	20 83       	st	Z, r18
     a02:	85 e4       	ldi	r24, 0x45	; 69
     a04:	90 e0       	ldi	r25, 0x00	; 0
     a06:	25 e4       	ldi	r18, 0x45	; 69
     a08:	30 e0       	ldi	r19, 0x00	; 0
     a0a:	f9 01       	movw	r30, r18
     a0c:	20 81       	ld	r18, Z
     a0e:	23 60       	ori	r18, 0x03	; 3
     a10:	fc 01       	movw	r30, r24
     a12:	20 83       	st	Z, r18
     a14:	87 e4       	ldi	r24, 0x47	; 71
     a16:	90 e0       	ldi	r25, 0x00	; 0
     a18:	20 e4       	ldi	r18, 0x40	; 64
     a1a:	fc 01       	movw	r30, r24
     a1c:	20 83       	st	Z, r18
     a1e:	8e e6       	ldi	r24, 0x6E	; 110
     a20:	90 e0       	ldi	r25, 0x00	; 0
     a22:	2e e6       	ldi	r18, 0x6E	; 110
     a24:	30 e0       	ldi	r19, 0x00	; 0
     a26:	f9 01       	movw	r30, r18
     a28:	20 81       	ld	r18, Z
     a2a:	22 60       	ori	r18, 0x02	; 2
     a2c:	fc 01       	movw	r30, r24
     a2e:	20 83       	st	Z, r18
     a30:	df 91       	pop	r29
     a32:	cf 91       	pop	r28
     a34:	08 95       	ret

00000a36 <Timer1_init>:
     a36:	cf 93       	push	r28
     a38:	df 93       	push	r29
     a3a:	cd b7       	in	r28, 0x3d	; 61
     a3c:	de b7       	in	r29, 0x3e	; 62
     a3e:	81 e8       	ldi	r24, 0x81	; 129
     a40:	90 e0       	ldi	r25, 0x00	; 0
     a42:	21 e8       	ldi	r18, 0x81	; 129
     a44:	30 e0       	ldi	r19, 0x00	; 0
     a46:	f9 01       	movw	r30, r18
     a48:	20 81       	ld	r18, Z
     a4a:	28 60       	ori	r18, 0x08	; 8
     a4c:	fc 01       	movw	r30, r24
     a4e:	20 83       	st	Z, r18
     a50:	81 e8       	ldi	r24, 0x81	; 129
     a52:	90 e0       	ldi	r25, 0x00	; 0
     a54:	21 e8       	ldi	r18, 0x81	; 129
     a56:	30 e0       	ldi	r19, 0x00	; 0
     a58:	f9 01       	movw	r30, r18
     a5a:	20 81       	ld	r18, Z
     a5c:	23 60       	ori	r18, 0x03	; 3
     a5e:	fc 01       	movw	r30, r24
     a60:	20 83       	st	Z, r18
     a62:	88 e8       	ldi	r24, 0x88	; 136
     a64:	90 e0       	ldi	r25, 0x00	; 0
     a66:	29 ef       	ldi	r18, 0xF9	; 249
     a68:	30 e0       	ldi	r19, 0x00	; 0
     a6a:	fc 01       	movw	r30, r24
     a6c:	31 83       	std	Z+1, r19	; 0x01
     a6e:	20 83       	st	Z, r18
     a70:	8f e6       	ldi	r24, 0x6F	; 111
     a72:	90 e0       	ldi	r25, 0x00	; 0
     a74:	22 e0       	ldi	r18, 0x02	; 2
     a76:	fc 01       	movw	r30, r24
     a78:	20 83       	st	Z, r18
     a7a:	df 91       	pop	r29
     a7c:	cf 91       	pop	r28
     a7e:	08 95       	ret

00000a80 <__vector_17>:
     a80:	1f 92       	push	r1
     a82:	0f 92       	push	r0
     a84:	00 90 5f 00 	lds	r0, 0x005F	; 0x80005f <__TEXT_REGION_LENGTH__+0x70005f>
     a88:	0f 92       	push	r0
     a8a:	11 24       	eor	r1, r1
     a8c:	8f 93       	push	r24
     a8e:	9f 93       	push	r25
     a90:	af 93       	push	r26
     a92:	bf 93       	push	r27
     a94:	cf 93       	push	r28
     a96:	df 93       	push	r29
     a98:	1f 92       	push	r1
     a9a:	1f 92       	push	r1
     a9c:	cd b7       	in	r28, 0x3d	; 61
     a9e:	de b7       	in	r29, 0x3e	; 62
     aa0:	80 91 40 08 	lds	r24, 0x0840	; 0x800840 <millis>
     aa4:	90 91 41 08 	lds	r25, 0x0841	; 0x800841 <millis+0x1>
     aa8:	a0 91 42 08 	lds	r26, 0x0842	; 0x800842 <millis+0x2>
     aac:	b0 91 43 08 	lds	r27, 0x0843	; 0x800843 <millis+0x3>
     ab0:	01 96       	adiw	r24, 0x01	; 1
     ab2:	a1 1d       	adc	r26, r1
     ab4:	b1 1d       	adc	r27, r1
     ab6:	80 93 40 08 	sts	0x0840, r24	; 0x800840 <millis>
     aba:	90 93 41 08 	sts	0x0841, r25	; 0x800841 <millis+0x1>
     abe:	a0 93 42 08 	sts	0x0842, r26	; 0x800842 <millis+0x2>
     ac2:	b0 93 43 08 	sts	0x0843, r27	; 0x800843 <millis+0x3>
     ac6:	80 91 44 08 	lds	r24, 0x0844	; 0x800844 <Door_move_timer>
     aca:	90 91 45 08 	lds	r25, 0x0845	; 0x800845 <Door_move_timer+0x1>
     ace:	9a 83       	std	Y+2, r25	; 0x02
     ad0:	89 83       	std	Y+1, r24	; 0x01
     ad2:	89 81       	ldd	r24, Y+1	; 0x01
     ad4:	9a 81       	ldd	r25, Y+2	; 0x02
     ad6:	89 2b       	or	r24, r25
     ad8:	59 f0       	breq	.+22     	; 0xaf0 <__vector_17+0x70>
     ada:	89 81       	ldd	r24, Y+1	; 0x01
     adc:	9a 81       	ldd	r25, Y+2	; 0x02
     ade:	01 97       	sbiw	r24, 0x01	; 1
     ae0:	9a 83       	std	Y+2, r25	; 0x02
     ae2:	89 83       	std	Y+1, r24	; 0x01
     ae4:	89 81       	ldd	r24, Y+1	; 0x01
     ae6:	9a 81       	ldd	r25, Y+2	; 0x02
     ae8:	90 93 45 08 	sts	0x0845, r25	; 0x800845 <Door_move_timer+0x1>
     aec:	80 93 44 08 	sts	0x0844, r24	; 0x800844 <Door_move_timer>
     af0:	80 91 46 08 	lds	r24, 0x0846	; 0x800846 <Door_delay_timer>
     af4:	90 91 47 08 	lds	r25, 0x0847	; 0x800847 <Door_delay_timer+0x1>
     af8:	9a 83       	std	Y+2, r25	; 0x02
     afa:	89 83       	std	Y+1, r24	; 0x01
     afc:	89 81       	ldd	r24, Y+1	; 0x01
     afe:	9a 81       	ldd	r25, Y+2	; 0x02
     b00:	89 2b       	or	r24, r25
     b02:	59 f0       	breq	.+22     	; 0xb1a <__vector_17+0x9a>
     b04:	89 81       	ldd	r24, Y+1	; 0x01
     b06:	9a 81       	ldd	r25, Y+2	; 0x02
     b08:	01 97       	sbiw	r24, 0x01	; 1
     b0a:	9a 83       	std	Y+2, r25	; 0x02
     b0c:	89 83       	std	Y+1, r24	; 0x01
     b0e:	89 81       	ldd	r24, Y+1	; 0x01
     b10:	9a 81       	ldd	r25, Y+2	; 0x02
     b12:	90 93 47 08 	sts	0x0847, r25	; 0x800847 <Door_delay_timer+0x1>
     b16:	80 93 46 08 	sts	0x0846, r24	; 0x800846 <Door_delay_timer>
     b1a:	80 91 48 08 	lds	r24, 0x0848	; 0x800848 <Filament_measure_timer>
     b1e:	90 91 49 08 	lds	r25, 0x0849	; 0x800849 <Filament_measure_timer+0x1>
     b22:	9a 83       	std	Y+2, r25	; 0x02
     b24:	89 83       	std	Y+1, r24	; 0x01
     b26:	89 81       	ldd	r24, Y+1	; 0x01
     b28:	9a 81       	ldd	r25, Y+2	; 0x02
     b2a:	89 2b       	or	r24, r25
     b2c:	59 f0       	breq	.+22     	; 0xb44 <__vector_17+0xc4>
     b2e:	89 81       	ldd	r24, Y+1	; 0x01
     b30:	9a 81       	ldd	r25, Y+2	; 0x02
     b32:	01 97       	sbiw	r24, 0x01	; 1
     b34:	9a 83       	std	Y+2, r25	; 0x02
     b36:	89 83       	std	Y+1, r24	; 0x01
     b38:	89 81       	ldd	r24, Y+1	; 0x01
     b3a:	9a 81       	ldd	r25, Y+2	; 0x02
     b3c:	90 93 49 08 	sts	0x0849, r25	; 0x800849 <Filament_measure_timer+0x1>
     b40:	80 93 48 08 	sts	0x0848, r24	; 0x800848 <Filament_measure_timer>
     b44:	80 91 65 08 	lds	r24, 0x0865	; 0x800865 <modbus_transmission_blocade_timer>
     b48:	90 91 66 08 	lds	r25, 0x0866	; 0x800866 <modbus_transmission_blocade_timer+0x1>
     b4c:	9a 83       	std	Y+2, r25	; 0x02
     b4e:	89 83       	std	Y+1, r24	; 0x01
     b50:	89 81       	ldd	r24, Y+1	; 0x01
     b52:	9a 81       	ldd	r25, Y+2	; 0x02
     b54:	89 2b       	or	r24, r25
     b56:	59 f0       	breq	.+22     	; 0xb6e <__vector_17+0xee>
     b58:	89 81       	ldd	r24, Y+1	; 0x01
     b5a:	9a 81       	ldd	r25, Y+2	; 0x02
     b5c:	01 97       	sbiw	r24, 0x01	; 1
     b5e:	9a 83       	std	Y+2, r25	; 0x02
     b60:	89 83       	std	Y+1, r24	; 0x01
     b62:	89 81       	ldd	r24, Y+1	; 0x01
     b64:	9a 81       	ldd	r25, Y+2	; 0x02
     b66:	90 93 66 08 	sts	0x0866, r25	; 0x800866 <modbus_transmission_blocade_timer+0x1>
     b6a:	80 93 65 08 	sts	0x0865, r24	; 0x800865 <modbus_transmission_blocade_timer>
     b6e:	0f 90       	pop	r0
     b70:	0f 90       	pop	r0
     b72:	df 91       	pop	r29
     b74:	cf 91       	pop	r28
     b76:	bf 91       	pop	r27
     b78:	af 91       	pop	r26
     b7a:	9f 91       	pop	r25
     b7c:	8f 91       	pop	r24
     b7e:	0f 90       	pop	r0
     b80:	00 92 5f 00 	sts	0x005F, r0	; 0x80005f <__TEXT_REGION_LENGTH__+0x70005f>
     b84:	0f 90       	pop	r0
     b86:	1f 90       	pop	r1
     b88:	18 95       	reti

00000b8a <__vector_21>:
     b8a:	1f 92       	push	r1
     b8c:	0f 92       	push	r0
     b8e:	00 90 5f 00 	lds	r0, 0x005F	; 0x80005f <__TEXT_REGION_LENGTH__+0x70005f>
     b92:	0f 92       	push	r0
     b94:	11 24       	eor	r1, r1
     b96:	00 90 5b 00 	lds	r0, 0x005B	; 0x80005b <__TEXT_REGION_LENGTH__+0x70005b>
     b9a:	0f 92       	push	r0
     b9c:	2f 93       	push	r18
     b9e:	3f 93       	push	r19
     ba0:	8f 93       	push	r24
     ba2:	9f 93       	push	r25
     ba4:	af 93       	push	r26
     ba6:	bf 93       	push	r27
     ba8:	ef 93       	push	r30
     baa:	ff 93       	push	r31
     bac:	cf 93       	push	r28
     bae:	df 93       	push	r29
     bb0:	cd b7       	in	r28, 0x3d	; 61
     bb2:	de b7       	in	r29, 0x3e	; 62
     bb4:	80 91 3c 08 	lds	r24, 0x083C	; 0x80083c <driver0_enabled>
     bb8:	88 23       	and	r24, r24
     bba:	09 f4       	brne	.+2      	; 0xbbe <__vector_21+0x34>
     bbc:	59 c0       	rjmp	.+178    	; 0xc70 <__vector_21+0xe6>
     bbe:	80 91 4b 08 	lds	r24, 0x084B	; 0x80084b <driver0_delay.1751>
     bc2:	90 91 4c 08 	lds	r25, 0x084C	; 0x80084c <driver0_delay.1751+0x1>
     bc6:	a0 91 4d 08 	lds	r26, 0x084D	; 0x80084d <driver0_delay.1751+0x2>
     bca:	b0 91 4e 08 	lds	r27, 0x084E	; 0x80084e <driver0_delay.1751+0x3>
     bce:	89 2b       	or	r24, r25
     bd0:	8a 2b       	or	r24, r26
     bd2:	8b 2b       	or	r24, r27
     bd4:	d1 f5       	brne	.+116    	; 0xc4a <__vector_21+0xc0>
     bd6:	80 91 4f 08 	lds	r24, 0x084F	; 0x80084f <driver0_step.1749>
     bda:	81 70       	andi	r24, 0x01	; 1
     bdc:	88 23       	and	r24, r24
     bde:	b1 f0       	breq	.+44     	; 0xc0c <__vector_21+0x82>
     be0:	8e e2       	ldi	r24, 0x2E	; 46
     be2:	90 e0       	ldi	r25, 0x00	; 0
     be4:	2e e2       	ldi	r18, 0x2E	; 46
     be6:	30 e0       	ldi	r19, 0x00	; 0
     be8:	f9 01       	movw	r30, r18
     bea:	20 81       	ld	r18, Z
     bec:	20 62       	ori	r18, 0x20	; 32
     bee:	fc 01       	movw	r30, r24
     bf0:	20 83       	st	Z, r18
     bf2:	8a e0       	ldi	r24, 0x0A	; 10
     bf4:	90 e0       	ldi	r25, 0x00	; 0
     bf6:	a0 e0       	ldi	r26, 0x00	; 0
     bf8:	b0 e0       	ldi	r27, 0x00	; 0
     bfa:	80 93 4b 08 	sts	0x084B, r24	; 0x80084b <driver0_delay.1751>
     bfe:	90 93 4c 08 	sts	0x084C, r25	; 0x80084c <driver0_delay.1751+0x1>
     c02:	a0 93 4d 08 	sts	0x084D, r26	; 0x80084d <driver0_delay.1751+0x2>
     c06:	b0 93 4e 08 	sts	0x084E, r27	; 0x80084e <driver0_delay.1751+0x3>
     c0a:	19 c0       	rjmp	.+50     	; 0xc3e <__vector_21+0xb4>
     c0c:	8e e2       	ldi	r24, 0x2E	; 46
     c0e:	90 e0       	ldi	r25, 0x00	; 0
     c10:	2e e2       	ldi	r18, 0x2E	; 46
     c12:	30 e0       	ldi	r19, 0x00	; 0
     c14:	f9 01       	movw	r30, r18
     c16:	20 81       	ld	r18, Z
     c18:	2f 7d       	andi	r18, 0xDF	; 223
     c1a:	fc 01       	movw	r30, r24
     c1c:	20 83       	st	Z, r18
     c1e:	80 91 38 08 	lds	r24, 0x0838	; 0x800838 <__data_end>
     c22:	90 91 39 08 	lds	r25, 0x0839	; 0x800839 <__data_end+0x1>
     c26:	a0 91 3a 08 	lds	r26, 0x083A	; 0x80083a <__data_end+0x2>
     c2a:	b0 91 3b 08 	lds	r27, 0x083B	; 0x80083b <__data_end+0x3>
     c2e:	80 93 4b 08 	sts	0x084B, r24	; 0x80084b <driver0_delay.1751>
     c32:	90 93 4c 08 	sts	0x084C, r25	; 0x80084c <driver0_delay.1751+0x1>
     c36:	a0 93 4d 08 	sts	0x084D, r26	; 0x80084d <driver0_delay.1751+0x2>
     c3a:	b0 93 4e 08 	sts	0x084E, r27	; 0x80084e <driver0_delay.1751+0x3>
     c3e:	80 91 4f 08 	lds	r24, 0x084F	; 0x80084f <driver0_step.1749>
     c42:	8f 5f       	subi	r24, 0xFF	; 255
     c44:	80 93 4f 08 	sts	0x084F, r24	; 0x80084f <driver0_step.1749>
     c48:	13 c0       	rjmp	.+38     	; 0xc70 <__vector_21+0xe6>
     c4a:	80 91 4b 08 	lds	r24, 0x084B	; 0x80084b <driver0_delay.1751>
     c4e:	90 91 4c 08 	lds	r25, 0x084C	; 0x80084c <driver0_delay.1751+0x1>
     c52:	a0 91 4d 08 	lds	r26, 0x084D	; 0x80084d <driver0_delay.1751+0x2>
     c56:	b0 91 4e 08 	lds	r27, 0x084E	; 0x80084e <driver0_delay.1751+0x3>
     c5a:	01 97       	sbiw	r24, 0x01	; 1
     c5c:	a1 09       	sbc	r26, r1
     c5e:	b1 09       	sbc	r27, r1
     c60:	80 93 4b 08 	sts	0x084B, r24	; 0x80084b <driver0_delay.1751>
     c64:	90 93 4c 08 	sts	0x084C, r25	; 0x80084c <driver0_delay.1751+0x1>
     c68:	a0 93 4d 08 	sts	0x084D, r26	; 0x80084d <driver0_delay.1751+0x2>
     c6c:	b0 93 4e 08 	sts	0x084E, r27	; 0x80084e <driver0_delay.1751+0x3>
     c70:	80 91 3d 08 	lds	r24, 0x083D	; 0x80083d <driver1_enabled>
     c74:	88 23       	and	r24, r24
     c76:	09 f4       	brne	.+2      	; 0xc7a <__vector_21+0xf0>
     c78:	59 c0       	rjmp	.+178    	; 0xd2c <__vector_21+0x1a2>
     c7a:	80 91 50 08 	lds	r24, 0x0850	; 0x800850 <driver1_delay.1752>
     c7e:	90 91 51 08 	lds	r25, 0x0851	; 0x800851 <driver1_delay.1752+0x1>
     c82:	a0 91 52 08 	lds	r26, 0x0852	; 0x800852 <driver1_delay.1752+0x2>
     c86:	b0 91 53 08 	lds	r27, 0x0853	; 0x800853 <driver1_delay.1752+0x3>
     c8a:	89 2b       	or	r24, r25
     c8c:	8a 2b       	or	r24, r26
     c8e:	8b 2b       	or	r24, r27
     c90:	d1 f5       	brne	.+116    	; 0xd06 <__vector_21+0x17c>
     c92:	80 91 54 08 	lds	r24, 0x0854	; 0x800854 <driver1_step.1750>
     c96:	81 70       	andi	r24, 0x01	; 1
     c98:	88 23       	and	r24, r24
     c9a:	b1 f0       	breq	.+44     	; 0xcc8 <__vector_21+0x13e>
     c9c:	8b e0       	ldi	r24, 0x0B	; 11
     c9e:	91 e0       	ldi	r25, 0x01	; 1
     ca0:	2b e0       	ldi	r18, 0x0B	; 11
     ca2:	31 e0       	ldi	r19, 0x01	; 1
     ca4:	f9 01       	movw	r30, r18
     ca6:	20 81       	ld	r18, Z
     ca8:	20 62       	ori	r18, 0x20	; 32
     caa:	fc 01       	movw	r30, r24
     cac:	20 83       	st	Z, r18
     cae:	8a e0       	ldi	r24, 0x0A	; 10
     cb0:	90 e0       	ldi	r25, 0x00	; 0
     cb2:	a0 e0       	ldi	r26, 0x00	; 0
     cb4:	b0 e0       	ldi	r27, 0x00	; 0
     cb6:	80 93 50 08 	sts	0x0850, r24	; 0x800850 <driver1_delay.1752>
     cba:	90 93 51 08 	sts	0x0851, r25	; 0x800851 <driver1_delay.1752+0x1>
     cbe:	a0 93 52 08 	sts	0x0852, r26	; 0x800852 <driver1_delay.1752+0x2>
     cc2:	b0 93 53 08 	sts	0x0853, r27	; 0x800853 <driver1_delay.1752+0x3>
     cc6:	19 c0       	rjmp	.+50     	; 0xcfa <__vector_21+0x170>
     cc8:	8b e0       	ldi	r24, 0x0B	; 11
     cca:	91 e0       	ldi	r25, 0x01	; 1
     ccc:	2b e0       	ldi	r18, 0x0B	; 11
     cce:	31 e0       	ldi	r19, 0x01	; 1
     cd0:	f9 01       	movw	r30, r18
     cd2:	20 81       	ld	r18, Z
     cd4:	2f 7d       	andi	r18, 0xDF	; 223
     cd6:	fc 01       	movw	r30, r24
     cd8:	20 83       	st	Z, r18
     cda:	80 91 38 08 	lds	r24, 0x0838	; 0x800838 <__data_end>
     cde:	90 91 39 08 	lds	r25, 0x0839	; 0x800839 <__data_end+0x1>
     ce2:	a0 91 3a 08 	lds	r26, 0x083A	; 0x80083a <__data_end+0x2>
     ce6:	b0 91 3b 08 	lds	r27, 0x083B	; 0x80083b <__data_end+0x3>
     cea:	80 93 50 08 	sts	0x0850, r24	; 0x800850 <driver1_delay.1752>
     cee:	90 93 51 08 	sts	0x0851, r25	; 0x800851 <driver1_delay.1752+0x1>
     cf2:	a0 93 52 08 	sts	0x0852, r26	; 0x800852 <driver1_delay.1752+0x2>
     cf6:	b0 93 53 08 	sts	0x0853, r27	; 0x800853 <driver1_delay.1752+0x3>
     cfa:	80 91 54 08 	lds	r24, 0x0854	; 0x800854 <driver1_step.1750>
     cfe:	8f 5f       	subi	r24, 0xFF	; 255
     d00:	80 93 54 08 	sts	0x0854, r24	; 0x800854 <driver1_step.1750>
     d04:	13 c0       	rjmp	.+38     	; 0xd2c <__vector_21+0x1a2>
     d06:	80 91 50 08 	lds	r24, 0x0850	; 0x800850 <driver1_delay.1752>
     d0a:	90 91 51 08 	lds	r25, 0x0851	; 0x800851 <driver1_delay.1752+0x1>
     d0e:	a0 91 52 08 	lds	r26, 0x0852	; 0x800852 <driver1_delay.1752+0x2>
     d12:	b0 91 53 08 	lds	r27, 0x0853	; 0x800853 <driver1_delay.1752+0x3>
     d16:	01 97       	sbiw	r24, 0x01	; 1
     d18:	a1 09       	sbc	r26, r1
     d1a:	b1 09       	sbc	r27, r1
     d1c:	80 93 50 08 	sts	0x0850, r24	; 0x800850 <driver1_delay.1752>
     d20:	90 93 51 08 	sts	0x0851, r25	; 0x800851 <driver1_delay.1752+0x1>
     d24:	a0 93 52 08 	sts	0x0852, r26	; 0x800852 <driver1_delay.1752+0x2>
     d28:	b0 93 53 08 	sts	0x0853, r27	; 0x800853 <driver1_delay.1752+0x3>
     d2c:	df 91       	pop	r29
     d2e:	cf 91       	pop	r28
     d30:	ff 91       	pop	r31
     d32:	ef 91       	pop	r30
     d34:	bf 91       	pop	r27
     d36:	af 91       	pop	r26
     d38:	9f 91       	pop	r25
     d3a:	8f 91       	pop	r24
     d3c:	3f 91       	pop	r19
     d3e:	2f 91       	pop	r18
     d40:	0f 90       	pop	r0
     d42:	00 92 5b 00 	sts	0x005B, r0	; 0x80005b <__TEXT_REGION_LENGTH__+0x70005b>
     d46:	0f 90       	pop	r0
     d48:	00 92 5f 00 	sts	0x005F, r0	; 0x80005f <__TEXT_REGION_LENGTH__+0x70005f>
     d4c:	0f 90       	pop	r0
     d4e:	1f 90       	pop	r1
     d50:	18 95       	reti

00000d52 <__vector_29>:

#if ANALOG_INPUTS > 0
ISR(ADC_vect)
{
     d52:	1f 92       	push	r1
     d54:	0f 92       	push	r0
     d56:	00 90 5f 00 	lds	r0, 0x005F	; 0x80005f <__TEXT_REGION_LENGTH__+0x70005f>
     d5a:	0f 92       	push	r0
     d5c:	11 24       	eor	r1, r1
     d5e:	00 90 5b 00 	lds	r0, 0x005B	; 0x80005b <__TEXT_REGION_LENGTH__+0x70005b>
     d62:	0f 92       	push	r0
     d64:	2f 93       	push	r18
     d66:	3f 93       	push	r19
     d68:	4f 93       	push	r20
     d6a:	5f 93       	push	r21
     d6c:	8f 93       	push	r24
     d6e:	9f 93       	push	r25
     d70:	ef 93       	push	r30
     d72:	ff 93       	push	r31
     d74:	cf 93       	push	r28
     d76:	df 93       	push	r29
     d78:	1f 92       	push	r1
     d7a:	1f 92       	push	r1
     d7c:	cd b7       	in	r28, 0x3d	; 61
     d7e:	de b7       	in	r29, 0x3e	; 62
	osAnalogInputBuildup[osAnalogInputPos] += ADCW;
     d80:	88 e7       	ldi	r24, 0x78	; 120
     d82:	90 e0       	ldi	r25, 0x00	; 0
     d84:	fc 01       	movw	r30, r24
     d86:	20 81       	ld	r18, Z
     d88:	31 81       	ldd	r19, Z+1	; 0x01
     d8a:	80 91 4a 08 	lds	r24, 0x084A	; 0x80084a <osAnalogInputPos>
     d8e:	88 2f       	mov	r24, r24
     d90:	90 e0       	ldi	r25, 0x00	; 0
     d92:	40 91 4a 08 	lds	r20, 0x084A	; 0x80084a <osAnalogInputPos>
     d96:	44 2f       	mov	r20, r20
     d98:	50 e0       	ldi	r21, 0x00	; 0
     d9a:	44 0f       	add	r20, r20
     d9c:	55 1f       	adc	r21, r21
     d9e:	44 58       	subi	r20, 0x84	; 132
     da0:	57 4f       	sbci	r21, 0xF7	; 247
     da2:	fa 01       	movw	r30, r20
     da4:	40 81       	ld	r20, Z
     da6:	51 81       	ldd	r21, Z+1	; 0x01
     da8:	24 0f       	add	r18, r20
     daa:	35 1f       	adc	r19, r21
     dac:	88 0f       	add	r24, r24
     dae:	99 1f       	adc	r25, r25
     db0:	84 58       	subi	r24, 0x84	; 132
     db2:	97 4f       	sbci	r25, 0xF7	; 247
     db4:	fc 01       	movw	r30, r24
     db6:	31 83       	std	Z+1, r19	; 0x01
     db8:	20 83       	st	Z, r18
	if(++osAnalogInputCounter[osAnalogInputPos] >= (1<<ANALOG_INPUT_SAMPLE))
     dba:	80 91 4a 08 	lds	r24, 0x084A	; 0x80084a <osAnalogInputPos>
     dbe:	88 2f       	mov	r24, r24
     dc0:	90 e0       	ldi	r25, 0x00	; 0
     dc2:	9c 01       	movw	r18, r24
     dc4:	29 59       	subi	r18, 0x99	; 153
     dc6:	37 4f       	sbci	r19, 0xF7	; 247
     dc8:	f9 01       	movw	r30, r18
     dca:	20 81       	ld	r18, Z
     dcc:	41 e0       	ldi	r20, 0x01	; 1
     dce:	42 0f       	add	r20, r18
     dd0:	9c 01       	movw	r18, r24
     dd2:	29 59       	subi	r18, 0x99	; 153
     dd4:	37 4f       	sbci	r19, 0xF7	; 247
     dd6:	f9 01       	movw	r30, r18
     dd8:	40 83       	st	Z, r20
     dda:	89 59       	subi	r24, 0x99	; 153
     ddc:	97 4f       	sbci	r25, 0xF7	; 247
     dde:	fc 01       	movw	r30, r24
     de0:	80 81       	ld	r24, Z
     de2:	80 32       	cpi	r24, 0x20	; 32
     de4:	08 f4       	brcc	.+2      	; 0xde8 <__vector_29+0x96>
     de6:	72 c0       	rjmp	.+228    	; 0xecc <__vector_29+0x17a>
	{
		#if ANALOG_INPUT_BITS + ANALOG_INPUT_SAMPLE < 12
			osAnalogInputValues[osAnalogInputPos] = osAnalogInputBuildup[osAnalogInputPos] << (12 - ANALOG_INPUT_BITS - ANALOG_INPUT_SAMPLE);
		#endif
		#if ANALOG_INPUT_BITS + ANALOG_INPUT_SAMPLE > 12
			osAnalogInputValues[osAnalogInputPos] = osAnalogInputBuildup[osAnalogInputPos] >> (ANALOG_INPUT_BITS + ANALOG_INPUT_SAMPLE - 12);
     de8:	80 91 4a 08 	lds	r24, 0x084A	; 0x80084a <osAnalogInputPos>
     dec:	88 2f       	mov	r24, r24
     dee:	90 e0       	ldi	r25, 0x00	; 0
     df0:	20 91 4a 08 	lds	r18, 0x084A	; 0x80084a <osAnalogInputPos>
     df4:	22 2f       	mov	r18, r18
     df6:	30 e0       	ldi	r19, 0x00	; 0
     df8:	22 0f       	add	r18, r18
     dfa:	33 1f       	adc	r19, r19
     dfc:	24 58       	subi	r18, 0x84	; 132
     dfe:	37 4f       	sbci	r19, 0xF7	; 247
     e00:	f9 01       	movw	r30, r18
     e02:	20 81       	ld	r18, Z
     e04:	31 81       	ldd	r19, Z+1	; 0x01
     e06:	36 95       	lsr	r19
     e08:	27 95       	ror	r18
     e0a:	36 95       	lsr	r19
     e0c:	27 95       	ror	r18
     e0e:	36 95       	lsr	r19
     e10:	27 95       	ror	r18
     e12:	88 0f       	add	r24, r24
     e14:	99 1f       	adc	r25, r25
     e16:	82 59       	subi	r24, 0x92	; 146
     e18:	97 4f       	sbci	r25, 0xF7	; 247
     e1a:	fc 01       	movw	r30, r24
     e1c:	31 83       	std	Z+1, r19	; 0x01
     e1e:	20 83       	st	Z, r18
		#endif
		#if ANALOG_INPUT_BITS + ANALOG_INPUT_SAMPLE == 12
			osAnalogInputValues[osAnalogInputPos] = osAnalogInputBuildup[osAnalogInputPos];
		#endif
		osAnalogInputBuildup[osAnalogInputPos] = 0;
     e20:	80 91 4a 08 	lds	r24, 0x084A	; 0x80084a <osAnalogInputPos>
     e24:	88 2f       	mov	r24, r24
     e26:	90 e0       	ldi	r25, 0x00	; 0
     e28:	88 0f       	add	r24, r24
     e2a:	99 1f       	adc	r25, r25
     e2c:	84 58       	subi	r24, 0x84	; 132
     e2e:	97 4f       	sbci	r25, 0xF7	; 247
     e30:	fc 01       	movw	r30, r24
     e32:	11 82       	std	Z+1, r1	; 0x01
     e34:	10 82       	st	Z, r1
		osAnalogInputCounter[osAnalogInputPos] = 0;
     e36:	80 91 4a 08 	lds	r24, 0x084A	; 0x80084a <osAnalogInputPos>
     e3a:	88 2f       	mov	r24, r24
     e3c:	90 e0       	ldi	r25, 0x00	; 0
     e3e:	89 59       	subi	r24, 0x99	; 153
     e40:	97 4f       	sbci	r25, 0xF7	; 247
     e42:	fc 01       	movw	r30, r24
     e44:	10 82       	st	Z, r1
		// Start next conversion
		if(++osAnalogInputPos >= ANALOG_INPUTS) {
     e46:	80 91 4a 08 	lds	r24, 0x084A	; 0x80084a <osAnalogInputPos>
     e4a:	8f 5f       	subi	r24, 0xFF	; 255
     e4c:	80 93 4a 08 	sts	0x084A, r24	; 0x80084a <osAnalogInputPos>
     e50:	80 91 4a 08 	lds	r24, 0x084A	; 0x80084a <osAnalogInputPos>
     e54:	87 30       	cpi	r24, 0x07	; 7
     e56:	10 f0       	brcs	.+4      	; 0xe5c <__vector_29+0x10a>
			osAnalogInputPos = 0;
     e58:	10 92 4a 08 	sts	0x084A, r1	; 0x80084a <osAnalogInputPos>
		}
		//uint8_t channel = pgm_read_uint8_t(&osAnalogInputChannels[osAnalogInputPos]);
		uint8_t channel = tempController[osAnalogInputPos].sensorPin;
     e5c:	80 91 4a 08 	lds	r24, 0x084A	; 0x80084a <osAnalogInputPos>
     e60:	28 2f       	mov	r18, r24
     e62:	30 e0       	ldi	r19, 0x00	; 0
     e64:	42 e4       	ldi	r20, 0x42	; 66
     e66:	42 9f       	mul	r20, r18
     e68:	c0 01       	movw	r24, r0
     e6a:	43 9f       	mul	r20, r19
     e6c:	90 0d       	add	r25, r0
     e6e:	11 24       	eor	r1, r1
     e70:	8c 55       	subi	r24, 0x5C	; 92
     e72:	96 4f       	sbci	r25, 0xF6	; 246
     e74:	fc 01       	movw	r30, r24
     e76:	80 81       	ld	r24, Z
     e78:	89 83       	std	Y+1, r24	; 0x01
		#if defined(ADCSRB) && defined(MUX5)
			if(channel & 8)  // Reading channel 0-7 or 8-15?
     e7a:	89 81       	ldd	r24, Y+1	; 0x01
     e7c:	88 2f       	mov	r24, r24
     e7e:	90 e0       	ldi	r25, 0x00	; 0
     e80:	88 70       	andi	r24, 0x08	; 8
     e82:	99 27       	eor	r25, r25
     e84:	89 2b       	or	r24, r25
     e86:	51 f0       	breq	.+20     	; 0xe9c <__vector_29+0x14a>
				ADCSRB |= (1<<MUX5);
     e88:	8b e7       	ldi	r24, 0x7B	; 123
     e8a:	90 e0       	ldi	r25, 0x00	; 0
     e8c:	2b e7       	ldi	r18, 0x7B	; 123
     e8e:	30 e0       	ldi	r19, 0x00	; 0
     e90:	f9 01       	movw	r30, r18
     e92:	20 81       	ld	r18, Z
     e94:	28 60       	ori	r18, 0x08	; 8
     e96:	fc 01       	movw	r30, r24
     e98:	20 83       	st	Z, r18
     e9a:	09 c0       	rjmp	.+18     	; 0xeae <__vector_29+0x15c>
			else
				ADCSRB &= ~(1<<MUX5);
     e9c:	8b e7       	ldi	r24, 0x7B	; 123
     e9e:	90 e0       	ldi	r25, 0x00	; 0
     ea0:	2b e7       	ldi	r18, 0x7B	; 123
     ea2:	30 e0       	ldi	r19, 0x00	; 0
     ea4:	f9 01       	movw	r30, r18
     ea6:	20 81       	ld	r18, Z
     ea8:	27 7f       	andi	r18, 0xF7	; 247
     eaa:	fc 01       	movw	r30, r24
     eac:	20 83       	st	Z, r18
		#endif
		uint8_t test = (ADMUX & ~(0x1F)) | (channel & 7);
     eae:	8c e7       	ldi	r24, 0x7C	; 124
     eb0:	90 e0       	ldi	r25, 0x00	; 0
     eb2:	fc 01       	movw	r30, r24
     eb4:	80 81       	ld	r24, Z
     eb6:	98 2f       	mov	r25, r24
     eb8:	90 7e       	andi	r25, 0xE0	; 224
     eba:	89 81       	ldd	r24, Y+1	; 0x01
     ebc:	87 70       	andi	r24, 0x07	; 7
     ebe:	89 2b       	or	r24, r25
     ec0:	8a 83       	std	Y+2, r24	; 0x02
		//ADMUX = (ADMUX & ~(0x1F)) | (channel & 7);
		ADMUX = test;
     ec2:	8c e7       	ldi	r24, 0x7C	; 124
     ec4:	90 e0       	ldi	r25, 0x00	; 0
     ec6:	2a 81       	ldd	r18, Y+2	; 0x02
     ec8:	fc 01       	movw	r30, r24
     eca:	20 83       	st	Z, r18
	}
	ADCSRA |= (1<<ADSC);  // start next conversion
     ecc:	8a e7       	ldi	r24, 0x7A	; 122
     ece:	90 e0       	ldi	r25, 0x00	; 0
     ed0:	2a e7       	ldi	r18, 0x7A	; 122
     ed2:	30 e0       	ldi	r19, 0x00	; 0
     ed4:	f9 01       	movw	r30, r18
     ed6:	20 81       	ld	r18, Z
     ed8:	20 64       	ori	r18, 0x40	; 64
     eda:	fc 01       	movw	r30, r24
     edc:	20 83       	st	Z, r18
}
     ede:	0f 90       	pop	r0
     ee0:	0f 90       	pop	r0
     ee2:	df 91       	pop	r29
     ee4:	cf 91       	pop	r28
     ee6:	ff 91       	pop	r31
     ee8:	ef 91       	pop	r30
     eea:	9f 91       	pop	r25
     eec:	8f 91       	pop	r24
     eee:	5f 91       	pop	r21
     ef0:	4f 91       	pop	r20
     ef2:	3f 91       	pop	r19
     ef4:	2f 91       	pop	r18
     ef6:	0f 90       	pop	r0
     ef8:	00 92 5b 00 	sts	0x005B, r0	; 0x80005b <__TEXT_REGION_LENGTH__+0x70005b>
     efc:	0f 90       	pop	r0
     efe:	00 92 5f 00 	sts	0x005F, r0	; 0x80005f <__TEXT_REGION_LENGTH__+0x70005f>
     f02:	0f 90       	pop	r0
     f04:	1f 90       	pop	r1
     f06:	18 95       	reti

00000f08 <main>:
//extern struct TemperatureController tempController[ANALOG_INPUTS];

// uint8_t SelfTestBuffer[64];
// void handleRFID(uint8_t byte, uint8_t *str);
int main(void)
{
     f08:	cf 93       	push	r28
     f0a:	df 93       	push	r29
     f0c:	cd b7       	in	r28, 0x3d	; 61
     f0e:	de b7       	in	r29, 0x3e	; 62
	
	
	uint32_t tempData;
	register_uart_str_rx_event_callback( parse_uart_data );
     f10:	87 e5       	ldi	r24, 0x57	; 87
     f12:	9f e0       	ldi	r25, 0x0F	; 15
     f14:	18 d0       	rcall	.+48     	; 0xf46 <register_uart_str_rx_event_callback>
	register_manage_tensometer_event_callback(manageTensometer);
     f16:	8d ef       	ldi	r24, 0xFD	; 253
     f18:	91 e2       	ldi	r25, 0x21	; 33
     f1a:	0e 94 bf 12 	call	0x257e	; 0x257e <register_manage_tensometer_event_callback>
	register_filament_drivers_event_callback(manageFilamentDrivers);
     f1e:	8c e5       	ldi	r24, 0x5C	; 92
     f20:	91 e0       	ldi	r25, 0x01	; 1
     f22:	25 d9       	rcall	.-3510   	; 0x16e <register_filament_drivers_event_callback>
	init();
     f24:	10 d9       	rcall	.-3552   	; 0x146 <init>
*/
	//modbus_puts_s("Witaj");
	
	//initMFRC522();
	
	initializeDrivers();
     f26:	49 d9       	rcall	.-3438   	; 0x1ba <initializeDrivers>
	offset_calibration();
     f28:	0e 94 bd 17 	call	0x2f7a	; 0x2f7a <offset_calibration>
    Filament_measure_timer = 1000;
     f2c:	88 ee       	ldi	r24, 0xE8	; 232
     f2e:	93 e0       	ldi	r25, 0x03	; 3
     f30:	90 93 49 08 	sts	0x0849, r25	; 0x800849 <Filament_measure_timer+0x1>
     f34:	80 93 48 08 	sts	0x0848, r24	; 0x800848 <Filament_measure_timer>
	
	while (1) 
    {		
		UART_RX_STR_EVENT(bufor) ;	// zdarzenie odbiorcze MODBUS UART3
     f38:	81 e6       	ldi	r24, 0x61	; 97
     f3a:	99 e0       	ldi	r25, 0x09	; 9
     f3c:	17 d0       	rcall	.+46     	; 0xf6c <UART_RX_STR_EVENT>
		MANAGE_TENSOMETER_EVENT();
     f3e:	0e 94 d2 12 	call	0x25a4	; 0x25a4 <MANAGE_TENSOMETER_EVENT>
		FILAMENT_DRIVERS_EVENT();
     f42:	28 d9       	rcall	.-3504   	; 0x194 <FILAMENT_DRIVERS_EVENT>
				}
				
			}
		}
		*/
    }
     f44:	f9 cf       	rjmp	.-14     	; 0xf38 <main+0x30>

00000f46 <register_uart_str_rx_event_callback>:
				uart_putc(sec);
		  }

	  }
	  return 1;
}
     f46:	cf 93       	push	r28
     f48:	df 93       	push	r29
     f4a:	1f 92       	push	r1
     f4c:	1f 92       	push	r1
     f4e:	cd b7       	in	r28, 0x3d	; 61
     f50:	de b7       	in	r29, 0x3e	; 62
     f52:	9a 83       	std	Y+2, r25	; 0x02
     f54:	89 83       	std	Y+1, r24	; 0x01
     f56:	89 81       	ldd	r24, Y+1	; 0x01
     f58:	9a 81       	ldd	r25, Y+2	; 0x02
     f5a:	90 93 57 08 	sts	0x0857, r25	; 0x800857 <uart_rx_str_event_callback+0x1>
     f5e:	80 93 56 08 	sts	0x0856, r24	; 0x800856 <uart_rx_str_event_callback>
     f62:	0f 90       	pop	r0
     f64:	0f 90       	pop	r0
     f66:	df 91       	pop	r29
     f68:	cf 91       	pop	r28
     f6a:	08 95       	ret

00000f6c <UART_RX_STR_EVENT>:
     f6c:	cf 93       	push	r28
     f6e:	df 93       	push	r29
     f70:	1f 92       	push	r1
     f72:	1f 92       	push	r1
     f74:	cd b7       	in	r28, 0x3d	; 61
     f76:	de b7       	in	r29, 0x3e	; 62
     f78:	9a 83       	std	Y+2, r25	; 0x02
     f7a:	89 83       	std	Y+1, r24	; 0x01
     f7c:	80 91 8b 08 	lds	r24, 0x088B	; 0x80088b <new_line>
     f80:	88 23       	and	r24, r24
     f82:	b1 f0       	breq	.+44     	; 0xfb0 <UART_RX_STR_EVENT+0x44>
     f84:	80 91 56 08 	lds	r24, 0x0856	; 0x800856 <uart_rx_str_event_callback>
     f88:	90 91 57 08 	lds	r25, 0x0857	; 0x800857 <uart_rx_str_event_callback+0x1>
     f8c:	89 2b       	or	r24, r25
     f8e:	61 f0       	breq	.+24     	; 0xfa8 <UART_RX_STR_EVENT+0x3c>
     f90:	89 81       	ldd	r24, Y+1	; 0x01
     f92:	9a 81       	ldd	r25, Y+2	; 0x02
     f94:	64 d1       	rcall	.+712    	; 0x125e <uart_get_str>
     f96:	20 91 56 08 	lds	r18, 0x0856	; 0x800856 <uart_rx_str_event_callback>
     f9a:	30 91 57 08 	lds	r19, 0x0857	; 0x800857 <uart_rx_str_event_callback+0x1>
     f9e:	89 81       	ldd	r24, Y+1	; 0x01
     fa0:	9a 81       	ldd	r25, Y+2	; 0x02
     fa2:	f9 01       	movw	r30, r18
     fa4:	19 95       	eicall
     fa6:	04 c0       	rjmp	.+8      	; 0xfb0 <UART_RX_STR_EVENT+0x44>
     fa8:	80 91 20 09 	lds	r24, 0x0920	; 0x800920 <UART_RxTail>
     fac:	80 93 1f 09 	sts	0x091F, r24	; 0x80091f <UART_RxHead>
     fb0:	0f 90       	pop	r0
     fb2:	0f 90       	pop	r0
     fb4:	df 91       	pop	r29
     fb6:	cf 91       	pop	r28
     fb8:	08 95       	ret

00000fba <ascii_to_int>:
     fba:	cf 93       	push	r28
     fbc:	df 93       	push	r29
     fbe:	1f 92       	push	r1
     fc0:	1f 92       	push	r1
     fc2:	cd b7       	in	r28, 0x3d	; 61
     fc4:	de b7       	in	r29, 0x3e	; 62
     fc6:	8a 83       	std	Y+2, r24	; 0x02
     fc8:	19 82       	std	Y+1, r1	; 0x01
     fca:	8a 81       	ldd	r24, Y+2	; 0x02
     fcc:	80 33       	cpi	r24, 0x30	; 48
     fce:	38 f0       	brcs	.+14     	; 0xfde <ascii_to_int+0x24>
     fd0:	8a 81       	ldd	r24, Y+2	; 0x02
     fd2:	8a 33       	cpi	r24, 0x3A	; 58
     fd4:	20 f4       	brcc	.+8      	; 0xfde <ascii_to_int+0x24>
     fd6:	8a 81       	ldd	r24, Y+2	; 0x02
     fd8:	80 53       	subi	r24, 0x30	; 48
     fda:	89 83       	std	Y+1, r24	; 0x01
     fdc:	09 c0       	rjmp	.+18     	; 0xff0 <ascii_to_int+0x36>
     fde:	8a 81       	ldd	r24, Y+2	; 0x02
     fe0:	81 34       	cpi	r24, 0x41	; 65
     fe2:	30 f0       	brcs	.+12     	; 0xff0 <ascii_to_int+0x36>
     fe4:	8a 81       	ldd	r24, Y+2	; 0x02
     fe6:	87 34       	cpi	r24, 0x47	; 71
     fe8:	18 f4       	brcc	.+6      	; 0xff0 <ascii_to_int+0x36>
     fea:	8a 81       	ldd	r24, Y+2	; 0x02
     fec:	87 53       	subi	r24, 0x37	; 55
     fee:	89 83       	std	Y+1, r24	; 0x01
     ff0:	89 81       	ldd	r24, Y+1	; 0x01
     ff2:	0f 90       	pop	r0
     ff4:	0f 90       	pop	r0
     ff6:	df 91       	pop	r29
     ff8:	cf 91       	pop	r28
     ffa:	08 95       	ret

00000ffc <int_to_ascii>:
     ffc:	cf 93       	push	r28
     ffe:	df 93       	push	r29
    1000:	1f 92       	push	r1
    1002:	cd b7       	in	r28, 0x3d	; 61
    1004:	de b7       	in	r29, 0x3e	; 62
    1006:	89 83       	std	Y+1, r24	; 0x01
    1008:	89 81       	ldd	r24, Y+1	; 0x01
    100a:	8a 30       	cpi	r24, 0x0A	; 10
    100c:	20 f4       	brcc	.+8      	; 0x1016 <int_to_ascii+0x1a>
    100e:	89 81       	ldd	r24, Y+1	; 0x01
    1010:	80 5d       	subi	r24, 0xD0	; 208
    1012:	89 83       	std	Y+1, r24	; 0x01
    1014:	09 c0       	rjmp	.+18     	; 0x1028 <int_to_ascii+0x2c>
    1016:	89 81       	ldd	r24, Y+1	; 0x01
    1018:	8a 30       	cpi	r24, 0x0A	; 10
    101a:	30 f0       	brcs	.+12     	; 0x1028 <int_to_ascii+0x2c>
    101c:	89 81       	ldd	r24, Y+1	; 0x01
    101e:	80 31       	cpi	r24, 0x10	; 16
    1020:	18 f4       	brcc	.+6      	; 0x1028 <int_to_ascii+0x2c>
    1022:	89 81       	ldd	r24, Y+1	; 0x01
    1024:	89 5c       	subi	r24, 0xC9	; 201
    1026:	89 83       	std	Y+1, r24	; 0x01
    1028:	89 81       	ldd	r24, Y+1	; 0x01
    102a:	0f 90       	pop	r0
    102c:	df 91       	pop	r29
    102e:	cf 91       	pop	r28
    1030:	08 95       	ret

00001032 <USARTX_Init>:
    1032:	cf 93       	push	r28
    1034:	df 93       	push	r29
    1036:	cd b7       	in	r28, 0x3d	; 61
    1038:	de b7       	in	r29, 0x3e	; 62
    103a:	2a 97       	sbiw	r28, 0x0a	; 10
    103c:	0f b6       	in	r0, 0x3f	; 63
    103e:	f8 94       	cli
    1040:	de bf       	out	0x3e, r29	; 62
    1042:	0f be       	out	0x3f, r0	; 63
    1044:	cd bf       	out	0x3d, r28	; 61
    1046:	6b 83       	std	Y+3, r22	; 0x03
    1048:	7c 83       	std	Y+4, r23	; 0x04
    104a:	8d 83       	std	Y+5, r24	; 0x05
    104c:	9e 83       	std	Y+6, r25	; 0x06
    104e:	80 e4       	ldi	r24, 0x40	; 64
    1050:	92 e4       	ldi	r25, 0x42	; 66
    1052:	af e0       	ldi	r26, 0x0F	; 15
    1054:	b0 e0       	ldi	r27, 0x00	; 0
    1056:	2b 81       	ldd	r18, Y+3	; 0x03
    1058:	3c 81       	ldd	r19, Y+4	; 0x04
    105a:	4d 81       	ldd	r20, Y+5	; 0x05
    105c:	5e 81       	ldd	r21, Y+6	; 0x06
    105e:	bc 01       	movw	r22, r24
    1060:	cd 01       	movw	r24, r26
    1062:	0e 94 de 23 	call	0x47bc	; 0x47bc <__udivmodsi4>
    1066:	da 01       	movw	r26, r20
    1068:	c9 01       	movw	r24, r18
    106a:	01 97       	sbiw	r24, 0x01	; 1
    106c:	9a 83       	std	Y+2, r25	; 0x02
    106e:	89 83       	std	Y+1, r24	; 0x01
    1070:	85 ed       	ldi	r24, 0xD5	; 213
    1072:	90 e0       	ldi	r25, 0x00	; 0
    1074:	29 81       	ldd	r18, Y+1	; 0x01
    1076:	3a 81       	ldd	r19, Y+2	; 0x02
    1078:	23 2f       	mov	r18, r19
    107a:	33 27       	eor	r19, r19
    107c:	fc 01       	movw	r30, r24
    107e:	20 83       	st	Z, r18
    1080:	84 ed       	ldi	r24, 0xD4	; 212
    1082:	90 e0       	ldi	r25, 0x00	; 0
    1084:	29 81       	ldd	r18, Y+1	; 0x01
    1086:	fc 01       	movw	r30, r24
    1088:	20 83       	st	Z, r18
    108a:	81 ed       	ldi	r24, 0xD1	; 209
    108c:	90 e0       	ldi	r25, 0x00	; 0
    108e:	21 ed       	ldi	r18, 0xD1	; 209
    1090:	30 e0       	ldi	r19, 0x00	; 0
    1092:	f9 01       	movw	r30, r18
    1094:	20 81       	ld	r18, Z
    1096:	28 69       	ori	r18, 0x98	; 152
    1098:	fc 01       	movw	r30, r24
    109a:	20 83       	st	Z, r18
    109c:	82 ed       	ldi	r24, 0xD2	; 210
    109e:	90 e0       	ldi	r25, 0x00	; 0
    10a0:	26 e0       	ldi	r18, 0x06	; 6
    10a2:	fc 01       	movw	r30, r24
    10a4:	20 83       	st	Z, r18
    10a6:	2a 96       	adiw	r28, 0x0a	; 10
    10a8:	0f b6       	in	r0, 0x3f	; 63
    10aa:	f8 94       	cli
    10ac:	de bf       	out	0x3e, r29	; 62
    10ae:	0f be       	out	0x3f, r0	; 63
    10b0:	cd bf       	out	0x3d, r28	; 61
    10b2:	df 91       	pop	r29
    10b4:	cf 91       	pop	r28
    10b6:	08 95       	ret

000010b8 <uart_putc>:
    10b8:	cf 93       	push	r28
    10ba:	df 93       	push	r29
    10bc:	1f 92       	push	r1
    10be:	1f 92       	push	r1
    10c0:	cd b7       	in	r28, 0x3d	; 61
    10c2:	de b7       	in	r29, 0x3e	; 62
    10c4:	8a 83       	std	Y+2, r24	; 0x02
    10c6:	80 91 8a 08 	lds	r24, 0x088A	; 0x80088a <UART_TxHead>
    10ca:	8f 5f       	subi	r24, 0xFF	; 255
    10cc:	8f 77       	andi	r24, 0x7F	; 127
    10ce:	89 83       	std	Y+1, r24	; 0x01
    10d0:	00 00       	nop
    10d2:	80 91 9e 08 	lds	r24, 0x089E	; 0x80089e <UART_TxTail>
    10d6:	99 81       	ldd	r25, Y+1	; 0x01
    10d8:	98 17       	cp	r25, r24
    10da:	d9 f3       	breq	.-10     	; 0x10d2 <uart_putc+0x1a>
    10dc:	89 81       	ldd	r24, Y+1	; 0x01
    10de:	88 2f       	mov	r24, r24
    10e0:	90 e0       	ldi	r25, 0x00	; 0
    10e2:	81 56       	subi	r24, 0x61	; 97
    10e4:	97 4f       	sbci	r25, 0xF7	; 247
    10e6:	2a 81       	ldd	r18, Y+2	; 0x02
    10e8:	fc 01       	movw	r30, r24
    10ea:	20 83       	st	Z, r18
    10ec:	89 81       	ldd	r24, Y+1	; 0x01
    10ee:	80 93 8a 08 	sts	0x088A, r24	; 0x80088a <UART_TxHead>
    10f2:	81 ed       	ldi	r24, 0xD1	; 209
    10f4:	90 e0       	ldi	r25, 0x00	; 0
    10f6:	21 ed       	ldi	r18, 0xD1	; 209
    10f8:	30 e0       	ldi	r19, 0x00	; 0
    10fa:	f9 01       	movw	r30, r18
    10fc:	20 81       	ld	r18, Z
    10fe:	20 62       	ori	r18, 0x20	; 32
    1100:	fc 01       	movw	r30, r24
    1102:	20 83       	st	Z, r18
    1104:	0f 90       	pop	r0
    1106:	0f 90       	pop	r0
    1108:	df 91       	pop	r29
    110a:	cf 91       	pop	r28
    110c:	08 95       	ret

0000110e <uart_puts>:
    110e:	1f 93       	push	r17
    1110:	cf 93       	push	r28
    1112:	df 93       	push	r29
    1114:	1f 92       	push	r1
    1116:	1f 92       	push	r1
    1118:	cd b7       	in	r28, 0x3d	; 61
    111a:	de b7       	in	r29, 0x3e	; 62
    111c:	9a 83       	std	Y+2, r25	; 0x02
    111e:	89 83       	std	Y+1, r24	; 0x01
    1120:	02 c0       	rjmp	.+4      	; 0x1126 <uart_puts+0x18>
    1122:	81 2f       	mov	r24, r17
    1124:	c9 df       	rcall	.-110    	; 0x10b8 <uart_putc>
    1126:	89 81       	ldd	r24, Y+1	; 0x01
    1128:	9a 81       	ldd	r25, Y+2	; 0x02
    112a:	9c 01       	movw	r18, r24
    112c:	2f 5f       	subi	r18, 0xFF	; 255
    112e:	3f 4f       	sbci	r19, 0xFF	; 255
    1130:	3a 83       	std	Y+2, r19	; 0x02
    1132:	29 83       	std	Y+1, r18	; 0x01
    1134:	fc 01       	movw	r30, r24
    1136:	10 81       	ld	r17, Z
    1138:	11 23       	and	r17, r17
    113a:	99 f7       	brne	.-26     	; 0x1122 <uart_puts+0x14>
    113c:	0f 90       	pop	r0
    113e:	0f 90       	pop	r0
    1140:	df 91       	pop	r29
    1142:	cf 91       	pop	r28
    1144:	1f 91       	pop	r17
    1146:	08 95       	ret

00001148 <uart_putint>:
    1148:	cf 93       	push	r28
    114a:	df 93       	push	r29
    114c:	cd b7       	in	r28, 0x3d	; 61
    114e:	de b7       	in	r29, 0x3e	; 62
    1150:	65 97       	sbiw	r28, 0x15	; 21
    1152:	0f b6       	in	r0, 0x3f	; 63
    1154:	f8 94       	cli
    1156:	de bf       	out	0x3e, r29	; 62
    1158:	0f be       	out	0x3f, r0	; 63
    115a:	cd bf       	out	0x3d, r28	; 61
    115c:	9b 8b       	std	Y+19, r25	; 0x13
    115e:	8a 8b       	std	Y+18, r24	; 0x12
    1160:	7d 8b       	std	Y+21, r23	; 0x15
    1162:	6c 8b       	std	Y+20, r22	; 0x14
    1164:	2c 89       	ldd	r18, Y+20	; 0x14
    1166:	3d 89       	ldd	r19, Y+21	; 0x15
    1168:	8a 89       	ldd	r24, Y+18	; 0x12
    116a:	9b 89       	ldd	r25, Y+19	; 0x13
    116c:	a9 01       	movw	r20, r18
    116e:	9e 01       	movw	r18, r28
    1170:	2f 5f       	subi	r18, 0xFF	; 255
    1172:	3f 4f       	sbci	r19, 0xFF	; 255
    1174:	b9 01       	movw	r22, r18
    1176:	0e 94 3d 24 	call	0x487a	; 0x487a <itoa>
    117a:	ce 01       	movw	r24, r28
    117c:	01 96       	adiw	r24, 0x01	; 1
    117e:	c7 df       	rcall	.-114    	; 0x110e <uart_puts>
    1180:	65 96       	adiw	r28, 0x15	; 21
    1182:	0f b6       	in	r0, 0x3f	; 63
    1184:	f8 94       	cli
    1186:	de bf       	out	0x3e, r29	; 62
    1188:	0f be       	out	0x3f, r0	; 63
    118a:	cd bf       	out	0x3d, r28	; 61
    118c:	df 91       	pop	r29
    118e:	cf 91       	pop	r28
    1190:	08 95       	ret

00001192 <__vector_52>:


// definiujemy procedur obsugi przerwania nadawczego, pobierajc dane z bufora cyklicznego
// i wysylajacego na UART0

ISR( DEF_USARTX_UDRE_VECT)  {
    1192:	1f 92       	push	r1
    1194:	0f 92       	push	r0
    1196:	00 90 5f 00 	lds	r0, 0x005F	; 0x80005f <__TEXT_REGION_LENGTH__+0x70005f>
    119a:	0f 92       	push	r0
    119c:	11 24       	eor	r1, r1
    119e:	00 90 5b 00 	lds	r0, 0x005B	; 0x80005b <__TEXT_REGION_LENGTH__+0x70005b>
    11a2:	0f 92       	push	r0
    11a4:	2f 93       	push	r18
    11a6:	3f 93       	push	r19
    11a8:	8f 93       	push	r24
    11aa:	9f 93       	push	r25
    11ac:	ef 93       	push	r30
    11ae:	ff 93       	push	r31
    11b0:	cf 93       	push	r28
    11b2:	df 93       	push	r29
    11b4:	cd b7       	in	r28, 0x3d	; 61
    11b6:	de b7       	in	r29, 0x3e	; 62
    // sprawdzamy czy indeksy s rne
    if ( UART_TxHead != UART_TxTail ) {
    11b8:	90 91 8a 08 	lds	r25, 0x088A	; 0x80088a <UART_TxHead>
    11bc:	80 91 9e 08 	lds	r24, 0x089E	; 0x80089e <UART_TxTail>
    11c0:	98 17       	cp	r25, r24
    11c2:	99 f0       	breq	.+38     	; 0x11ea <__vector_52+0x58>
    	// obliczamy i zapamitujemy nowy indeks ogona wa (moe si zrwna z gow)
    	UART_TxTail = (UART_TxTail + 1) & UART_TX_BUF_MASK;
    11c4:	80 91 9e 08 	lds	r24, 0x089E	; 0x80089e <UART_TxTail>
    11c8:	8f 5f       	subi	r24, 0xFF	; 255
    11ca:	8f 77       	andi	r24, 0x7F	; 127
    11cc:	80 93 9e 08 	sts	0x089E, r24	; 0x80089e <UART_TxTail>
    	// zwracamy bajt pobrany z bufora  jako rezultat funkcji
    	DEF_UDRX = UART_TxBuf[UART_TxTail];
    11d0:	86 ed       	ldi	r24, 0xD6	; 214
    11d2:	90 e0       	ldi	r25, 0x00	; 0
    11d4:	20 91 9e 08 	lds	r18, 0x089E	; 0x80089e <UART_TxTail>
    11d8:	22 2f       	mov	r18, r18
    11da:	30 e0       	ldi	r19, 0x00	; 0
    11dc:	21 56       	subi	r18, 0x61	; 97
    11de:	37 4f       	sbci	r19, 0xF7	; 247
    11e0:	f9 01       	movw	r30, r18
    11e2:	20 81       	ld	r18, Z
    11e4:	fc 01       	movw	r30, r24
    11e6:	20 83       	st	Z, r18
    11e8:	09 c0       	rjmp	.+18     	; 0x11fc <__vector_52+0x6a>
    } else {
	// zerujemy flag przerwania wystpujcego gdy bufor pusty
	DEF_UCSRXB &= ~(1<<DEF_UDRIEX);
    11ea:	81 ed       	ldi	r24, 0xD1	; 209
    11ec:	90 e0       	ldi	r25, 0x00	; 0
    11ee:	21 ed       	ldi	r18, 0xD1	; 209
    11f0:	30 e0       	ldi	r19, 0x00	; 0
    11f2:	f9 01       	movw	r30, r18
    11f4:	20 81       	ld	r18, Z
    11f6:	2f 7d       	andi	r18, 0xDF	; 223
    11f8:	fc 01       	movw	r30, r24
    11fa:	20 83       	st	Z, r18
    }
}
    11fc:	df 91       	pop	r29
    11fe:	cf 91       	pop	r28
    1200:	ff 91       	pop	r31
    1202:	ef 91       	pop	r30
    1204:	9f 91       	pop	r25
    1206:	8f 91       	pop	r24
    1208:	3f 91       	pop	r19
    120a:	2f 91       	pop	r18
    120c:	0f 90       	pop	r0
    120e:	00 92 5b 00 	sts	0x005B, r0	; 0x80005b <__TEXT_REGION_LENGTH__+0x70005b>
    1212:	0f 90       	pop	r0
    1214:	00 92 5f 00 	sts	0x005F, r0	; 0x80005f <__TEXT_REGION_LENGTH__+0x70005f>
    1218:	0f 90       	pop	r0
    121a:	1f 90       	pop	r1
    121c:	18 95       	reti

0000121e <uart_getc>:
// ******************************************************************************************
// ************ Funkcje odbierajca z UART0 do bufora ***************************************
// ******************************************************************************************

// definiujemy funkcj pobierajc jeden bajt z bufora cyklicznego
int uart_getc(void) {
    121e:	cf 93       	push	r28
    1220:	df 93       	push	r29
    1222:	cd b7       	in	r28, 0x3d	; 61
    1224:	de b7       	in	r29, 0x3e	; 62
	// sprawdzamy czy indeksy s rwne
	if ( UART_RxHead == UART_RxTail ) return -1;
    1226:	90 91 1f 09 	lds	r25, 0x091F	; 0x80091f <UART_RxHead>
    122a:	80 91 20 09 	lds	r24, 0x0920	; 0x800920 <UART_RxTail>
    122e:	98 17       	cp	r25, r24
    1230:	19 f4       	brne	.+6      	; 0x1238 <uart_getc+0x1a>
    1232:	8f ef       	ldi	r24, 0xFF	; 255
    1234:	9f ef       	ldi	r25, 0xFF	; 255
    1236:	10 c0       	rjmp	.+32     	; 0x1258 <uart_getc+0x3a>

	// obliczamy i zapamitujemy nowy indeks ogona wa (moe si zrwna z gow)
	UART_RxTail = (UART_RxTail + 1) & UART_RX_BUF_MASK;
    1238:	80 91 20 09 	lds	r24, 0x0920	; 0x800920 <UART_RxTail>
    123c:	8f 5f       	subi	r24, 0xFF	; 255
    123e:	8f 73       	andi	r24, 0x3F	; 63
    1240:	80 93 20 09 	sts	0x0920, r24	; 0x800920 <UART_RxTail>
	// zwracamy bajt pobrany z bufora  jako rezultat funkcji
	return UART_RxBuf[UART_RxTail];
    1244:	80 91 20 09 	lds	r24, 0x0920	; 0x800920 <UART_RxTail>
    1248:	88 2f       	mov	r24, r24
    124a:	90 e0       	ldi	r25, 0x00	; 0
    124c:	8f 5d       	subi	r24, 0xDF	; 223
    124e:	96 4f       	sbci	r25, 0xF6	; 246
    1250:	fc 01       	movw	r30, r24
    1252:	80 81       	ld	r24, Z
    1254:	88 2f       	mov	r24, r24
    1256:	90 e0       	ldi	r25, 0x00	; 0
}
    1258:	df 91       	pop	r29
    125a:	cf 91       	pop	r28
    125c:	08 95       	ret

0000125e <uart_get_str>:

char * uart_get_str(char *buf) {
    125e:	ff 92       	push	r15
    1260:	0f 93       	push	r16
    1262:	1f 93       	push	r17
    1264:	cf 93       	push	r28
    1266:	df 93       	push	r29
    1268:	cd b7       	in	r28, 0x3d	; 61
    126a:	de b7       	in	r29, 0x3e	; 62
    126c:	28 97       	sbiw	r28, 0x08	; 8
    126e:	0f b6       	in	r0, 0x3f	; 63
    1270:	f8 94       	cli
    1272:	de bf       	out	0x3e, r29	; 62
    1274:	0f be       	out	0x3f, r0	; 63
    1276:	cd bf       	out	0x3d, r28	; 61
    1278:	98 87       	std	Y+8, r25	; 0x08
    127a:	8f 83       	std	Y+7, r24	; 0x07
	char c;
	char * wsk = buf;
    127c:	8f 81       	ldd	r24, Y+7	; 0x07
    127e:	98 85       	ldd	r25, Y+8	; 0x08
    1280:	9d 83       	std	Y+5, r25	; 0x05
    1282:	8c 83       	std	Y+4, r24	; 0x04
	uint8_t parse_data = 0;
    1284:	19 82       	std	Y+1, r1	; 0x01
	char data_pair = 0;
    1286:	1a 82       	std	Y+2, r1	; 0x02
	uint8_t buff_index = 0;
    1288:	1b 82       	std	Y+3, r1	; 0x03
	
	*buf++; //zwiekszamy adres wskaznika na bufor tak aby w pierwszej komorce na koniec wpisac ilosc danych odebranych
    128a:	8f 81       	ldd	r24, Y+7	; 0x07
    128c:	98 85       	ldd	r25, Y+8	; 0x08
    128e:	01 96       	adiw	r24, 0x01	; 1
    1290:	98 87       	std	Y+8, r25	; 0x08
    1292:	8f 83       	std	Y+7, r24	; 0x07
	
	if( new_line ) {
    1294:	80 91 8b 08 	lds	r24, 0x088B	; 0x80088b <new_line>
    1298:	88 23       	and	r24, r24
    129a:	d1 f1       	breq	.+116    	; 0x1310 <uart_get_str+0xb2>
		while( (c = uart_getc()) ) {
    129c:	2a c0       	rjmp	.+84     	; 0x12f2 <uart_get_str+0x94>
			if( (13 == c) || (c < 0) ) break;
    129e:	8e 81       	ldd	r24, Y+6	; 0x06
    12a0:	8d 30       	cpi	r24, 0x0D	; 13
    12a2:	09 f4       	brne	.+2      	; 0x12a6 <uart_get_str+0x48>
    12a4:	2b c0       	rjmp	.+86     	; 0x12fc <uart_get_str+0x9e>
			if (parse_data)
    12a6:	89 81       	ldd	r24, Y+1	; 0x01
    12a8:	88 23       	and	r24, r24
    12aa:	e9 f0       	breq	.+58     	; 0x12e6 <uart_get_str+0x88>
			{
				if (data_pair)
    12ac:	8a 81       	ldd	r24, Y+2	; 0x02
    12ae:	88 23       	and	r24, r24
    12b0:	b9 f0       	breq	.+46     	; 0x12e0 <uart_get_str+0x82>
				{
					buff_index++;
    12b2:	8b 81       	ldd	r24, Y+3	; 0x03
    12b4:	8f 5f       	subi	r24, 0xFF	; 255
    12b6:	8b 83       	std	Y+3, r24	; 0x03
					*buf++ = (ascii_to_int(data_pair) * 16) + ascii_to_int(c);	//sklejenie pierwszego i drugiego znaku oraz na zakonczenie zwiekszenie wskaznika o 1 wskazujacego na bofor wyjsciowy	
    12b8:	0f 81       	ldd	r16, Y+7	; 0x07
    12ba:	18 85       	ldd	r17, Y+8	; 0x08
    12bc:	c8 01       	movw	r24, r16
    12be:	01 96       	adiw	r24, 0x01	; 1
    12c0:	98 87       	std	Y+8, r25	; 0x08
    12c2:	8f 83       	std	Y+7, r24	; 0x07
    12c4:	8a 81       	ldd	r24, Y+2	; 0x02
    12c6:	79 de       	rcall	.-782    	; 0xfba <ascii_to_int>
    12c8:	f8 2e       	mov	r15, r24
    12ca:	ff 0c       	add	r15, r15
    12cc:	ff 0c       	add	r15, r15
    12ce:	ff 0c       	add	r15, r15
    12d0:	ff 0c       	add	r15, r15
    12d2:	8e 81       	ldd	r24, Y+6	; 0x06
    12d4:	72 de       	rcall	.-796    	; 0xfba <ascii_to_int>
    12d6:	8f 0d       	add	r24, r15
    12d8:	f8 01       	movw	r30, r16
    12da:	80 83       	st	Z, r24
					data_pair = 0;				
    12dc:	1a 82       	std	Y+2, r1	; 0x02
    12de:	09 c0       	rjmp	.+18     	; 0x12f2 <uart_get_str+0x94>
									
				}else{
					data_pair = c;			//pierwszy znak 
    12e0:	8e 81       	ldd	r24, Y+6	; 0x06
    12e2:	8a 83       	std	Y+2, r24	; 0x02
    12e4:	06 c0       	rjmp	.+12     	; 0x12f2 <uart_get_str+0x94>
				}			
			}else if (c == FRAME_START) // gdy wykryjemy znak ":" - czyli poczatek ramki rozpoczynamy sklejanie dwoch znakow ascii w jedna wartosc  
    12e6:	8e 81       	ldd	r24, Y+6	; 0x06
    12e8:	8a 33       	cpi	r24, 0x3A	; 58
    12ea:	19 f4       	brne	.+6      	; 0x12f2 <uart_get_str+0x94>
			{
				parse_data = 1;
    12ec:	81 e0       	ldi	r24, 0x01	; 1
    12ee:	89 83       	std	Y+1, r24	; 0x01
				data_pair = 0;
    12f0:	1a 82       	std	Y+2, r1	; 0x02
	uint8_t buff_index = 0;
	
	*buf++; //zwiekszamy adres wskaznika na bufor tak aby w pierwszej komorce na koniec wpisac ilosc danych odebranych
	
	if( new_line ) {
		while( (c = uart_getc()) ) {
    12f2:	95 df       	rcall	.-214    	; 0x121e <uart_getc>
    12f4:	8e 83       	std	Y+6, r24	; 0x06
    12f6:	8e 81       	ldd	r24, Y+6	; 0x06
    12f8:	88 23       	and	r24, r24
    12fa:	89 f6       	brne	.-94     	; 0x129e <uart_get_str+0x40>
				data_pair = 0;
			}
		}
		//gdy skonczylismy obrobke danych to w pierwszej komorce bufora wyjsciowego wpisujemy ilosc danych odebranych 
		//gdy w buforze kolowym nie bylo zadnych danych to wtedy w pierwszej komorce bedzie wpisane 0
		*wsk = buff_index; 
    12fc:	8c 81       	ldd	r24, Y+4	; 0x04
    12fe:	9d 81       	ldd	r25, Y+5	; 0x05
    1300:	2b 81       	ldd	r18, Y+3	; 0x03
    1302:	fc 01       	movw	r30, r24
    1304:	20 83       	st	Z, r18
		//*buf=0;
		new_line--;
    1306:	80 91 8b 08 	lds	r24, 0x088B	; 0x80088b <new_line>
    130a:	81 50       	subi	r24, 0x01	; 1
    130c:	80 93 8b 08 	sts	0x088B, r24	; 0x80088b <new_line>
	}

	return wsk;
    1310:	8c 81       	ldd	r24, Y+4	; 0x04
    1312:	9d 81       	ldd	r25, Y+5	; 0x05
}
    1314:	28 96       	adiw	r28, 0x08	; 8
    1316:	0f b6       	in	r0, 0x3f	; 63
    1318:	f8 94       	cli
    131a:	de bf       	out	0x3e, r29	; 62
    131c:	0f be       	out	0x3f, r0	; 63
    131e:	cd bf       	out	0x3d, r28	; 61
    1320:	df 91       	pop	r29
    1322:	cf 91       	pop	r28
    1324:	1f 91       	pop	r17
    1326:	0f 91       	pop	r16
    1328:	ff 90       	pop	r15
    132a:	08 95       	ret

0000132c <__vector_51>:


// definiujemy procedur obsugi przerwania odbiorczego z UART0

ISR( DEF_USARTX_RX_VECT ) {
    132c:	1f 92       	push	r1
    132e:	0f 92       	push	r0
    1330:	00 90 5f 00 	lds	r0, 0x005F	; 0x80005f <__TEXT_REGION_LENGTH__+0x70005f>
    1334:	0f 92       	push	r0
    1336:	11 24       	eor	r1, r1
    1338:	00 90 5b 00 	lds	r0, 0x005B	; 0x80005b <__TEXT_REGION_LENGTH__+0x70005b>
    133c:	0f 92       	push	r0
    133e:	0f 93       	push	r16
    1340:	1f 93       	push	r17
    1342:	8f 93       	push	r24
    1344:	9f 93       	push	r25
    1346:	ef 93       	push	r30
    1348:	ff 93       	push	r31
    134a:	cf 93       	push	r28
    134c:	df 93       	push	r29
    134e:	cd b7       	in	r28, 0x3d	; 61
    1350:	de b7       	in	r29, 0x3e	; 62
    register uint8_t tmp_head;
    register char data;
	//static uint8_t buff;
	//static uint8_t bitstart;
	
    data = DEF_UDRX; //pobieramy natychmiast bajt danych z bufora sprztowego
    1352:	86 ed       	ldi	r24, 0xD6	; 214
    1354:	90 e0       	ldi	r25, 0x00	; 0
    1356:	fc 01       	movw	r30, r24
    1358:	00 81       	ld	r16, Z

    // obliczamy nowy indeks gowy wa
    tmp_head = ( UART_RxHead + 1) & UART_RX_BUF_MASK;
    135a:	80 91 1f 09 	lds	r24, 0x091F	; 0x80091f <UART_RxHead>
    135e:	8f 5f       	subi	r24, 0xFF	; 255
    1360:	18 2f       	mov	r17, r24
    1362:	1f 73       	andi	r17, 0x3F	; 63

    // sprawdzamy, czy w nie zacznie zjada wasnego ogona
    if ( tmp_head == UART_RxTail ) {
    1364:	80 91 20 09 	lds	r24, 0x0920	; 0x800920 <UART_RxTail>
    1368:	18 17       	cp	r17, r24
    136a:	29 f4       	brne	.+10     	; 0x1376 <__vector_51+0x4a>
	    // tutaj moemy w jaki wygodny dla nas sposb obsuy  bd spowodowany
	    // prb nadpisania danych w buforze, mogoby doj do sytuacji gdzie
	    // nasz w zaczby zjada wasny ogon
	    UART_RxHead = UART_RxTail;
    136c:	80 91 20 09 	lds	r24, 0x0920	; 0x800920 <UART_RxTail>
    1370:	80 93 1f 09 	sts	0x091F, r24	; 0x80091f <UART_RxHead>
    1374:	2e c0       	rjmp	.+92     	; 0x13d2 <__vector_51+0xa6>
	} else {
   		switch( data ) {
    1376:	80 2f       	mov	r24, r16
    1378:	90 e0       	ldi	r25, 0x00	; 0
    137a:	8a 30       	cpi	r24, 0x0A	; 10
    137c:	91 05       	cpc	r25, r1
    137e:	41 f1       	breq	.+80     	; 0x13d0 <__vector_51+0xa4>
    1380:	8b 30       	cpi	r24, 0x0B	; 11
    1382:	91 05       	cpc	r25, r1
    1384:	1c f4       	brge	.+6      	; 0x138c <__vector_51+0x60>
    1386:	89 2b       	or	r24, r25
    1388:	19 f1       	breq	.+70     	; 0x13d0 <__vector_51+0xa4>
    138a:	19 c0       	rjmp	.+50     	; 0x13be <__vector_51+0x92>
    138c:	8d 30       	cpi	r24, 0x0D	; 13
    138e:	91 05       	cpc	r25, r1
    1390:	19 f0       	breq	.+6      	; 0x1398 <__vector_51+0x6c>
    1392:	ca 97       	sbiw	r24, 0x3a	; 58
    1394:	89 f0       	breq	.+34     	; 0x13b8 <__vector_51+0x8c>
    1396:	13 c0       	rjmp	.+38     	; 0x13be <__vector_51+0x92>
    			case 0:					// ignorujemy bajt = 0
    			case 10: break;			// ignorujemy znak LF
    			case 13: 	// sygnalizujemy obecno kolejnej linii w buforze
						UART_RxHead = tmp_head;
    1398:	10 93 1f 09 	sts	0x091F, r17	; 0x80091f <UART_RxHead>
						UART_RxBuf[tmp_head] = data;
    139c:	81 2f       	mov	r24, r17
    139e:	90 e0       	ldi	r25, 0x00	; 0
    13a0:	8f 5d       	subi	r24, 0xDF	; 223
    13a2:	96 4f       	sbci	r25, 0xF6	; 246
    13a4:	fc 01       	movw	r30, r24
    13a6:	00 83       	st	Z, r16
						new_line++;
    13a8:	80 91 8b 08 	lds	r24, 0x088B	; 0x80088b <new_line>
    13ac:	8f 5f       	subi	r24, 0xFF	; 255
    13ae:	80 93 8b 08 	sts	0x088B, r24	; 0x80088b <new_line>
						block_modbus_transmission = 0;
    13b2:	10 92 55 08 	sts	0x0855, r1	; 0x800855 <block_modbus_transmission>
						break;
    13b6:	0d c0       	rjmp	.+26     	; 0x13d2 <__vector_51+0xa6>
				case 58: block_modbus_transmission = 1;	//zmienna blokujca transmisje
    13b8:	81 e0       	ldi	r24, 0x01	; 1
    13ba:	80 93 55 08 	sts	0x0855, r24	; 0x800855 <block_modbus_transmission>
    			default : UART_RxHead = tmp_head; UART_RxBuf[tmp_head] = data;
    13be:	10 93 1f 09 	sts	0x091F, r17	; 0x80091f <UART_RxHead>
    13c2:	81 2f       	mov	r24, r17
    13c4:	90 e0       	ldi	r25, 0x00	; 0
    13c6:	8f 5d       	subi	r24, 0xDF	; 223
    13c8:	96 4f       	sbci	r25, 0xF6	; 246
    13ca:	fc 01       	movw	r30, r24
    13cc:	00 83       	st	Z, r16
    13ce:	01 c0       	rjmp	.+2      	; 0x13d2 <__vector_51+0xa6>
	    // nasz w zaczby zjada wasny ogon
	    UART_RxHead = UART_RxTail;
	} else {
   		switch( data ) {
    			case 0:					// ignorujemy bajt = 0
    			case 10: break;			// ignorujemy znak LF
    13d0:	00 00       	nop
						break;
				case 58: block_modbus_transmission = 1;	//zmienna blokujca transmisje
    			default : UART_RxHead = tmp_head; UART_RxBuf[tmp_head] = data;
    		}
    }	
}
    13d2:	df 91       	pop	r29
    13d4:	cf 91       	pop	r28
    13d6:	ff 91       	pop	r31
    13d8:	ef 91       	pop	r30
    13da:	9f 91       	pop	r25
    13dc:	8f 91       	pop	r24
    13de:	1f 91       	pop	r17
    13e0:	0f 91       	pop	r16
    13e2:	0f 90       	pop	r0
    13e4:	00 92 5b 00 	sts	0x005B, r0	; 0x80005b <__TEXT_REGION_LENGTH__+0x70005b>
    13e8:	0f 90       	pop	r0
    13ea:	00 92 5f 00 	sts	0x005F, r0	; 0x80005f <__TEXT_REGION_LENGTH__+0x70005f>
    13ee:	0f 90       	pop	r0
    13f0:	1f 90       	pop	r1
    13f2:	18 95       	reti

000013f4 <calculate_LRC>:
	uart_puts(s);
	uart_putFloat(data, digits);
	uart_putc(CR);
	uart_putc(LF);
	delay_transmision(2);
}
    13f4:	cf 93       	push	r28
    13f6:	df 93       	push	r29
    13f8:	00 d0       	rcall	.+0      	; 0x13fa <calculate_LRC+0x6>
    13fa:	1f 92       	push	r1
    13fc:	1f 92       	push	r1
    13fe:	cd b7       	in	r28, 0x3d	; 61
    1400:	de b7       	in	r29, 0x3e	; 62
    1402:	9c 83       	std	Y+4, r25	; 0x04
    1404:	8b 83       	std	Y+3, r24	; 0x03
    1406:	6d 83       	std	Y+5, r22	; 0x05
    1408:	19 82       	std	Y+1, r1	; 0x01
    140a:	81 e0       	ldi	r24, 0x01	; 1
    140c:	8a 83       	std	Y+2, r24	; 0x02
    140e:	0f c0       	rjmp	.+30     	; 0x142e <calculate_LRC+0x3a>
    1410:	8a 81       	ldd	r24, Y+2	; 0x02
    1412:	88 2f       	mov	r24, r24
    1414:	90 e0       	ldi	r25, 0x00	; 0
    1416:	2b 81       	ldd	r18, Y+3	; 0x03
    1418:	3c 81       	ldd	r19, Y+4	; 0x04
    141a:	82 0f       	add	r24, r18
    141c:	93 1f       	adc	r25, r19
    141e:	fc 01       	movw	r30, r24
    1420:	80 81       	ld	r24, Z
    1422:	99 81       	ldd	r25, Y+1	; 0x01
    1424:	89 0f       	add	r24, r25
    1426:	89 83       	std	Y+1, r24	; 0x01
    1428:	8a 81       	ldd	r24, Y+2	; 0x02
    142a:	8f 5f       	subi	r24, 0xFF	; 255
    142c:	8a 83       	std	Y+2, r24	; 0x02
    142e:	9a 81       	ldd	r25, Y+2	; 0x02
    1430:	8d 81       	ldd	r24, Y+5	; 0x05
    1432:	98 17       	cp	r25, r24
    1434:	68 f3       	brcs	.-38     	; 0x1410 <calculate_LRC+0x1c>
    1436:	89 81       	ldd	r24, Y+1	; 0x01
    1438:	81 95       	neg	r24
    143a:	0f 90       	pop	r0
    143c:	0f 90       	pop	r0
    143e:	0f 90       	pop	r0
    1440:	0f 90       	pop	r0
    1442:	0f 90       	pop	r0
    1444:	df 91       	pop	r29
    1446:	cf 91       	pop	r28
    1448:	08 95       	ret

0000144a <delay_transmision>:
    144a:	cf 93       	push	r28
    144c:	df 93       	push	r29
    144e:	00 d0       	rcall	.+0      	; 0x1450 <delay_transmision+0x6>
    1450:	00 d0       	rcall	.+0      	; 0x1452 <delay_transmision+0x8>
    1452:	cd b7       	in	r28, 0x3d	; 61
    1454:	de b7       	in	r29, 0x3e	; 62
    1456:	9e 83       	std	Y+6, r25	; 0x06
    1458:	8d 83       	std	Y+5, r24	; 0x05
    145a:	8d 81       	ldd	r24, Y+5	; 0x05
    145c:	9e 81       	ldd	r25, Y+6	; 0x06
    145e:	9c 01       	movw	r18, r24
    1460:	40 e0       	ldi	r20, 0x00	; 0
    1462:	50 e0       	ldi	r21, 0x00	; 0
    1464:	80 91 40 08 	lds	r24, 0x0840	; 0x800840 <millis>
    1468:	90 91 41 08 	lds	r25, 0x0841	; 0x800841 <millis+0x1>
    146c:	a0 91 42 08 	lds	r26, 0x0842	; 0x800842 <millis+0x2>
    1470:	b0 91 43 08 	lds	r27, 0x0843	; 0x800843 <millis+0x3>
    1474:	82 0f       	add	r24, r18
    1476:	93 1f       	adc	r25, r19
    1478:	a4 1f       	adc	r26, r20
    147a:	b5 1f       	adc	r27, r21
    147c:	89 83       	std	Y+1, r24	; 0x01
    147e:	9a 83       	std	Y+2, r25	; 0x02
    1480:	ab 83       	std	Y+3, r26	; 0x03
    1482:	bc 83       	std	Y+4, r27	; 0x04
    1484:	00 00       	nop
    1486:	29 81       	ldd	r18, Y+1	; 0x01
    1488:	3a 81       	ldd	r19, Y+2	; 0x02
    148a:	4b 81       	ldd	r20, Y+3	; 0x03
    148c:	5c 81       	ldd	r21, Y+4	; 0x04
    148e:	80 91 40 08 	lds	r24, 0x0840	; 0x800840 <millis>
    1492:	90 91 41 08 	lds	r25, 0x0841	; 0x800841 <millis+0x1>
    1496:	a0 91 42 08 	lds	r26, 0x0842	; 0x800842 <millis+0x2>
    149a:	b0 91 43 08 	lds	r27, 0x0843	; 0x800843 <millis+0x3>
    149e:	82 17       	cp	r24, r18
    14a0:	93 07       	cpc	r25, r19
    14a2:	a4 07       	cpc	r26, r20
    14a4:	b5 07       	cpc	r27, r21
    14a6:	78 f3       	brcs	.-34     	; 0x1486 <delay_transmision+0x3c>
    14a8:	26 96       	adiw	r28, 0x06	; 6
    14aa:	0f b6       	in	r0, 0x3f	; 63
    14ac:	f8 94       	cli
    14ae:	de bf       	out	0x3e, r29	; 62
    14b0:	0f be       	out	0x3f, r0	; 63
    14b2:	cd bf       	out	0x3d, r28	; 61
    14b4:	df 91       	pop	r29
    14b6:	cf 91       	pop	r28
    14b8:	08 95       	ret

000014ba <check_modbus_blocade>:
    14ba:	cf 93       	push	r28
    14bc:	df 93       	push	r29
    14be:	cd b7       	in	r28, 0x3d	; 61
    14c0:	de b7       	in	r29, 0x3e	; 62
    14c2:	84 ef       	ldi	r24, 0xF4	; 244
    14c4:	91 e0       	ldi	r25, 0x01	; 1
    14c6:	90 93 66 08 	sts	0x0866, r25	; 0x800866 <modbus_transmission_blocade_timer+0x1>
    14ca:	80 93 65 08 	sts	0x0865, r24	; 0x800865 <modbus_transmission_blocade_timer>
    14ce:	08 c0       	rjmp	.+16     	; 0x14e0 <check_modbus_blocade+0x26>
    14d0:	80 91 65 08 	lds	r24, 0x0865	; 0x800865 <modbus_transmission_blocade_timer>
    14d4:	90 91 66 08 	lds	r25, 0x0866	; 0x800866 <modbus_transmission_blocade_timer+0x1>
    14d8:	89 2b       	or	r24, r25
    14da:	11 f4       	brne	.+4      	; 0x14e0 <check_modbus_blocade+0x26>
    14dc:	80 e0       	ldi	r24, 0x00	; 0
    14de:	05 c0       	rjmp	.+10     	; 0x14ea <check_modbus_blocade+0x30>
    14e0:	80 91 55 08 	lds	r24, 0x0855	; 0x800855 <block_modbus_transmission>
    14e4:	88 23       	and	r24, r24
    14e6:	a1 f7       	brne	.-24     	; 0x14d0 <check_modbus_blocade+0x16>
    14e8:	81 e0       	ldi	r24, 0x01	; 1
    14ea:	df 91       	pop	r29
    14ec:	cf 91       	pop	r28
    14ee:	08 95       	ret

000014f0 <mod_send_ascii>:
    14f0:	cf 93       	push	r28
    14f2:	df 93       	push	r29
    14f4:	00 d0       	rcall	.+0      	; 0x14f6 <mod_send_ascii+0x6>
    14f6:	cd b7       	in	r28, 0x3d	; 61
    14f8:	de b7       	in	r29, 0x3e	; 62
    14fa:	8b 83       	std	Y+3, r24	; 0x03
    14fc:	8b 81       	ldd	r24, Y+3	; 0x03
    14fe:	82 95       	swap	r24
    1500:	8f 70       	andi	r24, 0x0F	; 15
    1502:	89 83       	std	Y+1, r24	; 0x01
    1504:	99 81       	ldd	r25, Y+1	; 0x01
    1506:	80 ef       	ldi	r24, 0xF0	; 240
    1508:	98 9f       	mul	r25, r24
    150a:	90 2d       	mov	r25, r0
    150c:	11 24       	eor	r1, r1
    150e:	8b 81       	ldd	r24, Y+3	; 0x03
    1510:	89 0f       	add	r24, r25
    1512:	8a 83       	std	Y+2, r24	; 0x02
    1514:	89 81       	ldd	r24, Y+1	; 0x01
    1516:	72 dd       	rcall	.-1308   	; 0xffc <int_to_ascii>
    1518:	89 83       	std	Y+1, r24	; 0x01
    151a:	8a 81       	ldd	r24, Y+2	; 0x02
    151c:	6f dd       	rcall	.-1314   	; 0xffc <int_to_ascii>
    151e:	8a 83       	std	Y+2, r24	; 0x02
    1520:	89 81       	ldd	r24, Y+1	; 0x01
    1522:	ca dd       	rcall	.-1132   	; 0x10b8 <uart_putc>
    1524:	8a 81       	ldd	r24, Y+2	; 0x02
    1526:	c8 dd       	rcall	.-1136   	; 0x10b8 <uart_putc>
    1528:	0f 90       	pop	r0
    152a:	0f 90       	pop	r0
    152c:	0f 90       	pop	r0
    152e:	df 91       	pop	r29
    1530:	cf 91       	pop	r28
    1532:	08 95       	ret

00001534 <modbus_puts>:
    1534:	1f 93       	push	r17
    1536:	cf 93       	push	r28
    1538:	df 93       	push	r29
    153a:	00 d0       	rcall	.+0      	; 0x153c <modbus_puts+0x8>
    153c:	cd b7       	in	r28, 0x3d	; 61
    153e:	de b7       	in	r29, 0x3e	; 62
    1540:	9b 83       	std	Y+3, r25	; 0x03
    1542:	8a 83       	std	Y+2, r24	; 0x02
    1544:	ba df       	rcall	.-140    	; 0x14ba <check_modbus_blocade>
    1546:	8a e3       	ldi	r24, 0x3A	; 58
    1548:	b7 dd       	rcall	.-1170   	; 0x10b8 <uart_putc>
    154a:	19 82       	std	Y+1, r1	; 0x01
    154c:	0f c0       	rjmp	.+30     	; 0x156c <modbus_puts+0x38>
    154e:	89 81       	ldd	r24, Y+1	; 0x01
    1550:	88 2f       	mov	r24, r24
    1552:	90 e0       	ldi	r25, 0x00	; 0
    1554:	01 96       	adiw	r24, 0x01	; 1
    1556:	2a 81       	ldd	r18, Y+2	; 0x02
    1558:	3b 81       	ldd	r19, Y+3	; 0x03
    155a:	82 0f       	add	r24, r18
    155c:	93 1f       	adc	r25, r19
    155e:	fc 01       	movw	r30, r24
    1560:	10 81       	ld	r17, Z
    1562:	81 2f       	mov	r24, r17
    1564:	c5 df       	rcall	.-118    	; 0x14f0 <mod_send_ascii>
    1566:	89 81       	ldd	r24, Y+1	; 0x01
    1568:	8f 5f       	subi	r24, 0xFF	; 255
    156a:	89 83       	std	Y+1, r24	; 0x01
    156c:	8a 81       	ldd	r24, Y+2	; 0x02
    156e:	9b 81       	ldd	r25, Y+3	; 0x03
    1570:	fc 01       	movw	r30, r24
    1572:	90 81       	ld	r25, Z
    1574:	89 81       	ldd	r24, Y+1	; 0x01
    1576:	89 17       	cp	r24, r25
    1578:	50 f3       	brcs	.-44     	; 0x154e <modbus_puts+0x1a>
    157a:	8d e0       	ldi	r24, 0x0D	; 13
    157c:	9d dd       	rcall	.-1222   	; 0x10b8 <uart_putc>
    157e:	8a e0       	ldi	r24, 0x0A	; 10
    1580:	9b dd       	rcall	.-1226   	; 0x10b8 <uart_putc>
    1582:	82 e0       	ldi	r24, 0x02	; 2
    1584:	90 e0       	ldi	r25, 0x00	; 0
    1586:	61 df       	rcall	.-318    	; 0x144a <delay_transmision>
    1588:	0f 90       	pop	r0
    158a:	0f 90       	pop	r0
    158c:	0f 90       	pop	r0
    158e:	df 91       	pop	r29
    1590:	cf 91       	pop	r28
    1592:	1f 91       	pop	r17
    1594:	08 95       	ret

00001596 <modbus_puts_s>:
    1596:	cf 93       	push	r28
    1598:	df 93       	push	r29
    159a:	1f 92       	push	r1
    159c:	1f 92       	push	r1
    159e:	cd b7       	in	r28, 0x3d	; 61
    15a0:	de b7       	in	r29, 0x3e	; 62
    15a2:	9a 83       	std	Y+2, r25	; 0x02
    15a4:	89 83       	std	Y+1, r24	; 0x01
    15a6:	89 df       	rcall	.-238    	; 0x14ba <check_modbus_blocade>
    15a8:	8a e3       	ldi	r24, 0x3A	; 58
    15aa:	86 dd       	rcall	.-1268   	; 0x10b8 <uart_putc>
    15ac:	8b e3       	ldi	r24, 0x3B	; 59
    15ae:	84 dd       	rcall	.-1272   	; 0x10b8 <uart_putc>
    15b0:	89 81       	ldd	r24, Y+1	; 0x01
    15b2:	9a 81       	ldd	r25, Y+2	; 0x02
    15b4:	ac dd       	rcall	.-1192   	; 0x110e <uart_puts>
    15b6:	8d e0       	ldi	r24, 0x0D	; 13
    15b8:	7f dd       	rcall	.-1282   	; 0x10b8 <uart_putc>
    15ba:	8a e0       	ldi	r24, 0x0A	; 10
    15bc:	7d dd       	rcall	.-1286   	; 0x10b8 <uart_putc>
    15be:	82 e0       	ldi	r24, 0x02	; 2
    15c0:	90 e0       	ldi	r25, 0x00	; 0
    15c2:	43 df       	rcall	.-378    	; 0x144a <delay_transmision>
    15c4:	0f 90       	pop	r0
    15c6:	0f 90       	pop	r0
    15c8:	df 91       	pop	r29
    15ca:	cf 91       	pop	r28
    15cc:	08 95       	ret

000015ce <modbus_puts_var_int>:
    15ce:	cf 93       	push	r28
    15d0:	df 93       	push	r29
    15d2:	00 d0       	rcall	.+0      	; 0x15d4 <modbus_puts_var_int+0x6>
    15d4:	1f 92       	push	r1
    15d6:	cd b7       	in	r28, 0x3d	; 61
    15d8:	de b7       	in	r29, 0x3e	; 62
    15da:	9a 83       	std	Y+2, r25	; 0x02
    15dc:	89 83       	std	Y+1, r24	; 0x01
    15de:	7c 83       	std	Y+4, r23	; 0x04
    15e0:	6b 83       	std	Y+3, r22	; 0x03
    15e2:	6b df       	rcall	.-298    	; 0x14ba <check_modbus_blocade>
    15e4:	8a e3       	ldi	r24, 0x3A	; 58
    15e6:	68 dd       	rcall	.-1328   	; 0x10b8 <uart_putc>
    15e8:	8b e3       	ldi	r24, 0x3B	; 59
    15ea:	66 dd       	rcall	.-1332   	; 0x10b8 <uart_putc>
    15ec:	89 81       	ldd	r24, Y+1	; 0x01
    15ee:	9a 81       	ldd	r25, Y+2	; 0x02
    15f0:	8e dd       	rcall	.-1252   	; 0x110e <uart_puts>
    15f2:	8b 81       	ldd	r24, Y+3	; 0x03
    15f4:	9c 81       	ldd	r25, Y+4	; 0x04
    15f6:	6a e0       	ldi	r22, 0x0A	; 10
    15f8:	70 e0       	ldi	r23, 0x00	; 0
    15fa:	a6 dd       	rcall	.-1204   	; 0x1148 <uart_putint>
    15fc:	8d e0       	ldi	r24, 0x0D	; 13
    15fe:	5c dd       	rcall	.-1352   	; 0x10b8 <uart_putc>
    1600:	8a e0       	ldi	r24, 0x0A	; 10
    1602:	5a dd       	rcall	.-1356   	; 0x10b8 <uart_putc>
    1604:	82 e0       	ldi	r24, 0x02	; 2
    1606:	90 e0       	ldi	r25, 0x00	; 0
    1608:	20 df       	rcall	.-448    	; 0x144a <delay_transmision>
    160a:	0f 90       	pop	r0
    160c:	0f 90       	pop	r0
    160e:	0f 90       	pop	r0
    1610:	0f 90       	pop	r0
    1612:	df 91       	pop	r29
    1614:	cf 91       	pop	r28
    1616:	08 95       	ret

00001618 <mod_write_single_register>:

//void mod_send_reset_command(char *data){
	
//}
int8_t mod_write_single_register(char *data){
    1618:	cf 93       	push	r28
    161a:	df 93       	push	r29
    161c:	00 d0       	rcall	.+0      	; 0x161e <mod_write_single_register+0x6>
    161e:	00 d0       	rcall	.+0      	; 0x1620 <mod_write_single_register+0x8>
    1620:	cd b7       	in	r28, 0x3d	; 61
    1622:	de b7       	in	r29, 0x3e	; 62
    1624:	9e 83       	std	Y+6, r25	; 0x06
    1626:	8d 83       	std	Y+5, r24	; 0x05
	const uint16_t write_value = (data[(data[0]-2)]*256+data[(data[0]-1)]); 
    1628:	8d 81       	ldd	r24, Y+5	; 0x05
    162a:	9e 81       	ldd	r25, Y+6	; 0x06
    162c:	fc 01       	movw	r30, r24
    162e:	80 81       	ld	r24, Z
    1630:	88 2f       	mov	r24, r24
    1632:	90 e0       	ldi	r25, 0x00	; 0
    1634:	02 97       	sbiw	r24, 0x02	; 2
    1636:	2d 81       	ldd	r18, Y+5	; 0x05
    1638:	3e 81       	ldd	r19, Y+6	; 0x06
    163a:	82 0f       	add	r24, r18
    163c:	93 1f       	adc	r25, r19
    163e:	fc 01       	movw	r30, r24
    1640:	80 81       	ld	r24, Z
    1642:	88 2f       	mov	r24, r24
    1644:	90 e0       	ldi	r25, 0x00	; 0
    1646:	38 2f       	mov	r19, r24
    1648:	22 27       	eor	r18, r18
    164a:	8d 81       	ldd	r24, Y+5	; 0x05
    164c:	9e 81       	ldd	r25, Y+6	; 0x06
    164e:	fc 01       	movw	r30, r24
    1650:	80 81       	ld	r24, Z
    1652:	88 2f       	mov	r24, r24
    1654:	90 e0       	ldi	r25, 0x00	; 0
    1656:	01 97       	sbiw	r24, 0x01	; 1
    1658:	4d 81       	ldd	r20, Y+5	; 0x05
    165a:	5e 81       	ldd	r21, Y+6	; 0x06
    165c:	84 0f       	add	r24, r20
    165e:	95 1f       	adc	r25, r21
    1660:	fc 01       	movw	r30, r24
    1662:	80 81       	ld	r24, Z
    1664:	88 2f       	mov	r24, r24
    1666:	90 e0       	ldi	r25, 0x00	; 0
    1668:	82 0f       	add	r24, r18
    166a:	93 1f       	adc	r25, r19
    166c:	9a 83       	std	Y+2, r25	; 0x02
    166e:	89 83       	std	Y+1, r24	; 0x01
	const uint16_t address_register = data[DATA_POS]*256+data[DATA_POS+1];
    1670:	8d 81       	ldd	r24, Y+5	; 0x05
    1672:	9e 81       	ldd	r25, Y+6	; 0x06
    1674:	03 96       	adiw	r24, 0x03	; 3
    1676:	fc 01       	movw	r30, r24
    1678:	80 81       	ld	r24, Z
    167a:	88 2f       	mov	r24, r24
    167c:	90 e0       	ldi	r25, 0x00	; 0
    167e:	38 2f       	mov	r19, r24
    1680:	22 27       	eor	r18, r18
    1682:	8d 81       	ldd	r24, Y+5	; 0x05
    1684:	9e 81       	ldd	r25, Y+6	; 0x06
    1686:	04 96       	adiw	r24, 0x04	; 4
    1688:	fc 01       	movw	r30, r24
    168a:	80 81       	ld	r24, Z
    168c:	88 2f       	mov	r24, r24
    168e:	90 e0       	ldi	r25, 0x00	; 0
    1690:	82 0f       	add	r24, r18
    1692:	93 1f       	adc	r25, r19
    1694:	9c 83       	std	Y+4, r25	; 0x04
    1696:	8b 83       	std	Y+3, r24	; 0x03
	switch(address_register){
    1698:	8b 81       	ldd	r24, Y+3	; 0x03
    169a:	9c 81       	ldd	r25, Y+4	; 0x04
    169c:	84 3b       	cpi	r24, 0xB4	; 180
    169e:	f4 e0       	ldi	r31, 0x04	; 4
    16a0:	9f 07       	cpc	r25, r31
    16a2:	09 f4       	brne	.+2      	; 0x16a6 <mod_write_single_register+0x8e>
    16a4:	9f c0       	rjmp	.+318    	; 0x17e4 <mod_write_single_register+0x1cc>
    16a6:	85 3b       	cpi	r24, 0xB5	; 181
    16a8:	24 e0       	ldi	r18, 0x04	; 4
    16aa:	92 07       	cpc	r25, r18
    16ac:	e8 f4       	brcc	.+58     	; 0x16e8 <mod_write_single_register+0xd0>
    16ae:	80 3b       	cpi	r24, 0xB0	; 176
    16b0:	e4 e0       	ldi	r30, 0x04	; 4
    16b2:	9e 07       	cpc	r25, r30
    16b4:	09 f4       	brne	.+2      	; 0x16b8 <mod_write_single_register+0xa0>
    16b6:	73 c0       	rjmp	.+230    	; 0x179e <mod_write_single_register+0x186>
    16b8:	81 3b       	cpi	r24, 0xB1	; 177
    16ba:	f4 e0       	ldi	r31, 0x04	; 4
    16bc:	9f 07       	cpc	r25, r31
    16be:	50 f4       	brcc	.+20     	; 0x16d4 <mod_write_single_register+0xbc>
    16c0:	82 30       	cpi	r24, 0x02	; 2
    16c2:	91 05       	cpc	r25, r1
    16c4:	d9 f1       	breq	.+118    	; 0x173c <mod_write_single_register+0x124>
    16c6:	8a 30       	cpi	r24, 0x0A	; 10
    16c8:	91 05       	cpc	r25, r1
    16ca:	09 f4       	brne	.+2      	; 0x16ce <mod_write_single_register+0xb6>
    16cc:	3b c0       	rjmp	.+118    	; 0x1744 <mod_write_single_register+0x12c>
    16ce:	01 97       	sbiw	r24, 0x01	; 1
    16d0:	99 f1       	breq	.+102    	; 0x1738 <mod_write_single_register+0x120>
    16d2:	c4 c0       	rjmp	.+392    	; 0x185c <mod_write_single_register+0x244>
    16d4:	82 3b       	cpi	r24, 0xB2	; 178
    16d6:	24 e0       	ldi	r18, 0x04	; 4
    16d8:	92 07       	cpc	r25, r18
    16da:	09 f4       	brne	.+2      	; 0x16de <mod_write_single_register+0xc6>
    16dc:	6e c0       	rjmp	.+220    	; 0x17ba <mod_write_single_register+0x1a2>
    16de:	83 3b       	cpi	r24, 0xB3	; 179
    16e0:	94 40       	sbci	r25, 0x04	; 4
    16e2:	08 f0       	brcs	.+2      	; 0x16e6 <mod_write_single_register+0xce>
    16e4:	71 c0       	rjmp	.+226    	; 0x17c8 <mod_write_single_register+0x1b0>
    16e6:	62 c0       	rjmp	.+196    	; 0x17ac <mod_write_single_register+0x194>
    16e8:	88 3b       	cpi	r24, 0xB8	; 184
    16ea:	f4 e0       	ldi	r31, 0x04	; 4
    16ec:	9f 07       	cpc	r25, r31
    16ee:	09 f4       	brne	.+2      	; 0x16f2 <mod_write_single_register+0xda>
    16f0:	9a c0       	rjmp	.+308    	; 0x1826 <mod_write_single_register+0x20e>
    16f2:	89 3b       	cpi	r24, 0xB9	; 185
    16f4:	24 e0       	ldi	r18, 0x04	; 4
    16f6:	92 07       	cpc	r25, r18
    16f8:	50 f4       	brcc	.+20     	; 0x170e <mod_write_single_register+0xf6>
    16fa:	86 3b       	cpi	r24, 0xB6	; 182
    16fc:	e4 e0       	ldi	r30, 0x04	; 4
    16fe:	9e 07       	cpc	r25, r30
    1700:	09 f4       	brne	.+2      	; 0x1704 <mod_write_single_register+0xec>
    1702:	83 c0       	rjmp	.+262    	; 0x180a <mod_write_single_register+0x1f2>
    1704:	87 3b       	cpi	r24, 0xB7	; 183
    1706:	94 40       	sbci	r25, 0x04	; 4
    1708:	08 f0       	brcs	.+2      	; 0x170c <mod_write_single_register+0xf4>
    170a:	86 c0       	rjmp	.+268    	; 0x1818 <mod_write_single_register+0x200>
    170c:	77 c0       	rjmp	.+238    	; 0x17fc <mod_write_single_register+0x1e4>
    170e:	80 32       	cpi	r24, 0x20	; 32
    1710:	2e e4       	ldi	r18, 0x4E	; 78
    1712:	92 07       	cpc	r25, r18
    1714:	e9 f0       	breq	.+58     	; 0x1750 <mod_write_single_register+0x138>
    1716:	81 32       	cpi	r24, 0x21	; 33
    1718:	ee e4       	ldi	r30, 0x4E	; 78
    171a:	9e 07       	cpc	r25, r30
    171c:	28 f4       	brcc	.+10     	; 0x1728 <mod_write_single_register+0x110>
    171e:	89 3b       	cpi	r24, 0xB9	; 185
    1720:	94 40       	sbci	r25, 0x04	; 4
    1722:	09 f4       	brne	.+2      	; 0x1726 <mod_write_single_register+0x10e>
    1724:	8e c0       	rjmp	.+284    	; 0x1842 <mod_write_single_register+0x22a>
    1726:	9a c0       	rjmp	.+308    	; 0x185c <mod_write_single_register+0x244>
    1728:	81 32       	cpi	r24, 0x21	; 33
    172a:	2e e4       	ldi	r18, 0x4E	; 78
    172c:	92 07       	cpc	r25, r18
    172e:	b9 f0       	breq	.+46     	; 0x175e <mod_write_single_register+0x146>
    1730:	82 32       	cpi	r24, 0x22	; 34
    1732:	9e 44       	sbci	r25, 0x4E	; 78
    1734:	d9 f0       	breq	.+54     	; 0x176c <mod_write_single_register+0x154>
    1736:	92 c0       	rjmp	.+292    	; 0x185c <mod_write_single_register+0x244>
		case MODBUS_RESET_ADR:
			disableAllHeater();		
    1738:	24 d4       	rcall	.+2120   	; 0x1f82 <disableAllHeater>
		break;
    173a:	90 c0       	rjmp	.+288    	; 0x185c <mod_write_single_register+0x244>
		case MODBUS_ALIVE_ADR:
			modbus_puts_s(PSTR("Filament Box Alive"));
    173c:	85 e0       	ldi	r24, 0x05	; 5
    173e:	92 e0       	ldi	r25, 0x02	; 2
    1740:	2a df       	rcall	.-428    	; 0x1596 <modbus_puts_s>
		break;
    1742:	8c c0       	rjmp	.+280    	; 0x185c <mod_write_single_register+0x244>
		case MODBUS_EEPROM_SAVE:
			storeDataIntoEEPROM();
    1744:	0e 94 0b 02 	call	0x416	; 0x416 <storeDataIntoEEPROM>
			modbus_puts_s(PSTR("AUX: EEprom saved"));
    1748:	88 e1       	ldi	r24, 0x18	; 24
    174a:	92 e0       	ldi	r25, 0x02	; 2
    174c:	24 df       	rcall	.-440    	; 0x1596 <modbus_puts_s>
		break;	
    174e:	86 c0       	rjmp	.+268    	; 0x185c <mod_write_single_register+0x244>
		case MODBUS_EXT0_SET_TEMP_ADR:
			setTargetTemperature(&tempController[EXT0],write_value);
    1750:	89 81       	ldd	r24, Y+1	; 0x01
    1752:	9a 81       	ldd	r25, Y+2	; 0x02
    1754:	bc 01       	movw	r22, r24
    1756:	81 ea       	ldi	r24, 0xA1	; 161
    1758:	99 e0       	ldi	r25, 0x09	; 9
    175a:	58 d4       	rcall	.+2224   	; 0x200c <setTargetTemperature>
		break;
    175c:	7f c0       	rjmp	.+254    	; 0x185c <mod_write_single_register+0x244>
		case MODBUS_EXT1_SET_TEMP_ADR:
			setTargetTemperature(&tempController[EXT1],write_value);
    175e:	89 81       	ldd	r24, Y+1	; 0x01
    1760:	9a 81       	ldd	r25, Y+2	; 0x02
    1762:	bc 01       	movw	r22, r24
    1764:	83 ee       	ldi	r24, 0xE3	; 227
    1766:	99 e0       	ldi	r25, 0x09	; 9
    1768:	51 d4       	rcall	.+2210   	; 0x200c <setTargetTemperature>
		break;
    176a:	78 c0       	rjmp	.+240    	; 0x185c <mod_write_single_register+0x244>
		case MODBUS_BED_SET_TEMP_ADR:
			setTargetTemperature(&tempController[BED0],write_value);
    176c:	89 81       	ldd	r24, Y+1	; 0x01
    176e:	9a 81       	ldd	r25, Y+2	; 0x02
    1770:	bc 01       	movw	r22, r24
    1772:	89 ea       	ldi	r24, 0xA9	; 169
    1774:	9a e0       	ldi	r25, 0x0A	; 10
    1776:	4a d4       	rcall	.+2196   	; 0x200c <setTargetTemperature>
			setTargetTemperature(&tempController[BED1],write_value);
    1778:	89 81       	ldd	r24, Y+1	; 0x01
    177a:	9a 81       	ldd	r25, Y+2	; 0x02
    177c:	bc 01       	movw	r22, r24
    177e:	8b ee       	ldi	r24, 0xEB	; 235
    1780:	9a e0       	ldi	r25, 0x0A	; 10
    1782:	44 d4       	rcall	.+2184   	; 0x200c <setTargetTemperature>
			setTargetTemperature(&tempController[BED2],write_value);
    1784:	89 81       	ldd	r24, Y+1	; 0x01
    1786:	9a 81       	ldd	r25, Y+2	; 0x02
    1788:	bc 01       	movw	r22, r24
    178a:	8d e2       	ldi	r24, 0x2D	; 45
    178c:	9b e0       	ldi	r25, 0x0B	; 11
    178e:	3e d4       	rcall	.+2172   	; 0x200c <setTargetTemperature>
			setTargetTemperature(&tempController[BED3],write_value);
    1790:	89 81       	ldd	r24, Y+1	; 0x01
    1792:	9a 81       	ldd	r25, Y+2	; 0x02
    1794:	bc 01       	movw	r22, r24
    1796:	8f e6       	ldi	r24, 0x6F	; 111
    1798:	9b e0       	ldi	r25, 0x0B	; 11
    179a:	38 d4       	rcall	.+2160   	; 0x200c <setTargetTemperature>
		break;
    179c:	5f c0       	rjmp	.+190    	; 0x185c <mod_write_single_register+0x244>
			case MODBUS_BED3_R_W_PID_MAX_ADR:
				tempController[BED3].pidMax = write_value;
			break;*/
		///////// TENSOMETER_0 //////////
		case MODBUS_TENS_0_FILAMENT_WEIGHT_R_W_ADR:
			tensometer[TENSOMETER_0].filamentWeight = write_value;
    179e:	89 81       	ldd	r24, Y+1	; 0x01
    17a0:	9a 81       	ldd	r25, Y+2	; 0x02
    17a2:	90 93 07 0c 	sts	0x0C07, r25	; 0x800c07 <tensometer+0x7>
    17a6:	80 93 06 0c 	sts	0x0C06, r24	; 0x800c06 <tensometer+0x6>
		break;
    17aa:	58 c0       	rjmp	.+176    	; 0x185c <mod_write_single_register+0x244>
		case MODBUS_TENS_0_ROLL_WEIGHT_R_W_ADR:
			tensometer[TENSOMETER_0].rollWeight = write_value;
    17ac:	89 81       	ldd	r24, Y+1	; 0x01
    17ae:	9a 81       	ldd	r25, Y+2	; 0x02
    17b0:	90 93 05 0c 	sts	0x0C05, r25	; 0x800c05 <tensometer+0x5>
    17b4:	80 93 04 0c 	sts	0x0C04, r24	; 0x800c04 <tensometer+0x4>
		break;
    17b8:	51 c0       	rjmp	.+162    	; 0x185c <mod_write_single_register+0x244>
		case MODBUS_TENS_0_CALIBRATION_CONSTANT_R_W_ADR:
			tensometer[TENSOMETER_0].constantCalibrationValue = write_value;
    17ba:	89 81       	ldd	r24, Y+1	; 0x01
    17bc:	9a 81       	ldd	r25, Y+2	; 0x02
    17be:	90 93 10 0c 	sts	0x0C10, r25	; 0x800c10 <tensometer+0x10>
    17c2:	80 93 0f 0c 	sts	0x0C0F, r24	; 0x800c0f <tensometer+0xf>
		break;
    17c6:	4a c0       	rjmp	.+148    	; 0x185c <mod_write_single_register+0x244>
		case MODBUS_TENS_0_MASS_NO_LOAD_GRAM_R_W_ADR:
			tensometer[TENSOMETER_0].zeroScaleMass = write_value;
    17c8:	89 81       	ldd	r24, Y+1	; 0x01
    17ca:	9a 81       	ldd	r25, Y+2	; 0x02
    17cc:	cc 01       	movw	r24, r24
    17ce:	a0 e0       	ldi	r26, 0x00	; 0
    17d0:	b0 e0       	ldi	r27, 0x00	; 0
    17d2:	80 93 11 0c 	sts	0x0C11, r24	; 0x800c11 <tensometer+0x11>
    17d6:	90 93 12 0c 	sts	0x0C12, r25	; 0x800c12 <tensometer+0x12>
    17da:	a0 93 13 0c 	sts	0x0C13, r26	; 0x800c13 <tensometer+0x13>
    17de:	b0 93 14 0c 	sts	0x0C14, r27	; 0x800c14 <tensometer+0x14>
		break;
    17e2:	3c c0       	rjmp	.+120    	; 0x185c <mod_write_single_register+0x244>
		case MODBUS_TENS_0_CALIBRATION_MASS_GRAM_R_W_ADR:
			tensometer[TENSOMETER_0].calibatrionMass = write_value;
    17e4:	89 81       	ldd	r24, Y+1	; 0x01
    17e6:	9a 81       	ldd	r25, Y+2	; 0x02
    17e8:	90 93 16 0c 	sts	0x0C16, r25	; 0x800c16 <tensometer+0x16>
    17ec:	80 93 15 0c 	sts	0x0C15, r24	; 0x800c15 <tensometer+0x15>
			calibration = 1;
    17f0:	81 e0       	ldi	r24, 0x01	; 1
    17f2:	80 93 59 08 	sts	0x0859, r24	; 0x800859 <calibration>
			calibrating_tensometer = TENSOMETER_0;
    17f6:	10 92 5a 08 	sts	0x085A, r1	; 0x80085a <calibrating_tensometer>
		break;
    17fa:	30 c0       	rjmp	.+96     	; 0x185c <mod_write_single_register+0x244>
		///////// TENSOMETER_1 //////////
		case MODBUS_TENS_1_FILAMENT_WEIGHT_R_W_ADR:
			tensometer[TENSOMETER_1].filamentWeight = write_value;
    17fc:	89 81       	ldd	r24, Y+1	; 0x01
    17fe:	9a 81       	ldd	r25, Y+2	; 0x02
    1800:	90 93 1e 0c 	sts	0x0C1E, r25	; 0x800c1e <tensometer+0x1e>
    1804:	80 93 1d 0c 	sts	0x0C1D, r24	; 0x800c1d <tensometer+0x1d>
		break;
    1808:	29 c0       	rjmp	.+82     	; 0x185c <mod_write_single_register+0x244>
		case MODBUS_TENS_1_ROLL_WEIGHT_R_W_ADR:
			tensometer[TENSOMETER_1].rollWeight = write_value;
    180a:	89 81       	ldd	r24, Y+1	; 0x01
    180c:	9a 81       	ldd	r25, Y+2	; 0x02
    180e:	90 93 1c 0c 	sts	0x0C1C, r25	; 0x800c1c <tensometer+0x1c>
    1812:	80 93 1b 0c 	sts	0x0C1B, r24	; 0x800c1b <tensometer+0x1b>
		break;
    1816:	22 c0       	rjmp	.+68     	; 0x185c <mod_write_single_register+0x244>
		case MODBUS_TENS_1_CALIBRATION_CONSTANT_R_W_ADR:
			tensometer[TENSOMETER_1].constantCalibrationValue = write_value;
    1818:	89 81       	ldd	r24, Y+1	; 0x01
    181a:	9a 81       	ldd	r25, Y+2	; 0x02
    181c:	90 93 27 0c 	sts	0x0C27, r25	; 0x800c27 <tensometer+0x27>
    1820:	80 93 26 0c 	sts	0x0C26, r24	; 0x800c26 <tensometer+0x26>
		break;
    1824:	1b c0       	rjmp	.+54     	; 0x185c <mod_write_single_register+0x244>
		case MODBUS_TENS_1_MASS_NO_LOAD_GRAM_R_W_ADR:
			tensometer[TENSOMETER_1].zeroScaleMass = write_value;
    1826:	89 81       	ldd	r24, Y+1	; 0x01
    1828:	9a 81       	ldd	r25, Y+2	; 0x02
    182a:	cc 01       	movw	r24, r24
    182c:	a0 e0       	ldi	r26, 0x00	; 0
    182e:	b0 e0       	ldi	r27, 0x00	; 0
    1830:	80 93 28 0c 	sts	0x0C28, r24	; 0x800c28 <tensometer+0x28>
    1834:	90 93 29 0c 	sts	0x0C29, r25	; 0x800c29 <tensometer+0x29>
    1838:	a0 93 2a 0c 	sts	0x0C2A, r26	; 0x800c2a <tensometer+0x2a>
    183c:	b0 93 2b 0c 	sts	0x0C2B, r27	; 0x800c2b <tensometer+0x2b>
		break;
    1840:	0d c0       	rjmp	.+26     	; 0x185c <mod_write_single_register+0x244>
		case MODBUS_TENS_1_CALIBRATION_MASS_GRAM_R_W_ADR:
			tensometer[TENSOMETER_1].calibatrionMass = write_value;
    1842:	89 81       	ldd	r24, Y+1	; 0x01
    1844:	9a 81       	ldd	r25, Y+2	; 0x02
    1846:	90 93 2d 0c 	sts	0x0C2D, r25	; 0x800c2d <tensometer+0x2d>
    184a:	80 93 2c 0c 	sts	0x0C2C, r24	; 0x800c2c <tensometer+0x2c>
			calibration = 1;
    184e:	81 e0       	ldi	r24, 0x01	; 1
    1850:	80 93 59 08 	sts	0x0859, r24	; 0x800859 <calibration>
			calibrating_tensometer = TENSOMETER_1;
    1854:	81 e0       	ldi	r24, 0x01	; 1
    1856:	80 93 5a 08 	sts	0x085A, r24	; 0x80085a <calibrating_tensometer>
		break;
    185a:	00 00       	nop
	}
	modbus_puts(data);
    185c:	8d 81       	ldd	r24, Y+5	; 0x05
    185e:	9e 81       	ldd	r25, Y+6	; 0x06
    1860:	69 de       	rcall	.-814    	; 0x1534 <modbus_puts>
	return 1;
    1862:	81 e0       	ldi	r24, 0x01	; 1
}
    1864:	26 96       	adiw	r28, 0x06	; 6
    1866:	0f b6       	in	r0, 0x3f	; 63
    1868:	f8 94       	cli
    186a:	de bf       	out	0x3e, r29	; 62
    186c:	0f be       	out	0x3f, r0	; 63
    186e:	cd bf       	out	0x3d, r28	; 61
    1870:	df 91       	pop	r29
    1872:	cf 91       	pop	r28
    1874:	08 95       	ret

00001876 <mod_write_multiple_registers>:

int8_t mod_write_multiple_registers(char *data){
    1876:	0f 93       	push	r16
    1878:	1f 93       	push	r17
    187a:	cf 93       	push	r28
    187c:	df 93       	push	r29
    187e:	cd b7       	in	r28, 0x3d	; 61
    1880:	de b7       	in	r29, 0x3e	; 62
    1882:	65 97       	sbiw	r28, 0x15	; 21
    1884:	0f b6       	in	r0, 0x3f	; 63
    1886:	f8 94       	cli
    1888:	de bf       	out	0x3e, r29	; 62
    188a:	0f be       	out	0x3f, r0	; 63
    188c:	cd bf       	out	0x3d, r28	; 61
    188e:	9d 8b       	std	Y+21, r25	; 0x15
    1890:	8c 8b       	std	Y+20, r24	; 0x14
	
	uint16_t number_of_registers = data[5]*256+data[6]; //na przed ostatniej pozycji znajduje si w jednym bajcie ilo rejestrw do odczytu
    1892:	8c 89       	ldd	r24, Y+20	; 0x14
    1894:	9d 89       	ldd	r25, Y+21	; 0x15
    1896:	05 96       	adiw	r24, 0x05	; 5
    1898:	fc 01       	movw	r30, r24
    189a:	80 81       	ld	r24, Z
    189c:	88 2f       	mov	r24, r24
    189e:	90 e0       	ldi	r25, 0x00	; 0
    18a0:	38 2f       	mov	r19, r24
    18a2:	22 27       	eor	r18, r18
    18a4:	8c 89       	ldd	r24, Y+20	; 0x14
    18a6:	9d 89       	ldd	r25, Y+21	; 0x15
    18a8:	06 96       	adiw	r24, 0x06	; 6
    18aa:	fc 01       	movw	r30, r24
    18ac:	80 81       	ld	r24, Z
    18ae:	88 2f       	mov	r24, r24
    18b0:	90 e0       	ldi	r25, 0x00	; 0
    18b2:	82 0f       	add	r24, r18
    18b4:	93 1f       	adc	r25, r19
    18b6:	9f 83       	std	Y+7, r25	; 0x07
    18b8:	8e 83       	std	Y+6, r24	; 0x06
	uint16_t first_register = data[DATA_POS]*256+data[DATA_POS+1];
    18ba:	8c 89       	ldd	r24, Y+20	; 0x14
    18bc:	9d 89       	ldd	r25, Y+21	; 0x15
    18be:	03 96       	adiw	r24, 0x03	; 3
    18c0:	fc 01       	movw	r30, r24
    18c2:	80 81       	ld	r24, Z
    18c4:	88 2f       	mov	r24, r24
    18c6:	90 e0       	ldi	r25, 0x00	; 0
    18c8:	38 2f       	mov	r19, r24
    18ca:	22 27       	eor	r18, r18
    18cc:	8c 89       	ldd	r24, Y+20	; 0x14
    18ce:	9d 89       	ldd	r25, Y+21	; 0x15
    18d0:	04 96       	adiw	r24, 0x04	; 4
    18d2:	fc 01       	movw	r30, r24
    18d4:	80 81       	ld	r24, Z
    18d6:	88 2f       	mov	r24, r24
    18d8:	90 e0       	ldi	r25, 0x00	; 0
    18da:	82 0f       	add	r24, r18
    18dc:	93 1f       	adc	r25, r19
    18de:	99 87       	std	Y+9, r25	; 0x09
    18e0:	88 87       	std	Y+8, r24	; 0x08

	uint16_t controller_ID = 0;
    18e2:	1b 86       	std	Y+11, r1	; 0x0b
    18e4:	1a 86       	std	Y+10, r1	; 0x0a
	float autotune_temp = 50;
    18e6:	80 e0       	ldi	r24, 0x00	; 0
    18e8:	90 e0       	ldi	r25, 0x00	; 0
    18ea:	a8 e4       	ldi	r26, 0x48	; 72
    18ec:	b2 e4       	ldi	r27, 0x42	; 66
    18ee:	8c 87       	std	Y+12, r24	; 0x0c
    18f0:	9d 87       	std	Y+13, r25	; 0x0d
    18f2:	ae 87       	std	Y+14, r26	; 0x0e
    18f4:	bf 87       	std	Y+15, r27	; 0x0f
	uint16_t tmpData=0;
    18f6:	19 8a       	std	Y+17, r1	; 0x11
    18f8:	18 8a       	std	Y+16, r1	; 0x10
	uint8_t save_to_eepr = 0;
    18fa:	19 82       	std	Y+1, r1	; 0x01
	uint16_t maxCycles = 0;
    18fc:	1b 82       	std	Y+3, r1	; 0x03
    18fe:	1a 82       	std	Y+2, r1	; 0x02
	uint16_t tmp = 0;
    1900:	1b 8a       	std	Y+19, r1	; 0x13
    1902:	1a 8a       	std	Y+18, r1	; 0x12
	uint8_t j =0;
    1904:	1c 82       	std	Y+4, r1	; 0x04
	autotunepidtable.controller_ID = 0;
    1906:	10 92 f9 0b 	sts	0x0BF9, r1	; 0x800bf9 <autotunepidtable>
	autotunepidtable.autotune_temp = 0;
    190a:	10 92 fa 0b 	sts	0x0BFA, r1	; 0x800bfa <autotunepidtable+0x1>
    190e:	10 92 fb 0b 	sts	0x0BFB, r1	; 0x800bfb <autotunepidtable+0x2>
    1912:	10 92 fc 0b 	sts	0x0BFC, r1	; 0x800bfc <autotunepidtable+0x3>
    1916:	10 92 fd 0b 	sts	0x0BFD, r1	; 0x800bfd <autotunepidtable+0x4>
	autotunepidtable.maxCycles = 0;
    191a:	10 92 fe 0b 	sts	0x0BFE, r1	; 0x800bfe <autotunepidtable+0x5>
	autotunepidtable.save_to_eepr = 0;
    191e:	10 92 ff 0b 	sts	0x0BFF, r1	; 0x800bff <autotunepidtable+0x6>
	
	for (uint8_t i=0; i<number_of_registers; i++)
    1922:	1d 82       	std	Y+5, r1	; 0x05
    1924:	ce c0       	rjmp	.+412    	; 0x1ac2 <mod_write_multiple_registers+0x24c>
	{		
		switch(first_register+i){
    1926:	8d 81       	ldd	r24, Y+5	; 0x05
    1928:	28 2f       	mov	r18, r24
    192a:	30 e0       	ldi	r19, 0x00	; 0
    192c:	88 85       	ldd	r24, Y+8	; 0x08
    192e:	99 85       	ldd	r25, Y+9	; 0x09
    1930:	82 0f       	add	r24, r18
    1932:	93 1f       	adc	r25, r19
    1934:	85 3f       	cpi	r24, 0xF5	; 245
    1936:	f1 e0       	ldi	r31, 0x01	; 1
    1938:	9f 07       	cpc	r25, r31
    193a:	a1 f1       	breq	.+104    	; 0x19a4 <mod_write_multiple_registers+0x12e>
    193c:	86 3f       	cpi	r24, 0xF6	; 246
    193e:	21 e0       	ldi	r18, 0x01	; 1
    1940:	92 07       	cpc	r25, r18
    1942:	09 f4       	brne	.+2      	; 0x1946 <mod_write_multiple_registers+0xd0>
    1944:	7c c0       	rjmp	.+248    	; 0x1a3e <mod_write_multiple_registers+0x1c8>
    1946:	84 3f       	cpi	r24, 0xF4	; 244
    1948:	91 40       	sbci	r25, 0x01	; 1
    194a:	09 f0       	breq	.+2      	; 0x194e <mod_write_multiple_registers+0xd8>
    194c:	b4 c0       	rjmp	.+360    	; 0x1ab6 <mod_write_multiple_registers+0x240>
			case MODBUS_SET_PID_AUTOTUNE_CONTROLLER_ID_ADR:
				controller_ID = ((data[8+j])<<8);
    194e:	8c 81       	ldd	r24, Y+4	; 0x04
    1950:	88 2f       	mov	r24, r24
    1952:	90 e0       	ldi	r25, 0x00	; 0
    1954:	08 96       	adiw	r24, 0x08	; 8
    1956:	9c 01       	movw	r18, r24
    1958:	8c 89       	ldd	r24, Y+20	; 0x14
    195a:	9d 89       	ldd	r25, Y+21	; 0x15
    195c:	82 0f       	add	r24, r18
    195e:	93 1f       	adc	r25, r19
    1960:	fc 01       	movw	r30, r24
    1962:	80 81       	ld	r24, Z
    1964:	88 2f       	mov	r24, r24
    1966:	90 e0       	ldi	r25, 0x00	; 0
    1968:	98 2f       	mov	r25, r24
    196a:	88 27       	eor	r24, r24
    196c:	9b 87       	std	Y+11, r25	; 0x0b
    196e:	8a 87       	std	Y+10, r24	; 0x0a
				j++;
    1970:	8c 81       	ldd	r24, Y+4	; 0x04
    1972:	8f 5f       	subi	r24, 0xFF	; 255
    1974:	8c 83       	std	Y+4, r24	; 0x04
				controller_ID |= (data[8+j]);
    1976:	8c 81       	ldd	r24, Y+4	; 0x04
    1978:	88 2f       	mov	r24, r24
    197a:	90 e0       	ldi	r25, 0x00	; 0
    197c:	08 96       	adiw	r24, 0x08	; 8
    197e:	9c 01       	movw	r18, r24
    1980:	8c 89       	ldd	r24, Y+20	; 0x14
    1982:	9d 89       	ldd	r25, Y+21	; 0x15
    1984:	82 0f       	add	r24, r18
    1986:	93 1f       	adc	r25, r19
    1988:	fc 01       	movw	r30, r24
    198a:	80 81       	ld	r24, Z
    198c:	88 2f       	mov	r24, r24
    198e:	90 e0       	ldi	r25, 0x00	; 0
    1990:	2a 85       	ldd	r18, Y+10	; 0x0a
    1992:	3b 85       	ldd	r19, Y+11	; 0x0b
    1994:	82 2b       	or	r24, r18
    1996:	93 2b       	or	r25, r19
    1998:	9b 87       	std	Y+11, r25	; 0x0b
    199a:	8a 87       	std	Y+10, r24	; 0x0a
				autotunepidtable.controller_ID = controller_ID;
    199c:	8a 85       	ldd	r24, Y+10	; 0x0a
    199e:	80 93 f9 0b 	sts	0x0BF9, r24	; 0x800bf9 <autotunepidtable>
				
			break;
    19a2:	89 c0       	rjmp	.+274    	; 0x1ab6 <mod_write_multiple_registers+0x240>
			case MODBUS_SET_PID_AUTOTUNE_TEMPERATURE_ADR:
				tmp = ((data[8+j])<<8);
    19a4:	8c 81       	ldd	r24, Y+4	; 0x04
    19a6:	88 2f       	mov	r24, r24
    19a8:	90 e0       	ldi	r25, 0x00	; 0
    19aa:	08 96       	adiw	r24, 0x08	; 8
    19ac:	9c 01       	movw	r18, r24
    19ae:	8c 89       	ldd	r24, Y+20	; 0x14
    19b0:	9d 89       	ldd	r25, Y+21	; 0x15
    19b2:	82 0f       	add	r24, r18
    19b4:	93 1f       	adc	r25, r19
    19b6:	fc 01       	movw	r30, r24
    19b8:	80 81       	ld	r24, Z
    19ba:	88 2f       	mov	r24, r24
    19bc:	90 e0       	ldi	r25, 0x00	; 0
    19be:	98 2f       	mov	r25, r24
    19c0:	88 27       	eor	r24, r24
    19c2:	9b 8b       	std	Y+19, r25	; 0x13
    19c4:	8a 8b       	std	Y+18, r24	; 0x12
				j++;
    19c6:	8c 81       	ldd	r24, Y+4	; 0x04
    19c8:	8f 5f       	subi	r24, 0xFF	; 255
    19ca:	8c 83       	std	Y+4, r24	; 0x04
				tmp |= (data[8+j]);
    19cc:	8c 81       	ldd	r24, Y+4	; 0x04
    19ce:	88 2f       	mov	r24, r24
    19d0:	90 e0       	ldi	r25, 0x00	; 0
    19d2:	08 96       	adiw	r24, 0x08	; 8
    19d4:	9c 01       	movw	r18, r24
    19d6:	8c 89       	ldd	r24, Y+20	; 0x14
    19d8:	9d 89       	ldd	r25, Y+21	; 0x15
    19da:	82 0f       	add	r24, r18
    19dc:	93 1f       	adc	r25, r19
    19de:	fc 01       	movw	r30, r24
    19e0:	80 81       	ld	r24, Z
    19e2:	88 2f       	mov	r24, r24
    19e4:	90 e0       	ldi	r25, 0x00	; 0
    19e6:	2a 89       	ldd	r18, Y+18	; 0x12
    19e8:	3b 89       	ldd	r19, Y+19	; 0x13
    19ea:	82 2b       	or	r24, r18
    19ec:	93 2b       	or	r25, r19
    19ee:	9b 8b       	std	Y+19, r25	; 0x13
    19f0:	8a 8b       	std	Y+18, r24	; 0x12
				autotune_temp = (float)(tmp/100.0);
    19f2:	8a 89       	ldd	r24, Y+18	; 0x12
    19f4:	9b 89       	ldd	r25, Y+19	; 0x13
    19f6:	cc 01       	movw	r24, r24
    19f8:	a0 e0       	ldi	r26, 0x00	; 0
    19fa:	b0 e0       	ldi	r27, 0x00	; 0
    19fc:	bc 01       	movw	r22, r24
    19fe:	cd 01       	movw	r24, r26
    1a00:	0e 94 b6 22 	call	0x456c	; 0x456c <__floatunsisf>
    1a04:	dc 01       	movw	r26, r24
    1a06:	cb 01       	movw	r24, r22
    1a08:	20 e0       	ldi	r18, 0x00	; 0
    1a0a:	30 e0       	ldi	r19, 0x00	; 0
    1a0c:	48 ec       	ldi	r20, 0xC8	; 200
    1a0e:	52 e4       	ldi	r21, 0x42	; 66
    1a10:	bc 01       	movw	r22, r24
    1a12:	cd 01       	movw	r24, r26
    1a14:	0e 94 1d 22 	call	0x443a	; 0x443a <__divsf3>
    1a18:	dc 01       	movw	r26, r24
    1a1a:	cb 01       	movw	r24, r22
    1a1c:	8c 87       	std	Y+12, r24	; 0x0c
    1a1e:	9d 87       	std	Y+13, r25	; 0x0d
    1a20:	ae 87       	std	Y+14, r26	; 0x0e
    1a22:	bf 87       	std	Y+15, r27	; 0x0f
				autotunepidtable.autotune_temp = autotune_temp;
    1a24:	8c 85       	ldd	r24, Y+12	; 0x0c
    1a26:	9d 85       	ldd	r25, Y+13	; 0x0d
    1a28:	ae 85       	ldd	r26, Y+14	; 0x0e
    1a2a:	bf 85       	ldd	r27, Y+15	; 0x0f
    1a2c:	80 93 fa 0b 	sts	0x0BFA, r24	; 0x800bfa <autotunepidtable+0x1>
    1a30:	90 93 fb 0b 	sts	0x0BFB, r25	; 0x800bfb <autotunepidtable+0x2>
    1a34:	a0 93 fc 0b 	sts	0x0BFC, r26	; 0x800bfc <autotunepidtable+0x3>
    1a38:	b0 93 fd 0b 	sts	0x0BFD, r27	; 0x800bfd <autotunepidtable+0x4>
			break;
    1a3c:	3c c0       	rjmp	.+120    	; 0x1ab6 <mod_write_multiple_registers+0x240>
			case MODBUS_SET_PID_AUTOTUNE_MAX_CYCLES_AND_SAVE_ADR:
				maxCycles = ((data[8+j])<<8);
    1a3e:	8c 81       	ldd	r24, Y+4	; 0x04
    1a40:	88 2f       	mov	r24, r24
    1a42:	90 e0       	ldi	r25, 0x00	; 0
    1a44:	08 96       	adiw	r24, 0x08	; 8
    1a46:	9c 01       	movw	r18, r24
    1a48:	8c 89       	ldd	r24, Y+20	; 0x14
    1a4a:	9d 89       	ldd	r25, Y+21	; 0x15
    1a4c:	82 0f       	add	r24, r18
    1a4e:	93 1f       	adc	r25, r19
    1a50:	fc 01       	movw	r30, r24
    1a52:	80 81       	ld	r24, Z
    1a54:	88 2f       	mov	r24, r24
    1a56:	90 e0       	ldi	r25, 0x00	; 0
    1a58:	98 2f       	mov	r25, r24
    1a5a:	88 27       	eor	r24, r24
    1a5c:	9b 83       	std	Y+3, r25	; 0x03
    1a5e:	8a 83       	std	Y+2, r24	; 0x02
				j++;
    1a60:	8c 81       	ldd	r24, Y+4	; 0x04
    1a62:	8f 5f       	subi	r24, 0xFF	; 255
    1a64:	8c 83       	std	Y+4, r24	; 0x04
				maxCycles |= (data[8+j]);
    1a66:	8c 81       	ldd	r24, Y+4	; 0x04
    1a68:	88 2f       	mov	r24, r24
    1a6a:	90 e0       	ldi	r25, 0x00	; 0
    1a6c:	08 96       	adiw	r24, 0x08	; 8
    1a6e:	9c 01       	movw	r18, r24
    1a70:	8c 89       	ldd	r24, Y+20	; 0x14
    1a72:	9d 89       	ldd	r25, Y+21	; 0x15
    1a74:	82 0f       	add	r24, r18
    1a76:	93 1f       	adc	r25, r19
    1a78:	fc 01       	movw	r30, r24
    1a7a:	80 81       	ld	r24, Z
    1a7c:	88 2f       	mov	r24, r24
    1a7e:	90 e0       	ldi	r25, 0x00	; 0
    1a80:	2a 81       	ldd	r18, Y+2	; 0x02
    1a82:	3b 81       	ldd	r19, Y+3	; 0x03
    1a84:	82 2b       	or	r24, r18
    1a86:	93 2b       	or	r25, r19
    1a88:	9b 83       	std	Y+3, r25	; 0x03
    1a8a:	8a 83       	std	Y+2, r24	; 0x02
				if (maxCycles & 0x8000)
    1a8c:	8a 81       	ldd	r24, Y+2	; 0x02
    1a8e:	9b 81       	ldd	r25, Y+3	; 0x03
    1a90:	99 23       	and	r25, r25
    1a92:	3c f4       	brge	.+14     	; 0x1aa2 <mod_write_multiple_registers+0x22c>
				{
					save_to_eepr = 1;
    1a94:	81 e0       	ldi	r24, 0x01	; 1
    1a96:	89 83       	std	Y+1, r24	; 0x01
					maxCycles = maxCycles & 0x7FFF;
    1a98:	8a 81       	ldd	r24, Y+2	; 0x02
    1a9a:	9b 81       	ldd	r25, Y+3	; 0x03
    1a9c:	9f 77       	andi	r25, 0x7F	; 127
    1a9e:	9b 83       	std	Y+3, r25	; 0x03
    1aa0:	8a 83       	std	Y+2, r24	; 0x02
				}				
				autotunepidtable.maxCycles = maxCycles;
    1aa2:	8a 81       	ldd	r24, Y+2	; 0x02
    1aa4:	80 93 fe 0b 	sts	0x0BFE, r24	; 0x800bfe <autotunepidtable+0x5>
				autotunepidtable.save_to_eepr = save_to_eepr;
    1aa8:	89 81       	ldd	r24, Y+1	; 0x01
    1aaa:	80 93 ff 0b 	sts	0x0BFF, r24	; 0x800bff <autotunepidtable+0x6>
				autotune = 1;
    1aae:	81 e0       	ldi	r24, 0x01	; 1
    1ab0:	80 93 58 08 	sts	0x0858, r24	; 0x800858 <autotune>
			break;
    1ab4:	00 00       	nop

		}	
		j++;
    1ab6:	8c 81       	ldd	r24, Y+4	; 0x04
    1ab8:	8f 5f       	subi	r24, 0xFF	; 255
    1aba:	8c 83       	std	Y+4, r24	; 0x04
	autotunepidtable.controller_ID = 0;
	autotunepidtable.autotune_temp = 0;
	autotunepidtable.maxCycles = 0;
	autotunepidtable.save_to_eepr = 0;
	
	for (uint8_t i=0; i<number_of_registers; i++)
    1abc:	8d 81       	ldd	r24, Y+5	; 0x05
    1abe:	8f 5f       	subi	r24, 0xFF	; 255
    1ac0:	8d 83       	std	Y+5, r24	; 0x05
    1ac2:	8d 81       	ldd	r24, Y+5	; 0x05
    1ac4:	28 2f       	mov	r18, r24
    1ac6:	30 e0       	ldi	r19, 0x00	; 0
    1ac8:	8e 81       	ldd	r24, Y+6	; 0x06
    1aca:	9f 81       	ldd	r25, Y+7	; 0x07
    1acc:	28 17       	cp	r18, r24
    1ace:	39 07       	cpc	r19, r25
    1ad0:	08 f4       	brcc	.+2      	; 0x1ad4 <mod_write_multiple_registers+0x25e>
    1ad2:	29 cf       	rjmp	.-430    	; 0x1926 <mod_write_multiple_registers+0xb0>

		}	
		j++;
	}

	data[0] = 7; 
    1ad4:	8c 89       	ldd	r24, Y+20	; 0x14
    1ad6:	9d 89       	ldd	r25, Y+21	; 0x15
    1ad8:	27 e0       	ldi	r18, 0x07	; 7
    1ada:	fc 01       	movw	r30, r24
    1adc:	20 83       	st	Z, r18
	data[data[0]] = calculate_LRC(data, data[0]); //obliczamy LRC wpisujac je na koncu struktury danych
    1ade:	8c 89       	ldd	r24, Y+20	; 0x14
    1ae0:	9d 89       	ldd	r25, Y+21	; 0x15
    1ae2:	fc 01       	movw	r30, r24
    1ae4:	80 81       	ld	r24, Z
    1ae6:	88 2f       	mov	r24, r24
    1ae8:	90 e0       	ldi	r25, 0x00	; 0
    1aea:	2c 89       	ldd	r18, Y+20	; 0x14
    1aec:	3d 89       	ldd	r19, Y+21	; 0x15
    1aee:	89 01       	movw	r16, r18
    1af0:	08 0f       	add	r16, r24
    1af2:	19 1f       	adc	r17, r25
    1af4:	8c 89       	ldd	r24, Y+20	; 0x14
    1af6:	9d 89       	ldd	r25, Y+21	; 0x15
    1af8:	fc 01       	movw	r30, r24
    1afa:	20 81       	ld	r18, Z
    1afc:	8c 89       	ldd	r24, Y+20	; 0x14
    1afe:	9d 89       	ldd	r25, Y+21	; 0x15
    1b00:	62 2f       	mov	r22, r18
    1b02:	78 dc       	rcall	.-1808   	; 0x13f4 <calculate_LRC>
    1b04:	f8 01       	movw	r30, r16
    1b06:	80 83       	st	Z, r24
	modbus_puts(data);
    1b08:	8c 89       	ldd	r24, Y+20	; 0x14
    1b0a:	9d 89       	ldd	r25, Y+21	; 0x15
    1b0c:	13 dd       	rcall	.-1498   	; 0x1534 <modbus_puts>
	return 1;
    1b0e:	81 e0       	ldi	r24, 0x01	; 1
}
    1b10:	65 96       	adiw	r28, 0x15	; 21
    1b12:	0f b6       	in	r0, 0x3f	; 63
    1b14:	f8 94       	cli
    1b16:	de bf       	out	0x3e, r29	; 62
    1b18:	0f be       	out	0x3f, r0	; 63
    1b1a:	cd bf       	out	0x3d, r28	; 61
    1b1c:	df 91       	pop	r29
    1b1e:	cf 91       	pop	r28
    1b20:	1f 91       	pop	r17
    1b22:	0f 91       	pop	r16
    1b24:	08 95       	ret

00001b26 <get_int16_t_data>:

void get_int16_t_data(uint16_t set_data, uint8_t *dataPos, char *data){
    1b26:	cf 93       	push	r28
    1b28:	df 93       	push	r29
    1b2a:	cd b7       	in	r28, 0x3d	; 61
    1b2c:	de b7       	in	r29, 0x3e	; 62
    1b2e:	29 97       	sbiw	r28, 0x09	; 9
    1b30:	0f b6       	in	r0, 0x3f	; 63
    1b32:	f8 94       	cli
    1b34:	de bf       	out	0x3e, r29	; 62
    1b36:	0f be       	out	0x3f, r0	; 63
    1b38:	cd bf       	out	0x3d, r28	; 61
    1b3a:	9d 83       	std	Y+5, r25	; 0x05
    1b3c:	8c 83       	std	Y+4, r24	; 0x04
    1b3e:	7f 83       	std	Y+7, r23	; 0x07
    1b40:	6e 83       	std	Y+6, r22	; 0x06
    1b42:	59 87       	std	Y+9, r21	; 0x09
    1b44:	48 87       	std	Y+8, r20	; 0x08
	//uint16_t temp = (tempController[tempContrIndex].currentTemperatureC) * 100;
	//uint16_t temp = (tempController[tempContrIndex].currentTemperature);
	uint8_t first = set_data  >> 8;
    1b46:	8c 81       	ldd	r24, Y+4	; 0x04
    1b48:	9d 81       	ldd	r25, Y+5	; 0x05
    1b4a:	89 2f       	mov	r24, r25
    1b4c:	99 27       	eor	r25, r25
    1b4e:	89 83       	std	Y+1, r24	; 0x01
	uint8_t dp = *dataPos;
    1b50:	8e 81       	ldd	r24, Y+6	; 0x06
    1b52:	9f 81       	ldd	r25, Y+7	; 0x07
    1b54:	fc 01       	movw	r30, r24
    1b56:	80 81       	ld	r24, Z
    1b58:	8a 83       	std	Y+2, r24	; 0x02
	dp++;
    1b5a:	8a 81       	ldd	r24, Y+2	; 0x02
    1b5c:	8f 5f       	subi	r24, 0xFF	; 255
    1b5e:	8a 83       	std	Y+2, r24	; 0x02
	data[dp+3] = first;
    1b60:	8a 81       	ldd	r24, Y+2	; 0x02
    1b62:	88 2f       	mov	r24, r24
    1b64:	90 e0       	ldi	r25, 0x00	; 0
    1b66:	03 96       	adiw	r24, 0x03	; 3
    1b68:	28 85       	ldd	r18, Y+8	; 0x08
    1b6a:	39 85       	ldd	r19, Y+9	; 0x09
    1b6c:	82 0f       	add	r24, r18
    1b6e:	93 1f       	adc	r25, r19
    1b70:	29 81       	ldd	r18, Y+1	; 0x01
    1b72:	fc 01       	movw	r30, r24
    1b74:	20 83       	st	Z, r18
	uint8_t second = set_data & 0x00ff;
    1b76:	8c 81       	ldd	r24, Y+4	; 0x04
    1b78:	8b 83       	std	Y+3, r24	; 0x03
	dp++;
    1b7a:	8a 81       	ldd	r24, Y+2	; 0x02
    1b7c:	8f 5f       	subi	r24, 0xFF	; 255
    1b7e:	8a 83       	std	Y+2, r24	; 0x02
	data[dp+3] = second;
    1b80:	8a 81       	ldd	r24, Y+2	; 0x02
    1b82:	88 2f       	mov	r24, r24
    1b84:	90 e0       	ldi	r25, 0x00	; 0
    1b86:	03 96       	adiw	r24, 0x03	; 3
    1b88:	28 85       	ldd	r18, Y+8	; 0x08
    1b8a:	39 85       	ldd	r19, Y+9	; 0x09
    1b8c:	82 0f       	add	r24, r18
    1b8e:	93 1f       	adc	r25, r19
    1b90:	2b 81       	ldd	r18, Y+3	; 0x03
    1b92:	fc 01       	movw	r30, r24
    1b94:	20 83       	st	Z, r18
	*dataPos = dp;
    1b96:	8e 81       	ldd	r24, Y+6	; 0x06
    1b98:	9f 81       	ldd	r25, Y+7	; 0x07
    1b9a:	2a 81       	ldd	r18, Y+2	; 0x02
    1b9c:	fc 01       	movw	r30, r24
    1b9e:	20 83       	st	Z, r18
}
    1ba0:	29 96       	adiw	r28, 0x09	; 9
    1ba2:	0f b6       	in	r0, 0x3f	; 63
    1ba4:	f8 94       	cli
    1ba6:	de bf       	out	0x3e, r29	; 62
    1ba8:	0f be       	out	0x3f, r0	; 63
    1baa:	cd bf       	out	0x3d, r28	; 61
    1bac:	df 91       	pop	r29
    1bae:	cf 91       	pop	r28
    1bb0:	08 95       	ret

00001bb2 <mod_read_input_register>:

int8_t mod_read_input_register(char *data){
    1bb2:	0f 93       	push	r16
    1bb4:	1f 93       	push	r17
    1bb6:	cf 93       	push	r28
    1bb8:	df 93       	push	r29
    1bba:	cd b7       	in	r28, 0x3d	; 61
    1bbc:	de b7       	in	r29, 0x3e	; 62
    1bbe:	2e 97       	sbiw	r28, 0x0e	; 14
    1bc0:	0f b6       	in	r0, 0x3f	; 63
    1bc2:	f8 94       	cli
    1bc4:	de bf       	out	0x3e, r29	; 62
    1bc6:	0f be       	out	0x3f, r0	; 63
    1bc8:	cd bf       	out	0x3d, r28	; 61
    1bca:	9e 87       	std	Y+14, r25	; 0x0e
    1bcc:	8d 87       	std	Y+13, r24	; 0x0d
	
	const uint16_t number_of_registers = data[data[0]-1]; //na przed ostatniej pozycji znajduje si w jednym bajcie ilo rejestrw do odczytu
    1bce:	8d 85       	ldd	r24, Y+13	; 0x0d
    1bd0:	9e 85       	ldd	r25, Y+14	; 0x0e
    1bd2:	fc 01       	movw	r30, r24
    1bd4:	80 81       	ld	r24, Z
    1bd6:	88 2f       	mov	r24, r24
    1bd8:	90 e0       	ldi	r25, 0x00	; 0
    1bda:	01 97       	sbiw	r24, 0x01	; 1
    1bdc:	2d 85       	ldd	r18, Y+13	; 0x0d
    1bde:	3e 85       	ldd	r19, Y+14	; 0x0e
    1be0:	82 0f       	add	r24, r18
    1be2:	93 1f       	adc	r25, r19
    1be4:	fc 01       	movw	r30, r24
    1be6:	80 81       	ld	r24, Z
    1be8:	88 2f       	mov	r24, r24
    1bea:	90 e0       	ldi	r25, 0x00	; 0
    1bec:	9b 83       	std	Y+3, r25	; 0x03
    1bee:	8a 83       	std	Y+2, r24	; 0x02
	const uint16_t first_register = data[DATA_POS]*256+data[DATA_POS+1]; 
    1bf0:	8d 85       	ldd	r24, Y+13	; 0x0d
    1bf2:	9e 85       	ldd	r25, Y+14	; 0x0e
    1bf4:	03 96       	adiw	r24, 0x03	; 3
    1bf6:	fc 01       	movw	r30, r24
    1bf8:	80 81       	ld	r24, Z
    1bfa:	88 2f       	mov	r24, r24
    1bfc:	90 e0       	ldi	r25, 0x00	; 0
    1bfe:	38 2f       	mov	r19, r24
    1c00:	22 27       	eor	r18, r18
    1c02:	8d 85       	ldd	r24, Y+13	; 0x0d
    1c04:	9e 85       	ldd	r25, Y+14	; 0x0e
    1c06:	04 96       	adiw	r24, 0x04	; 4
    1c08:	fc 01       	movw	r30, r24
    1c0a:	80 81       	ld	r24, Z
    1c0c:	88 2f       	mov	r24, r24
    1c0e:	90 e0       	ldi	r25, 0x00	; 0
    1c10:	82 0f       	add	r24, r18
    1c12:	93 1f       	adc	r25, r19
    1c14:	9d 83       	std	Y+5, r25	; 0x05
    1c16:	8c 83       	std	Y+4, r24	; 0x04
	uint8_t data_counter = 0;
    1c18:	1c 86       	std	Y+12, r1	; 0x0c
	uint16_t tmp = 0;
    1c1a:	1f 82       	std	Y+7, r1	; 0x07
    1c1c:	1e 82       	std	Y+6, r1	; 0x06
	float tmpf = 0;
    1c1e:	18 86       	std	Y+8, r1	; 0x08
    1c20:	19 86       	std	Y+9, r1	; 0x09
    1c22:	1a 86       	std	Y+10, r1	; 0x0a
    1c24:	1b 86       	std	Y+11, r1	; 0x0b
	for (uint8_t i=0; i<number_of_registers; i++)
    1c26:	19 82       	std	Y+1, r1	; 0x01
    1c28:	09 c1       	rjmp	.+530    	; 0x1e3c <mod_read_input_register+0x28a>
	{
		switch(first_register+i){
    1c2a:	89 81       	ldd	r24, Y+1	; 0x01
    1c2c:	28 2f       	mov	r18, r24
    1c2e:	30 e0       	ldi	r19, 0x00	; 0
    1c30:	8c 81       	ldd	r24, Y+4	; 0x04
    1c32:	9d 81       	ldd	r25, Y+5	; 0x05
    1c34:	82 0f       	add	r24, r18
    1c36:	93 1f       	adc	r25, r19
    1c38:	86 3b       	cpi	r24, 0xB6	; 182
    1c3a:	f4 e0       	ldi	r31, 0x04	; 4
    1c3c:	9f 07       	cpc	r25, r31
    1c3e:	09 f4       	brne	.+2      	; 0x1c42 <mod_read_input_register+0x90>
    1c40:	c4 c0       	rjmp	.+392    	; 0x1dca <mod_read_input_register+0x218>
    1c42:	87 3b       	cpi	r24, 0xB7	; 183
    1c44:	24 e0       	ldi	r18, 0x04	; 4
    1c46:	92 07       	cpc	r25, r18
    1c48:	e8 f4       	brcc	.+58     	; 0x1c84 <mod_read_input_register+0xd2>
    1c4a:	82 3b       	cpi	r24, 0xB2	; 178
    1c4c:	e4 e0       	ldi	r30, 0x04	; 4
    1c4e:	9e 07       	cpc	r25, r30
    1c50:	09 f4       	brne	.+2      	; 0x1c54 <mod_read_input_register+0xa2>
    1c52:	6d c0       	rjmp	.+218    	; 0x1d2e <mod_read_input_register+0x17c>
    1c54:	83 3b       	cpi	r24, 0xB3	; 179
    1c56:	f4 e0       	ldi	r31, 0x04	; 4
    1c58:	9f 07       	cpc	r25, r31
    1c5a:	50 f4       	brcc	.+20     	; 0x1c70 <mod_read_input_register+0xbe>
    1c5c:	80 3b       	cpi	r24, 0xB0	; 176
    1c5e:	24 e0       	ldi	r18, 0x04	; 4
    1c60:	92 07       	cpc	r25, r18
    1c62:	09 f4       	brne	.+2      	; 0x1c66 <mod_read_input_register+0xb4>
    1c64:	4c c0       	rjmp	.+152    	; 0x1cfe <mod_read_input_register+0x14c>
    1c66:	81 3b       	cpi	r24, 0xB1	; 177
    1c68:	94 40       	sbci	r25, 0x04	; 4
    1c6a:	09 f4       	brne	.+2      	; 0x1c6e <mod_read_input_register+0xbc>
    1c6c:	54 c0       	rjmp	.+168    	; 0x1d16 <mod_read_input_register+0x164>
    1c6e:	e3 c0       	rjmp	.+454    	; 0x1e36 <mod_read_input_register+0x284>
    1c70:	84 3b       	cpi	r24, 0xB4	; 180
    1c72:	f4 e0       	ldi	r31, 0x04	; 4
    1c74:	9f 07       	cpc	r25, r31
    1c76:	09 f4       	brne	.+2      	; 0x1c7a <mod_read_input_register+0xc8>
    1c78:	78 c0       	rjmp	.+240    	; 0x1d6a <mod_read_input_register+0x1b8>
    1c7a:	85 3b       	cpi	r24, 0xB5	; 181
    1c7c:	94 40       	sbci	r25, 0x04	; 4
    1c7e:	08 f0       	brcs	.+2      	; 0x1c82 <mod_read_input_register+0xd0>
    1c80:	98 c0       	rjmp	.+304    	; 0x1db2 <mod_read_input_register+0x200>
    1c82:	61 c0       	rjmp	.+194    	; 0x1d46 <mod_read_input_register+0x194>
    1c84:	84 3a       	cpi	r24, 0xA4	; 164
    1c86:	ec e9       	ldi	r30, 0x9C	; 156
    1c88:	9e 07       	cpc	r25, r30
    1c8a:	09 f1       	breq	.+66     	; 0x1cce <mod_read_input_register+0x11c>
    1c8c:	85 3a       	cpi	r24, 0xA5	; 165
    1c8e:	fc e9       	ldi	r31, 0x9C	; 156
    1c90:	9f 07       	cpc	r25, r31
    1c92:	78 f4       	brcc	.+30     	; 0x1cb2 <mod_read_input_register+0x100>
    1c94:	88 3b       	cpi	r24, 0xB8	; 184
    1c96:	24 e0       	ldi	r18, 0x04	; 4
    1c98:	92 07       	cpc	r25, r18
    1c9a:	09 f4       	brne	.+2      	; 0x1c9e <mod_read_input_register+0xec>
    1c9c:	ae c0       	rjmp	.+348    	; 0x1dfa <mod_read_input_register+0x248>
    1c9e:	88 3b       	cpi	r24, 0xB8	; 184
    1ca0:	e4 e0       	ldi	r30, 0x04	; 4
    1ca2:	9e 07       	cpc	r25, r30
    1ca4:	08 f4       	brcc	.+2      	; 0x1ca8 <mod_read_input_register+0xf6>
    1ca6:	9d c0       	rjmp	.+314    	; 0x1de2 <mod_read_input_register+0x230>
    1ca8:	89 3b       	cpi	r24, 0xB9	; 185
    1caa:	94 40       	sbci	r25, 0x04	; 4
    1cac:	09 f4       	brne	.+2      	; 0x1cb0 <mod_read_input_register+0xfe>
    1cae:	b7 c0       	rjmp	.+366    	; 0x1e1e <mod_read_input_register+0x26c>
    1cb0:	c2 c0       	rjmp	.+388    	; 0x1e36 <mod_read_input_register+0x284>
    1cb2:	86 3a       	cpi	r24, 0xA6	; 166
    1cb4:	2c e9       	ldi	r18, 0x9C	; 156
    1cb6:	92 07       	cpc	r25, r18
    1cb8:	09 f4       	brne	.+2      	; 0x1cbc <mod_read_input_register+0x10a>
    1cba:	63 c0       	rjmp	.+198    	; 0x1d82 <mod_read_input_register+0x1d0>
    1cbc:	86 3a       	cpi	r24, 0xA6	; 166
    1cbe:	ec e9       	ldi	r30, 0x9C	; 156
    1cc0:	9e 07       	cpc	r25, r30
    1cc2:	88 f0       	brcs	.+34     	; 0x1ce6 <mod_read_input_register+0x134>
    1cc4:	87 3a       	cpi	r24, 0xA7	; 167
    1cc6:	9c 49       	sbci	r25, 0x9C	; 156
    1cc8:	09 f4       	brne	.+2      	; 0x1ccc <mod_read_input_register+0x11a>
    1cca:	67 c0       	rjmp	.+206    	; 0x1d9a <mod_read_input_register+0x1e8>
    1ccc:	b4 c0       	rjmp	.+360    	; 0x1e36 <mod_read_input_register+0x284>
			case MODBUS_BED3_R_W_PID_MAX_ADR:
			get_int16_t_data((uint16_t)tempController[BED3].pidMax, &data_counter, data);
			break;*/
			///////// TENSOMETER_0 //////////
			case MODBUS_TENS_0_RAW_VALUE_WEIGHT_R_ADR:
				get_int16_t_data((uint16_t)tensometer[TENSOMETER_0].RAW_Value, &data_counter, data);
    1cce:	80 91 00 0c 	lds	r24, 0x0C00	; 0x800c00 <tensometer>
    1cd2:	90 91 01 0c 	lds	r25, 0x0C01	; 0x800c01 <tensometer+0x1>
    1cd6:	4d 85       	ldd	r20, Y+13	; 0x0d
    1cd8:	5e 85       	ldd	r21, Y+14	; 0x0e
    1cda:	9e 01       	movw	r18, r28
    1cdc:	24 5f       	subi	r18, 0xF4	; 244
    1cde:	3f 4f       	sbci	r19, 0xFF	; 255
    1ce0:	b9 01       	movw	r22, r18
    1ce2:	21 df       	rcall	.-446    	; 0x1b26 <get_int16_t_data>
			break;
    1ce4:	a8 c0       	rjmp	.+336    	; 0x1e36 <mod_read_input_register+0x284>
			case MODBUS_TENS_0_WEIGHT_GRAM_R_ADR:
				get_int16_t_data((uint16_t)tensometer[TENSOMETER_0].weight, &data_counter, data);
    1ce6:	80 91 02 0c 	lds	r24, 0x0C02	; 0x800c02 <tensometer+0x2>
    1cea:	90 91 03 0c 	lds	r25, 0x0C03	; 0x800c03 <tensometer+0x3>
    1cee:	4d 85       	ldd	r20, Y+13	; 0x0d
    1cf0:	5e 85       	ldd	r21, Y+14	; 0x0e
    1cf2:	9e 01       	movw	r18, r28
    1cf4:	24 5f       	subi	r18, 0xF4	; 244
    1cf6:	3f 4f       	sbci	r19, 0xFF	; 255
    1cf8:	b9 01       	movw	r22, r18
    1cfa:	15 df       	rcall	.-470    	; 0x1b26 <get_int16_t_data>
			break;
    1cfc:	9c c0       	rjmp	.+312    	; 0x1e36 <mod_read_input_register+0x284>
			case MODBUS_TENS_0_FILAMENT_WEIGHT_R_W_ADR:
				get_int16_t_data((uint16_t)tensometer[TENSOMETER_0].filamentWeight, &data_counter, data);
    1cfe:	80 91 06 0c 	lds	r24, 0x0C06	; 0x800c06 <tensometer+0x6>
    1d02:	90 91 07 0c 	lds	r25, 0x0C07	; 0x800c07 <tensometer+0x7>
    1d06:	4d 85       	ldd	r20, Y+13	; 0x0d
    1d08:	5e 85       	ldd	r21, Y+14	; 0x0e
    1d0a:	9e 01       	movw	r18, r28
    1d0c:	24 5f       	subi	r18, 0xF4	; 244
    1d0e:	3f 4f       	sbci	r19, 0xFF	; 255
    1d10:	b9 01       	movw	r22, r18
    1d12:	09 df       	rcall	.-494    	; 0x1b26 <get_int16_t_data>
			break;
    1d14:	90 c0       	rjmp	.+288    	; 0x1e36 <mod_read_input_register+0x284>
			case MODBUS_TENS_0_ROLL_WEIGHT_R_W_ADR:
				get_int16_t_data((uint16_t)tensometer[TENSOMETER_0].rollWeight, &data_counter, data);
    1d16:	80 91 04 0c 	lds	r24, 0x0C04	; 0x800c04 <tensometer+0x4>
    1d1a:	90 91 05 0c 	lds	r25, 0x0C05	; 0x800c05 <tensometer+0x5>
    1d1e:	4d 85       	ldd	r20, Y+13	; 0x0d
    1d20:	5e 85       	ldd	r21, Y+14	; 0x0e
    1d22:	9e 01       	movw	r18, r28
    1d24:	24 5f       	subi	r18, 0xF4	; 244
    1d26:	3f 4f       	sbci	r19, 0xFF	; 255
    1d28:	b9 01       	movw	r22, r18
    1d2a:	fd de       	rcall	.-518    	; 0x1b26 <get_int16_t_data>
			break;
    1d2c:	84 c0       	rjmp	.+264    	; 0x1e36 <mod_read_input_register+0x284>
			case MODBUS_TENS_0_CALIBRATION_CONSTANT_R_W_ADR:
				get_int16_t_data((uint16_t)tensometer[TENSOMETER_0].constantCalibrationValue, &data_counter, data);
    1d2e:	80 91 0f 0c 	lds	r24, 0x0C0F	; 0x800c0f <tensometer+0xf>
    1d32:	90 91 10 0c 	lds	r25, 0x0C10	; 0x800c10 <tensometer+0x10>
    1d36:	4d 85       	ldd	r20, Y+13	; 0x0d
    1d38:	5e 85       	ldd	r21, Y+14	; 0x0e
    1d3a:	9e 01       	movw	r18, r28
    1d3c:	24 5f       	subi	r18, 0xF4	; 244
    1d3e:	3f 4f       	sbci	r19, 0xFF	; 255
    1d40:	b9 01       	movw	r22, r18
    1d42:	f1 de       	rcall	.-542    	; 0x1b26 <get_int16_t_data>
			break;
    1d44:	78 c0       	rjmp	.+240    	; 0x1e36 <mod_read_input_register+0x284>
			case MODBUS_TENS_0_MASS_NO_LOAD_GRAM_R_W_ADR:
				get_int16_t_data((uint16_t)tensometer[TENSOMETER_0].zeroScaleMass, &data_counter, data);
    1d46:	80 91 11 0c 	lds	r24, 0x0C11	; 0x800c11 <tensometer+0x11>
    1d4a:	90 91 12 0c 	lds	r25, 0x0C12	; 0x800c12 <tensometer+0x12>
    1d4e:	a0 91 13 0c 	lds	r26, 0x0C13	; 0x800c13 <tensometer+0x13>
    1d52:	b0 91 14 0c 	lds	r27, 0x0C14	; 0x800c14 <tensometer+0x14>
    1d56:	fc 01       	movw	r30, r24
    1d58:	2d 85       	ldd	r18, Y+13	; 0x0d
    1d5a:	3e 85       	ldd	r19, Y+14	; 0x0e
    1d5c:	ce 01       	movw	r24, r28
    1d5e:	0c 96       	adiw	r24, 0x0c	; 12
    1d60:	a9 01       	movw	r20, r18
    1d62:	bc 01       	movw	r22, r24
    1d64:	cf 01       	movw	r24, r30
    1d66:	df de       	rcall	.-578    	; 0x1b26 <get_int16_t_data>
			break;
    1d68:	66 c0       	rjmp	.+204    	; 0x1e36 <mod_read_input_register+0x284>
			case MODBUS_TENS_0_CALIBRATION_MASS_GRAM_R_W_ADR:
			get_int16_t_data((uint16_t)tensometer[TENSOMETER_0].calibatrionMass, &data_counter, data);
    1d6a:	80 91 15 0c 	lds	r24, 0x0C15	; 0x800c15 <tensometer+0x15>
    1d6e:	90 91 16 0c 	lds	r25, 0x0C16	; 0x800c16 <tensometer+0x16>
    1d72:	4d 85       	ldd	r20, Y+13	; 0x0d
    1d74:	5e 85       	ldd	r21, Y+14	; 0x0e
    1d76:	9e 01       	movw	r18, r28
    1d78:	24 5f       	subi	r18, 0xF4	; 244
    1d7a:	3f 4f       	sbci	r19, 0xFF	; 255
    1d7c:	b9 01       	movw	r22, r18
    1d7e:	d3 de       	rcall	.-602    	; 0x1b26 <get_int16_t_data>
			break;
    1d80:	5a c0       	rjmp	.+180    	; 0x1e36 <mod_read_input_register+0x284>
			///////// TENSOMETER_1 //////////
			case MODBUS_TENS_1_RAW_VALUE_WEIGHT_R_ADR:
				get_int16_t_data((uint16_t)tensometer[TENSOMETER_1].RAW_Value, &data_counter, data);
    1d82:	80 91 17 0c 	lds	r24, 0x0C17	; 0x800c17 <tensometer+0x17>
    1d86:	90 91 18 0c 	lds	r25, 0x0C18	; 0x800c18 <tensometer+0x18>
    1d8a:	4d 85       	ldd	r20, Y+13	; 0x0d
    1d8c:	5e 85       	ldd	r21, Y+14	; 0x0e
    1d8e:	9e 01       	movw	r18, r28
    1d90:	24 5f       	subi	r18, 0xF4	; 244
    1d92:	3f 4f       	sbci	r19, 0xFF	; 255
    1d94:	b9 01       	movw	r22, r18
    1d96:	c7 de       	rcall	.-626    	; 0x1b26 <get_int16_t_data>
			break;
    1d98:	4e c0       	rjmp	.+156    	; 0x1e36 <mod_read_input_register+0x284>
			case MODBUS_TENS_1_WEIGHT_GRAM_R_ADR:
				get_int16_t_data((uint16_t)tensometer[TENSOMETER_1].weight, &data_counter, data);
    1d9a:	80 91 19 0c 	lds	r24, 0x0C19	; 0x800c19 <tensometer+0x19>
    1d9e:	90 91 1a 0c 	lds	r25, 0x0C1A	; 0x800c1a <tensometer+0x1a>
    1da2:	4d 85       	ldd	r20, Y+13	; 0x0d
    1da4:	5e 85       	ldd	r21, Y+14	; 0x0e
    1da6:	9e 01       	movw	r18, r28
    1da8:	24 5f       	subi	r18, 0xF4	; 244
    1daa:	3f 4f       	sbci	r19, 0xFF	; 255
    1dac:	b9 01       	movw	r22, r18
    1dae:	bb de       	rcall	.-650    	; 0x1b26 <get_int16_t_data>
			break;
    1db0:	42 c0       	rjmp	.+132    	; 0x1e36 <mod_read_input_register+0x284>
			case MODBUS_TENS_1_FILAMENT_WEIGHT_R_W_ADR:
				get_int16_t_data((uint16_t)tensometer[TENSOMETER_1].filamentWeight, &data_counter, data);
    1db2:	80 91 1d 0c 	lds	r24, 0x0C1D	; 0x800c1d <tensometer+0x1d>
    1db6:	90 91 1e 0c 	lds	r25, 0x0C1E	; 0x800c1e <tensometer+0x1e>
    1dba:	4d 85       	ldd	r20, Y+13	; 0x0d
    1dbc:	5e 85       	ldd	r21, Y+14	; 0x0e
    1dbe:	9e 01       	movw	r18, r28
    1dc0:	24 5f       	subi	r18, 0xF4	; 244
    1dc2:	3f 4f       	sbci	r19, 0xFF	; 255
    1dc4:	b9 01       	movw	r22, r18
    1dc6:	af de       	rcall	.-674    	; 0x1b26 <get_int16_t_data>
			break;
    1dc8:	36 c0       	rjmp	.+108    	; 0x1e36 <mod_read_input_register+0x284>
			case MODBUS_TENS_1_ROLL_WEIGHT_R_W_ADR:
				get_int16_t_data((uint16_t)tensometer[TENSOMETER_1].rollWeight, &data_counter, data);
    1dca:	80 91 1b 0c 	lds	r24, 0x0C1B	; 0x800c1b <tensometer+0x1b>
    1dce:	90 91 1c 0c 	lds	r25, 0x0C1C	; 0x800c1c <tensometer+0x1c>
    1dd2:	4d 85       	ldd	r20, Y+13	; 0x0d
    1dd4:	5e 85       	ldd	r21, Y+14	; 0x0e
    1dd6:	9e 01       	movw	r18, r28
    1dd8:	24 5f       	subi	r18, 0xF4	; 244
    1dda:	3f 4f       	sbci	r19, 0xFF	; 255
    1ddc:	b9 01       	movw	r22, r18
    1dde:	a3 de       	rcall	.-698    	; 0x1b26 <get_int16_t_data>
			break;
    1de0:	2a c0       	rjmp	.+84     	; 0x1e36 <mod_read_input_register+0x284>
			case MODBUS_TENS_1_CALIBRATION_CONSTANT_R_W_ADR:
				get_int16_t_data((uint16_t)tensometer[TENSOMETER_1].constantCalibrationValue, &data_counter, data);
    1de2:	80 91 26 0c 	lds	r24, 0x0C26	; 0x800c26 <tensometer+0x26>
    1de6:	90 91 27 0c 	lds	r25, 0x0C27	; 0x800c27 <tensometer+0x27>
    1dea:	4d 85       	ldd	r20, Y+13	; 0x0d
    1dec:	5e 85       	ldd	r21, Y+14	; 0x0e
    1dee:	9e 01       	movw	r18, r28
    1df0:	24 5f       	subi	r18, 0xF4	; 244
    1df2:	3f 4f       	sbci	r19, 0xFF	; 255
    1df4:	b9 01       	movw	r22, r18
    1df6:	97 de       	rcall	.-722    	; 0x1b26 <get_int16_t_data>
			break;
    1df8:	1e c0       	rjmp	.+60     	; 0x1e36 <mod_read_input_register+0x284>
			case MODBUS_TENS_1_MASS_NO_LOAD_GRAM_R_W_ADR:
				get_int16_t_data((uint16_t)tensometer[TENSOMETER_1].zeroScaleMass, &data_counter, data);
    1dfa:	80 91 28 0c 	lds	r24, 0x0C28	; 0x800c28 <tensometer+0x28>
    1dfe:	90 91 29 0c 	lds	r25, 0x0C29	; 0x800c29 <tensometer+0x29>
    1e02:	a0 91 2a 0c 	lds	r26, 0x0C2A	; 0x800c2a <tensometer+0x2a>
    1e06:	b0 91 2b 0c 	lds	r27, 0x0C2B	; 0x800c2b <tensometer+0x2b>
    1e0a:	fc 01       	movw	r30, r24
    1e0c:	2d 85       	ldd	r18, Y+13	; 0x0d
    1e0e:	3e 85       	ldd	r19, Y+14	; 0x0e
    1e10:	ce 01       	movw	r24, r28
    1e12:	0c 96       	adiw	r24, 0x0c	; 12
    1e14:	a9 01       	movw	r20, r18
    1e16:	bc 01       	movw	r22, r24
    1e18:	cf 01       	movw	r24, r30
    1e1a:	85 de       	rcall	.-758    	; 0x1b26 <get_int16_t_data>
			break;
    1e1c:	0c c0       	rjmp	.+24     	; 0x1e36 <mod_read_input_register+0x284>
			case MODBUS_TENS_1_CALIBRATION_MASS_GRAM_R_W_ADR:
				get_int16_t_data((uint16_t)tensometer[TENSOMETER_1].calibatrionMass, &data_counter, data);
    1e1e:	80 91 2c 0c 	lds	r24, 0x0C2C	; 0x800c2c <tensometer+0x2c>
    1e22:	90 91 2d 0c 	lds	r25, 0x0C2D	; 0x800c2d <tensometer+0x2d>
    1e26:	4d 85       	ldd	r20, Y+13	; 0x0d
    1e28:	5e 85       	ldd	r21, Y+14	; 0x0e
    1e2a:	9e 01       	movw	r18, r28
    1e2c:	24 5f       	subi	r18, 0xF4	; 244
    1e2e:	3f 4f       	sbci	r19, 0xFF	; 255
    1e30:	b9 01       	movw	r22, r18
    1e32:	79 de       	rcall	.-782    	; 0x1b26 <get_int16_t_data>
			break;
    1e34:	00 00       	nop
	const uint16_t number_of_registers = data[data[0]-1]; //na przed ostatniej pozycji znajduje si w jednym bajcie ilo rejestrw do odczytu
	const uint16_t first_register = data[DATA_POS]*256+data[DATA_POS+1]; 
	uint8_t data_counter = 0;
	uint16_t tmp = 0;
	float tmpf = 0;
	for (uint8_t i=0; i<number_of_registers; i++)
    1e36:	89 81       	ldd	r24, Y+1	; 0x01
    1e38:	8f 5f       	subi	r24, 0xFF	; 255
    1e3a:	89 83       	std	Y+1, r24	; 0x01
    1e3c:	89 81       	ldd	r24, Y+1	; 0x01
    1e3e:	28 2f       	mov	r18, r24
    1e40:	30 e0       	ldi	r19, 0x00	; 0
    1e42:	8a 81       	ldd	r24, Y+2	; 0x02
    1e44:	9b 81       	ldd	r25, Y+3	; 0x03
    1e46:	28 17       	cp	r18, r24
    1e48:	39 07       	cpc	r19, r25
    1e4a:	08 f4       	brcc	.+2      	; 0x1e4e <mod_read_input_register+0x29c>
    1e4c:	ee ce       	rjmp	.-548    	; 0x1c2a <mod_read_input_register+0x78>
			case MODBUS_TENS_1_CALIBRATION_MASS_GRAM_R_W_ADR:
				get_int16_t_data((uint16_t)tensometer[TENSOMETER_1].calibatrionMass, &data_counter, data);
			break;
		}
	}
	data[0] = data_counter+4; //4 - stala liczba - 1 bajt adres slave-a, 1 bajt funkcja, 1 bajt liczba danych oraz 1 bajt LRC
    1e4e:	8c 85       	ldd	r24, Y+12	; 0x0c
    1e50:	24 e0       	ldi	r18, 0x04	; 4
    1e52:	28 0f       	add	r18, r24
    1e54:	8d 85       	ldd	r24, Y+13	; 0x0d
    1e56:	9e 85       	ldd	r25, Y+14	; 0x0e
    1e58:	fc 01       	movw	r30, r24
    1e5a:	20 83       	st	Z, r18
	data[3] = data_counter;
    1e5c:	8d 85       	ldd	r24, Y+13	; 0x0d
    1e5e:	9e 85       	ldd	r25, Y+14	; 0x0e
    1e60:	03 96       	adiw	r24, 0x03	; 3
    1e62:	2c 85       	ldd	r18, Y+12	; 0x0c
    1e64:	fc 01       	movw	r30, r24
    1e66:	20 83       	st	Z, r18
	data[4+data_counter] = calculate_LRC(data, data[0]); //obliczamy LRC wpisujac je na koncu struktury danych
    1e68:	8c 85       	ldd	r24, Y+12	; 0x0c
    1e6a:	88 2f       	mov	r24, r24
    1e6c:	90 e0       	ldi	r25, 0x00	; 0
    1e6e:	04 96       	adiw	r24, 0x04	; 4
    1e70:	9c 01       	movw	r18, r24
    1e72:	8d 85       	ldd	r24, Y+13	; 0x0d
    1e74:	9e 85       	ldd	r25, Y+14	; 0x0e
    1e76:	8c 01       	movw	r16, r24
    1e78:	02 0f       	add	r16, r18
    1e7a:	13 1f       	adc	r17, r19
    1e7c:	8d 85       	ldd	r24, Y+13	; 0x0d
    1e7e:	9e 85       	ldd	r25, Y+14	; 0x0e
    1e80:	fc 01       	movw	r30, r24
    1e82:	20 81       	ld	r18, Z
    1e84:	8d 85       	ldd	r24, Y+13	; 0x0d
    1e86:	9e 85       	ldd	r25, Y+14	; 0x0e
    1e88:	62 2f       	mov	r22, r18
    1e8a:	b4 da       	rcall	.-2712   	; 0x13f4 <calculate_LRC>
    1e8c:	f8 01       	movw	r30, r16
    1e8e:	80 83       	st	Z, r24
	modbus_puts(data);
    1e90:	8d 85       	ldd	r24, Y+13	; 0x0d
    1e92:	9e 85       	ldd	r25, Y+14	; 0x0e
    1e94:	4f db       	rcall	.-2402   	; 0x1534 <modbus_puts>
	return 1;
    1e96:	81 e0       	ldi	r24, 0x01	; 1
}
    1e98:	2e 96       	adiw	r28, 0x0e	; 14
    1e9a:	0f b6       	in	r0, 0x3f	; 63
    1e9c:	f8 94       	cli
    1e9e:	de bf       	out	0x3e, r29	; 62
    1ea0:	0f be       	out	0x3f, r0	; 63
    1ea2:	cd bf       	out	0x3d, r28	; 61
    1ea4:	df 91       	pop	r29
    1ea6:	cf 91       	pop	r28
    1ea8:	1f 91       	pop	r17
    1eaa:	0f 91       	pop	r16
    1eac:	08 95       	ret

00001eae <parse_uart_data>:
	//data[4+data_counter] = calculate_LRC(data, data[0]); //obliczamy LRC wpisujac je na koncu struktury danych
	//modbus_puts(data);
	//return 1;
//}

void parse_uart_data( char *pBuf ) {
    1eae:	1f 93       	push	r17
    1eb0:	cf 93       	push	r28
    1eb2:	df 93       	push	r29
    1eb4:	00 d0       	rcall	.+0      	; 0x1eb6 <parse_uart_data+0x8>
    1eb6:	1f 92       	push	r1
    1eb8:	cd b7       	in	r28, 0x3d	; 61
    1eba:	de b7       	in	r29, 0x3e	; 62
    1ebc:	9c 83       	std	Y+4, r25	; 0x04
    1ebe:	8b 83       	std	Y+3, r24	; 0x03

	if ((pBuf[ADDRESS_POS] == SLAVE_ADDRESS) || (pBuf[ADDRESS_POS] == ALL_SLAVES_ADR))
    1ec0:	8b 81       	ldd	r24, Y+3	; 0x03
    1ec2:	9c 81       	ldd	r25, Y+4	; 0x04
    1ec4:	01 96       	adiw	r24, 0x01	; 1
    1ec6:	fc 01       	movw	r30, r24
    1ec8:	80 81       	ld	r24, Z
    1eca:	85 36       	cpi	r24, 0x65	; 101
    1ecc:	41 f0       	breq	.+16     	; 0x1ede <parse_uart_data+0x30>
    1ece:	8b 81       	ldd	r24, Y+3	; 0x03
    1ed0:	9c 81       	ldd	r25, Y+4	; 0x04
    1ed2:	01 96       	adiw	r24, 0x01	; 1
    1ed4:	fc 01       	movw	r30, r24
    1ed6:	80 81       	ld	r24, Z
    1ed8:	88 23       	and	r24, r24
    1eda:	09 f0       	breq	.+2      	; 0x1ede <parse_uart_data+0x30>
    1edc:	4a c0       	rjmp	.+148    	; 0x1f72 <parse_uart_data+0xc4>
	{
		if (pBuf[pBuf[0]] == calculate_LRC(pBuf, pBuf[0]))
    1ede:	8b 81       	ldd	r24, Y+3	; 0x03
    1ee0:	9c 81       	ldd	r25, Y+4	; 0x04
    1ee2:	fc 01       	movw	r30, r24
    1ee4:	80 81       	ld	r24, Z
    1ee6:	88 2f       	mov	r24, r24
    1ee8:	90 e0       	ldi	r25, 0x00	; 0
    1eea:	2b 81       	ldd	r18, Y+3	; 0x03
    1eec:	3c 81       	ldd	r19, Y+4	; 0x04
    1eee:	82 0f       	add	r24, r18
    1ef0:	93 1f       	adc	r25, r19
    1ef2:	fc 01       	movw	r30, r24
    1ef4:	10 81       	ld	r17, Z
    1ef6:	8b 81       	ldd	r24, Y+3	; 0x03
    1ef8:	9c 81       	ldd	r25, Y+4	; 0x04
    1efa:	fc 01       	movw	r30, r24
    1efc:	20 81       	ld	r18, Z
    1efe:	8b 81       	ldd	r24, Y+3	; 0x03
    1f00:	9c 81       	ldd	r25, Y+4	; 0x04
    1f02:	62 2f       	mov	r22, r18
    1f04:	77 da       	rcall	.-2834   	; 0x13f4 <calculate_LRC>
    1f06:	18 17       	cp	r17, r24
    1f08:	a1 f5       	brne	.+104    	; 0x1f72 <parse_uart_data+0xc4>
		{
			uint16_t tmp = pBuf[FUNCT_POS];
    1f0a:	8b 81       	ldd	r24, Y+3	; 0x03
    1f0c:	9c 81       	ldd	r25, Y+4	; 0x04
    1f0e:	02 96       	adiw	r24, 0x02	; 2
    1f10:	fc 01       	movw	r30, r24
    1f12:	80 81       	ld	r24, Z
    1f14:	88 2f       	mov	r24, r24
    1f16:	90 e0       	ldi	r25, 0x00	; 0
    1f18:	9a 83       	std	Y+2, r25	; 0x02
    1f1a:	89 83       	std	Y+1, r24	; 0x01
			switch(pBuf[FUNCT_POS]){
    1f1c:	8b 81       	ldd	r24, Y+3	; 0x03
    1f1e:	9c 81       	ldd	r25, Y+4	; 0x04
    1f20:	02 96       	adiw	r24, 0x02	; 2
    1f22:	fc 01       	movw	r30, r24
    1f24:	80 81       	ld	r24, Z
    1f26:	88 2f       	mov	r24, r24
    1f28:	90 e0       	ldi	r25, 0x00	; 0
    1f2a:	09 2e       	mov	r0, r25
    1f2c:	00 0c       	add	r0, r0
    1f2e:	aa 0b       	sbc	r26, r26
    1f30:	bb 0b       	sbc	r27, r27
    1f32:	41 e0       	ldi	r20, 0x01	; 1
    1f34:	50 e0       	ldi	r21, 0x00	; 0
    1f36:	2f e0       	ldi	r18, 0x0F	; 15
    1f38:	30 e0       	ldi	r19, 0x00	; 0
    1f3a:	84 1b       	sub	r24, r20
    1f3c:	95 0b       	sbc	r25, r21
    1f3e:	28 17       	cp	r18, r24
    1f40:	39 07       	cpc	r19, r25
    1f42:	b8 f0       	brcs	.+46     	; 0x1f72 <parse_uart_data+0xc4>
    1f44:	fc 01       	movw	r30, r24
    1f46:	88 27       	eor	r24, r24
    1f48:	ee 58       	subi	r30, 0x8E	; 142
    1f4a:	ff 4f       	sbci	r31, 0xFF	; 255
    1f4c:	8f 4f       	sbci	r24, 0xFF	; 255
    1f4e:	0c 94 1c 24 	jmp	0x4838	; 0x4838 <__tablejump2__>
					//mod_read_discrete_inputs(pBuf[FUNCT_POS], data);
					break;
				
				case READ_HOLDING_REGISTER:
					//mod_read_holding_register(pBuf[FUNCT_POS],data);
					mod_read_input_register(pBuf);
    1f52:	8b 81       	ldd	r24, Y+3	; 0x03
    1f54:	9c 81       	ldd	r25, Y+4	; 0x04
    1f56:	2d de       	rcall	.-934    	; 0x1bb2 <mod_read_input_register>
					break;
    1f58:	0c c0       	rjmp	.+24     	; 0x1f72 <parse_uart_data+0xc4>
				
				case READ_INPUT_REGISTER:
					mod_read_input_register(pBuf);
    1f5a:	8b 81       	ldd	r24, Y+3	; 0x03
    1f5c:	9c 81       	ldd	r25, Y+4	; 0x04
    1f5e:	29 de       	rcall	.-942    	; 0x1bb2 <mod_read_input_register>
					break;
    1f60:	08 c0       	rjmp	.+16     	; 0x1f72 <parse_uart_data+0xc4>
				
				case WRITE_SINGLE_COILS:
					break;
				
				case WRITE_SINGLE_REGISTER:
					mod_write_single_register(pBuf);
    1f62:	8b 81       	ldd	r24, Y+3	; 0x03
    1f64:	9c 81       	ldd	r25, Y+4	; 0x04
    1f66:	58 db       	rcall	.-2384   	; 0x1618 <mod_write_single_register>
					break;
    1f68:	04 c0       	rjmp	.+8      	; 0x1f72 <parse_uart_data+0xc4>
				
				case WIRTE_MULTIPLE_COILS:
					break;
				
				case WRITE_MULTIPLE_REGISTERS:
					mod_write_multiple_registers(pBuf);
    1f6a:	8b 81       	ldd	r24, Y+3	; 0x03
    1f6c:	9c 81       	ldd	r25, Y+4	; 0x04
    1f6e:	83 dc       	rcall	.-1786   	; 0x1876 <mod_write_multiple_registers>
					break;
    1f70:	00 00       	nop
				//default:
		
			}
		}
	}
}
    1f72:	0f 90       	pop	r0
    1f74:	0f 90       	pop	r0
    1f76:	0f 90       	pop	r0
    1f78:	0f 90       	pop	r0
    1f7a:	df 91       	pop	r29
    1f7c:	cf 91       	pop	r28
    1f7e:	1f 91       	pop	r17
    1f80:	08 95       	ret

00001f82 <disableAllHeater>:
void init_temperature_control(){
	createGenericTable(temptable_generic1,GENERIC_THERM1_MIN_TEMP, GENERIC_THERM1_MAX_TEMP, GENERIC_THERM1_BETA, GENERIC_THERM1_R0, GENERIC_THERM1_T0, GENERIC_THERM1_R1, GENERIC_THERM1_R2);
	for(uint8_t tmpContr = 0; tmpContr<ANALOG_INPUTS; tmpContr++){
		initTempControler(&tempController[tmpContr],tmpContr);
	}	
}
    1f82:	cf 93       	push	r28
    1f84:	df 93       	push	r29
    1f86:	1f 92       	push	r1
    1f88:	cd b7       	in	r28, 0x3d	; 61
    1f8a:	de b7       	in	r29, 0x3e	; 62
    1f8c:	19 82       	std	Y+1, r1	; 0x01
    1f8e:	34 c0       	rjmp	.+104    	; 0x1ff8 <disableAllHeater+0x76>
    1f90:	89 81       	ldd	r24, Y+1	; 0x01
    1f92:	28 2f       	mov	r18, r24
    1f94:	30 e0       	ldi	r19, 0x00	; 0
    1f96:	42 e4       	ldi	r20, 0x42	; 66
    1f98:	42 9f       	mul	r20, r18
    1f9a:	c0 01       	movw	r24, r0
    1f9c:	43 9f       	mul	r20, r19
    1f9e:	90 0d       	add	r25, r0
    1fa0:	11 24       	eor	r1, r1
    1fa2:	83 55       	subi	r24, 0x53	; 83
    1fa4:	96 4f       	sbci	r25, 0xF6	; 246
    1fa6:	fc 01       	movw	r30, r24
    1fa8:	10 82       	st	Z, r1
    1faa:	11 82       	std	Z+1, r1	; 0x01
    1fac:	12 82       	std	Z+2, r1	; 0x02
    1fae:	13 82       	std	Z+3, r1	; 0x03
    1fb0:	89 81       	ldd	r24, Y+1	; 0x01
    1fb2:	28 2f       	mov	r18, r24
    1fb4:	30 e0       	ldi	r19, 0x00	; 0
    1fb6:	42 e4       	ldi	r20, 0x42	; 66
    1fb8:	42 9f       	mul	r20, r18
    1fba:	c0 01       	movw	r24, r0
    1fbc:	43 9f       	mul	r20, r19
    1fbe:	90 0d       	add	r25, r0
    1fc0:	11 24       	eor	r1, r1
    1fc2:	89 55       	subi	r24, 0x59	; 89
    1fc4:	96 4f       	sbci	r25, 0xF6	; 246
    1fc6:	fc 01       	movw	r30, r24
    1fc8:	11 82       	std	Z+1, r1	; 0x01
    1fca:	10 82       	st	Z, r1
    1fcc:	89 81       	ldd	r24, Y+1	; 0x01
    1fce:	28 2f       	mov	r18, r24
    1fd0:	30 e0       	ldi	r19, 0x00	; 0
    1fd2:	42 e4       	ldi	r20, 0x42	; 66
    1fd4:	42 9f       	mul	r20, r18
    1fd6:	c0 01       	movw	r24, r0
    1fd8:	43 9f       	mul	r20, r19
    1fda:	90 0d       	add	r25, r0
    1fdc:	11 24       	eor	r1, r1
    1fde:	8f 55       	subi	r24, 0x5F	; 95
    1fe0:	96 4f       	sbci	r25, 0xF6	; 246
    1fe2:	fc 01       	movw	r30, r24
    1fe4:	80 81       	ld	r24, Z
    1fe6:	88 2f       	mov	r24, r24
    1fe8:	90 e0       	ldi	r25, 0x00	; 0
    1fea:	82 5a       	subi	r24, 0xA2	; 162
    1fec:	97 4f       	sbci	r25, 0xF7	; 247
    1fee:	fc 01       	movw	r30, r24
    1ff0:	10 82       	st	Z, r1
    1ff2:	89 81       	ldd	r24, Y+1	; 0x01
    1ff4:	8f 5f       	subi	r24, 0xFF	; 255
    1ff6:	89 83       	std	Y+1, r24	; 0x01
    1ff8:	89 81       	ldd	r24, Y+1	; 0x01
    1ffa:	88 30       	cpi	r24, 0x08	; 8
    1ffc:	48 f2       	brcs	.-110    	; 0x1f90 <disableAllHeater+0xe>
    1ffe:	8f ef       	ldi	r24, 0xFF	; 255
    2000:	80 93 04 02 	sts	0x0204, r24	; 0x800204 <autotuneIndex>
    2004:	0f 90       	pop	r0
    2006:	df 91       	pop	r29
    2008:	cf 91       	pop	r28
    200a:	08 95       	ret

0000200c <setTargetTemperature>:



void setTargetTemperature(struct TemperatureController *temperatureCont, uint16_t tar)
{
    200c:	ef 92       	push	r14
    200e:	ff 92       	push	r15
    2010:	0f 93       	push	r16
    2012:	1f 93       	push	r17
    2014:	cf 93       	push	r28
    2016:	df 93       	push	r29
    2018:	cd b7       	in	r28, 0x3d	; 61
    201a:	de b7       	in	r29, 0x3e	; 62
    201c:	ee 97       	sbiw	r28, 0x3e	; 62
    201e:	0f b6       	in	r0, 0x3f	; 63
    2020:	f8 94       	cli
    2022:	de bf       	out	0x3e, r29	; 62
    2024:	0f be       	out	0x3f, r0	; 63
    2026:	cd bf       	out	0x3d, r28	; 61
    2028:	98 a7       	std	Y+40, r25	; 0x28
    202a:	8f a3       	std	Y+39, r24	; 0x27
    202c:	7a a7       	std	Y+42, r23	; 0x2a
    202e:	69 a7       	std	Y+41, r22	; 0x29
	temperatureCont->targetTemperatureC = (float)tar/100.0f;
    2030:	89 a5       	ldd	r24, Y+41	; 0x29
    2032:	9a a5       	ldd	r25, Y+42	; 0x2a
    2034:	cc 01       	movw	r24, r24
    2036:	a0 e0       	ldi	r26, 0x00	; 0
    2038:	b0 e0       	ldi	r27, 0x00	; 0
    203a:	bc 01       	movw	r22, r24
    203c:	cd 01       	movw	r24, r26
    203e:	0e 94 b6 22 	call	0x456c	; 0x456c <__floatunsisf>
    2042:	dc 01       	movw	r26, r24
    2044:	cb 01       	movw	r24, r22
    2046:	20 e0       	ldi	r18, 0x00	; 0
    2048:	30 e0       	ldi	r19, 0x00	; 0
    204a:	48 ec       	ldi	r20, 0xC8	; 200
    204c:	52 e4       	ldi	r21, 0x42	; 66
    204e:	bc 01       	movw	r22, r24
    2050:	cd 01       	movw	r24, r26
    2052:	0e 94 1d 22 	call	0x443a	; 0x443a <__divsf3>
    2056:	dc 01       	movw	r26, r24
    2058:	cb 01       	movw	r24, r22
    205a:	2f a1       	ldd	r18, Y+39	; 0x27
    205c:	38 a5       	ldd	r19, Y+40	; 0x28
    205e:	f9 01       	movw	r30, r18
    2060:	84 87       	std	Z+12, r24	; 0x0c
    2062:	95 87       	std	Z+13, r25	; 0x0d
    2064:	a6 87       	std	Z+14, r26	; 0x0e
    2066:	b7 87       	std	Z+15, r27	; 0x0f
	int temp = TEMP_FLOAT_TO_INT(temperatureCont->targetTemperatureC);
    2068:	8f a1       	ldd	r24, Y+39	; 0x27
    206a:	98 a5       	ldd	r25, Y+40	; 0x28
    206c:	fc 01       	movw	r30, r24
    206e:	84 85       	ldd	r24, Z+12	; 0x0c
    2070:	95 85       	ldd	r25, Z+13	; 0x0d
    2072:	a6 85       	ldd	r26, Z+14	; 0x0e
    2074:	b7 85       	ldd	r27, Z+15	; 0x0f
    2076:	20 e0       	ldi	r18, 0x00	; 0
    2078:	30 e0       	ldi	r19, 0x00	; 0
    207a:	40 e0       	ldi	r20, 0x00	; 0
    207c:	51 e4       	ldi	r21, 0x41	; 65
    207e:	bc 01       	movw	r22, r24
    2080:	cd 01       	movw	r24, r26
    2082:	0e 94 6c 23 	call	0x46d8	; 0x46d8 <__mulsf3>
    2086:	dc 01       	movw	r26, r24
    2088:	cb 01       	movw	r24, r22
    208a:	bc 01       	movw	r22, r24
    208c:	cd 01       	movw	r24, r26
    208e:	0e 94 85 22 	call	0x450a	; 0x450a <__fixsfsi>
    2092:	dc 01       	movw	r26, r24
    2094:	cb 01       	movw	r24, r22
    2096:	9a 8f       	std	Y+26, r25	; 0x1a
    2098:	89 8f       	std	Y+25, r24	; 0x19
	uint8_t type = temperatureCont->sensorType;
    209a:	8f a1       	ldd	r24, Y+39	; 0x27
    209c:	98 a5       	ldd	r25, Y+40	; 0x28
    209e:	fc 01       	movw	r30, r24
    20a0:	82 81       	ldd	r24, Z+2	; 0x02
    20a2:	89 83       	std	Y+1, r24	; 0x01
	switch(temperatureCont->sensorType)
    20a4:	8f a1       	ldd	r24, Y+39	; 0x27
    20a6:	98 a5       	ldd	r25, Y+40	; 0x28
    20a8:	fc 01       	movw	r30, r24
    20aa:	82 81       	ldd	r24, Z+2	; 0x02
    20ac:	88 2f       	mov	r24, r24
    20ae:	90 e0       	ldi	r25, 0x00	; 0
    20b0:	8c 33       	cpi	r24, 0x3C	; 60
    20b2:	91 05       	cpc	r25, r1
    20b4:	09 f4       	brne	.+2      	; 0x20b8 <setTargetTemperature+0xac>
    20b6:	77 c1       	rjmp	.+750    	; 0x23a6 <__stack+0x1a7>
    20b8:	8d 33       	cpi	r24, 0x3D	; 61
    20ba:	91 05       	cpc	r25, r1
    20bc:	64 f4       	brge	.+24     	; 0x20d6 <setTargetTemperature+0xca>
    20be:	81 30       	cpi	r24, 0x01	; 1
    20c0:	91 05       	cpc	r25, r1
    20c2:	0c f4       	brge	.+2      	; 0x20c6 <setTargetTemperature+0xba>
    20c4:	4f c2       	rjmp	.+1182   	; 0x2564 <__stack+0x365>
    20c6:	8d 30       	cpi	r24, 0x0D	; 13
    20c8:	91 05       	cpc	r25, r1
    20ca:	cc f0       	brlt	.+50     	; 0x20fe <setTargetTemperature+0xf2>
    20cc:	c2 97       	sbiw	r24, 0x32	; 50
    20ce:	03 97       	sbiw	r24, 0x03	; 3
    20d0:	08 f0       	brcs	.+2      	; 0x20d4 <setTargetTemperature+0xc8>
    20d2:	48 c2       	rjmp	.+1168   	; 0x2564 <__stack+0x365>
    20d4:	c5 c0       	rjmp	.+394    	; 0x2260 <__stack+0x61>
    20d6:	84 36       	cpi	r24, 0x64	; 100
    20d8:	91 05       	cpc	r25, r1
    20da:	09 f4       	brne	.+2      	; 0x20de <setTargetTemperature+0xd2>
    20dc:	84 c1       	rjmp	.+776    	; 0x23e6 <__stack+0x1e7>
    20de:	85 36       	cpi	r24, 0x65	; 101
    20e0:	91 05       	cpc	r25, r1
    20e2:	2c f4       	brge	.+10     	; 0x20ee <setTargetTemperature+0xe2>
    20e4:	81 36       	cpi	r24, 0x61	; 97
    20e6:	91 05       	cpc	r25, r1
    20e8:	0c f4       	brge	.+2      	; 0x20ec <setTargetTemperature+0xe0>
    20ea:	3c c2       	rjmp	.+1144   	; 0x2564 <__stack+0x365>
    20ec:	9c c1       	rjmp	.+824    	; 0x2426 <__stack+0x227>
    20ee:	8b 3c       	cpi	r24, 0xCB	; 203
    20f0:	91 05       	cpc	r25, r1
    20f2:	09 f4       	brne	.+2      	; 0x20f6 <setTargetTemperature+0xea>
    20f4:	98 c1       	rjmp	.+816    	; 0x2426 <__stack+0x227>
    20f6:	8c 3c       	cpi	r24, 0xCC	; 204
    20f8:	91 05       	cpc	r25, r1
    20fa:	09 f0       	breq	.+2      	; 0x20fe <setTargetTemperature+0xf2>
    20fc:	33 c2       	rjmp	.+1126   	; 0x2564 <__stack+0x365>
		case 10:
		case 11:
		case 12:
		case 204:
	    {
		    if (type == 204)
    20fe:	89 81       	ldd	r24, Y+1	; 0x01
    2100:	8c 3c       	cpi	r24, 0xCC	; 204
    2102:	11 f4       	brne	.+4      	; 0x2108 <setTargetTemperature+0xfc>
		    {
			    type = 8;
    2104:	88 e0       	ldi	r24, 0x08	; 8
    2106:	89 83       	std	Y+1, r24	; 0x01
		    }
		    type--;
    2108:	89 81       	ldd	r24, Y+1	; 0x01
    210a:	81 50       	subi	r24, 0x01	; 1
    210c:	89 83       	std	Y+1, r24	; 0x01
			uint8_t num = pgm_read_byte(&temptables_num[type])<<1;
    210e:	89 81       	ldd	r24, Y+1	; 0x01
    2110:	88 2f       	mov	r24, r24
    2112:	90 e0       	ldi	r25, 0x00	; 0
    2114:	86 55       	subi	r24, 0x56	; 86
    2116:	98 4f       	sbci	r25, 0xF8	; 248
    2118:	fc 01       	movw	r30, r24
    211a:	80 81       	ld	r24, Z
    211c:	88 0f       	add	r24, r24
    211e:	8b 8f       	std	Y+27, r24	; 0x1b
			uint8_t i=2;
    2120:	82 e0       	ldi	r24, 0x02	; 2
    2122:	8a 83       	std	Y+2, r24	; 0x02
			const short *temptable = (const short *)pgm_read_word(&temptables[type]); //pgm_read_word(&temptables[type]);
    2124:	89 81       	ldd	r24, Y+1	; 0x01
    2126:	88 2f       	mov	r24, r24
    2128:	90 e0       	ldi	r25, 0x00	; 0
    212a:	88 0f       	add	r24, r24
    212c:	99 1f       	adc	r25, r25
    212e:	82 57       	subi	r24, 0x72	; 114
    2130:	98 4f       	sbci	r25, 0xF8	; 248
    2132:	fc 01       	movw	r30, r24
    2134:	80 81       	ld	r24, Z
    2136:	91 81       	ldd	r25, Z+1	; 0x01
    2138:	9d 8f       	std	Y+29, r25	; 0x1d
    213a:	8c 8f       	std	Y+28, r24	; 0x1c
			short oldraw = pgm_read_word(&temptable[0]);
    213c:	8c 8d       	ldd	r24, Y+28	; 0x1c
    213e:	9d 8d       	ldd	r25, Y+29	; 0x1d
    2140:	fc 01       	movw	r30, r24
    2142:	80 81       	ld	r24, Z
    2144:	91 81       	ldd	r25, Z+1	; 0x01
    2146:	9c 83       	std	Y+4, r25	; 0x04
    2148:	8b 83       	std	Y+3, r24	; 0x03
			short oldtemp = pgm_read_word(&temptable[1]);
    214a:	8c 8d       	ldd	r24, Y+28	; 0x1c
    214c:	9d 8d       	ldd	r25, Y+29	; 0x1d
    214e:	fc 01       	movw	r30, r24
    2150:	82 81       	ldd	r24, Z+2	; 0x02
    2152:	93 81       	ldd	r25, Z+3	; 0x03
    2154:	9e 83       	std	Y+6, r25	; 0x06
    2156:	8d 83       	std	Y+5, r24	; 0x05
			short newraw,newtemp;
			while(i<num)
    2158:	72 c0       	rjmp	.+228    	; 0x223e <__stack+0x3f>
			{
				newraw = pgm_read_word(&temptable[i++]);
    215a:	8a 81       	ldd	r24, Y+2	; 0x02
    215c:	91 e0       	ldi	r25, 0x01	; 1
    215e:	98 0f       	add	r25, r24
    2160:	9a 83       	std	Y+2, r25	; 0x02
    2162:	88 2f       	mov	r24, r24
    2164:	90 e0       	ldi	r25, 0x00	; 0
    2166:	88 0f       	add	r24, r24
    2168:	99 1f       	adc	r25, r25
    216a:	2c 8d       	ldd	r18, Y+28	; 0x1c
    216c:	3d 8d       	ldd	r19, Y+29	; 0x1d
    216e:	82 0f       	add	r24, r18
    2170:	93 1f       	adc	r25, r19
    2172:	fc 01       	movw	r30, r24
    2174:	80 81       	ld	r24, Z
    2176:	91 81       	ldd	r25, Z+1	; 0x01
    2178:	98 87       	std	Y+8, r25	; 0x08
    217a:	8f 83       	std	Y+7, r24	; 0x07
				newtemp = pgm_read_word(&temptable[i++]);
    217c:	8a 81       	ldd	r24, Y+2	; 0x02
    217e:	91 e0       	ldi	r25, 0x01	; 1
    2180:	98 0f       	add	r25, r24
    2182:	9a 83       	std	Y+2, r25	; 0x02
    2184:	88 2f       	mov	r24, r24
    2186:	90 e0       	ldi	r25, 0x00	; 0
    2188:	88 0f       	add	r24, r24
    218a:	99 1f       	adc	r25, r25
    218c:	2c 8d       	ldd	r18, Y+28	; 0x1c
    218e:	3d 8d       	ldd	r19, Y+29	; 0x1d
    2190:	82 0f       	add	r24, r18
    2192:	93 1f       	adc	r25, r19
    2194:	fc 01       	movw	r30, r24
    2196:	80 81       	ld	r24, Z
    2198:	91 81       	ldd	r25, Z+1	; 0x01
    219a:	9f 8f       	std	Y+31, r25	; 0x1f
    219c:	8e 8f       	std	Y+30, r24	; 0x1e
				if (newtemp < temp)
    219e:	2e 8d       	ldd	r18, Y+30	; 0x1e
    21a0:	3f 8d       	ldd	r19, Y+31	; 0x1f
    21a2:	89 8d       	ldd	r24, Y+25	; 0x19
    21a4:	9a 8d       	ldd	r25, Y+26	; 0x1a
    21a6:	28 17       	cp	r18, r24
    21a8:	39 07       	cpc	r19, r25
    21aa:	0c f0       	brlt	.+2      	; 0x21ae <setTargetTemperature+0x1a2>
    21ac:	40 c0       	rjmp	.+128    	; 0x222e <__stack+0x2f>
				{
					temperatureCont->targetTemperature = (1023<<(2-ANALOG_REDUCE_BITS))- oldraw + (int32_t)(oldtemp-temp)*(int32_t)(oldraw-newraw)/(oldtemp-newtemp);
    21ae:	2d 81       	ldd	r18, Y+5	; 0x05
    21b0:	3e 81       	ldd	r19, Y+6	; 0x06
    21b2:	89 8d       	ldd	r24, Y+25	; 0x19
    21b4:	9a 8d       	ldd	r25, Y+26	; 0x1a
    21b6:	a9 01       	movw	r20, r18
    21b8:	48 1b       	sub	r20, r24
    21ba:	59 0b       	sbc	r21, r25
    21bc:	ca 01       	movw	r24, r20
    21be:	9c 01       	movw	r18, r24
    21c0:	99 0f       	add	r25, r25
    21c2:	44 0b       	sbc	r20, r20
    21c4:	55 0b       	sbc	r21, r21
    21c6:	6b 81       	ldd	r22, Y+3	; 0x03
    21c8:	7c 81       	ldd	r23, Y+4	; 0x04
    21ca:	8f 81       	ldd	r24, Y+7	; 0x07
    21cc:	98 85       	ldd	r25, Y+8	; 0x08
    21ce:	fb 01       	movw	r30, r22
    21d0:	e8 1b       	sub	r30, r24
    21d2:	f9 0b       	sbc	r31, r25
    21d4:	cf 01       	movw	r24, r30
    21d6:	09 2e       	mov	r0, r25
    21d8:	00 0c       	add	r0, r0
    21da:	aa 0b       	sbc	r26, r26
    21dc:	bb 0b       	sbc	r27, r27
    21de:	bc 01       	movw	r22, r24
    21e0:	cd 01       	movw	r24, r26
    21e2:	0e 94 cf 23 	call	0x479e	; 0x479e <__mulsi3>
    21e6:	7b 01       	movw	r14, r22
    21e8:	8c 01       	movw	r16, r24
    21ea:	2d 81       	ldd	r18, Y+5	; 0x05
    21ec:	3e 81       	ldd	r19, Y+6	; 0x06
    21ee:	8e 8d       	ldd	r24, Y+30	; 0x1e
    21f0:	9f 8d       	ldd	r25, Y+31	; 0x1f
    21f2:	a9 01       	movw	r20, r18
    21f4:	48 1b       	sub	r20, r24
    21f6:	59 0b       	sbc	r21, r25
    21f8:	ca 01       	movw	r24, r20
    21fa:	9c 01       	movw	r18, r24
    21fc:	99 0f       	add	r25, r25
    21fe:	44 0b       	sbc	r20, r20
    2200:	55 0b       	sbc	r21, r21
    2202:	c8 01       	movw	r24, r16
    2204:	b7 01       	movw	r22, r14
    2206:	0e 94 00 24 	call	0x4800	; 0x4800 <__divmodsi4>
    220a:	da 01       	movw	r26, r20
    220c:	c9 01       	movw	r24, r18
    220e:	9c 01       	movw	r18, r24
    2210:	8b 81       	ldd	r24, Y+3	; 0x03
    2212:	9c 81       	ldd	r25, Y+4	; 0x04
    2214:	f9 01       	movw	r30, r18
    2216:	e8 1b       	sub	r30, r24
    2218:	f9 0b       	sbc	r31, r25
    221a:	cf 01       	movw	r24, r30
    221c:	84 50       	subi	r24, 0x04	; 4
    221e:	90 4f       	sbci	r25, 0xF0	; 240
    2220:	9c 01       	movw	r18, r24
    2222:	8f a1       	ldd	r24, Y+39	; 0x27
    2224:	98 a5       	ldd	r25, Y+40	; 0x28
    2226:	fc 01       	movw	r30, r24
    2228:	37 83       	std	Z+7, r19	; 0x07
    222a:	26 83       	std	Z+6, r18	; 0x06
					return 1;
    222c:	9b c1       	rjmp	.+822    	; 0x2564 <__stack+0x365>
				}
				oldtemp = newtemp;
    222e:	8e 8d       	ldd	r24, Y+30	; 0x1e
    2230:	9f 8d       	ldd	r25, Y+31	; 0x1f
    2232:	9e 83       	std	Y+6, r25	; 0x06
    2234:	8d 83       	std	Y+5, r24	; 0x05
				oldraw = newraw;
    2236:	8f 81       	ldd	r24, Y+7	; 0x07
    2238:	98 85       	ldd	r25, Y+8	; 0x08
    223a:	9c 83       	std	Y+4, r25	; 0x04
    223c:	8b 83       	std	Y+3, r24	; 0x03
			uint8_t i=2;
			const short *temptable = (const short *)pgm_read_word(&temptables[type]); //pgm_read_word(&temptables[type]);
			short oldraw = pgm_read_word(&temptable[0]);
			short oldtemp = pgm_read_word(&temptable[1]);
			short newraw,newtemp;
			while(i<num)
    223e:	9a 81       	ldd	r25, Y+2	; 0x02
    2240:	8b 8d       	ldd	r24, Y+27	; 0x1b
    2242:	98 17       	cp	r25, r24
    2244:	08 f4       	brcc	.+2      	; 0x2248 <__stack+0x49>
    2246:	89 cf       	rjmp	.-238    	; 0x215a <setTargetTemperature+0x14e>
				}
				oldtemp = newtemp;
				oldraw = newraw;
			}
			// Overflow: Set to last value in the table
			temperatureCont->targetTemperature = (1023<<(2-ANALOG_REDUCE_BITS))-newraw;
    2248:	2c ef       	ldi	r18, 0xFC	; 252
    224a:	3f e0       	ldi	r19, 0x0F	; 15
    224c:	8f 81       	ldd	r24, Y+7	; 0x07
    224e:	98 85       	ldd	r25, Y+8	; 0x08
    2250:	28 1b       	sub	r18, r24
    2252:	39 0b       	sbc	r19, r25
    2254:	8f a1       	ldd	r24, Y+39	; 0x27
    2256:	98 a5       	ldd	r25, Y+40	; 0x28
    2258:	fc 01       	movw	r30, r24
    225a:	37 83       	std	Z+7, r19	; 0x07
    225c:	26 83       	std	Z+6, r18	; 0x06
			break;
    225e:	82 c1       	rjmp	.+772    	; 0x2564 <__stack+0x365>
		}
		case 50: // user defined PTC thermistor
		case 51:
		case 52:
		{
			type-=46;
    2260:	89 81       	ldd	r24, Y+1	; 0x01
    2262:	8e 52       	subi	r24, 0x2E	; 46
    2264:	89 83       	std	Y+1, r24	; 0x01
			uint8_t num = pgm_read_byte(&temptables_num[type])<<1;
    2266:	89 81       	ldd	r24, Y+1	; 0x01
    2268:	88 2f       	mov	r24, r24
    226a:	90 e0       	ldi	r25, 0x00	; 0
    226c:	86 55       	subi	r24, 0x56	; 86
    226e:	98 4f       	sbci	r25, 0xF8	; 248
    2270:	fc 01       	movw	r30, r24
    2272:	80 81       	ld	r24, Z
    2274:	88 0f       	add	r24, r24
    2276:	88 a3       	std	Y+32, r24	; 0x20
			uint8_t i=2;
    2278:	82 e0       	ldi	r24, 0x02	; 2
    227a:	89 87       	std	Y+9, r24	; 0x09
			const short *temptable = (const short *)pgm_read_word(&temptables[type]); //pgm_read_word(&temptables[type]);
    227c:	89 81       	ldd	r24, Y+1	; 0x01
    227e:	88 2f       	mov	r24, r24
    2280:	90 e0       	ldi	r25, 0x00	; 0
    2282:	88 0f       	add	r24, r24
    2284:	99 1f       	adc	r25, r25
    2286:	82 57       	subi	r24, 0x72	; 114
    2288:	98 4f       	sbci	r25, 0xF8	; 248
    228a:	fc 01       	movw	r30, r24
    228c:	80 81       	ld	r24, Z
    228e:	91 81       	ldd	r25, Z+1	; 0x01
    2290:	9a a3       	std	Y+34, r25	; 0x22
    2292:	89 a3       	std	Y+33, r24	; 0x21
			short oldraw = pgm_read_word(&temptable[0]);
    2294:	89 a1       	ldd	r24, Y+33	; 0x21
    2296:	9a a1       	ldd	r25, Y+34	; 0x22
    2298:	fc 01       	movw	r30, r24
    229a:	80 81       	ld	r24, Z
    229c:	91 81       	ldd	r25, Z+1	; 0x01
    229e:	9b 87       	std	Y+11, r25	; 0x0b
    22a0:	8a 87       	std	Y+10, r24	; 0x0a
			short oldtemp = pgm_read_word(&temptable[1]);
    22a2:	89 a1       	ldd	r24, Y+33	; 0x21
    22a4:	9a a1       	ldd	r25, Y+34	; 0x22
    22a6:	fc 01       	movw	r30, r24
    22a8:	82 81       	ldd	r24, Z+2	; 0x02
    22aa:	93 81       	ldd	r25, Z+3	; 0x03
    22ac:	9d 87       	std	Y+13, r25	; 0x0d
    22ae:	8c 87       	std	Y+12, r24	; 0x0c
			short newraw,newtemp;
			while(i<num)
    22b0:	6d c0       	rjmp	.+218    	; 0x238c <__stack+0x18d>
			{
				newraw = pgm_read_word(&temptable[i++]);
    22b2:	89 85       	ldd	r24, Y+9	; 0x09
    22b4:	91 e0       	ldi	r25, 0x01	; 1
    22b6:	98 0f       	add	r25, r24
    22b8:	99 87       	std	Y+9, r25	; 0x09
    22ba:	88 2f       	mov	r24, r24
    22bc:	90 e0       	ldi	r25, 0x00	; 0
    22be:	88 0f       	add	r24, r24
    22c0:	99 1f       	adc	r25, r25
    22c2:	29 a1       	ldd	r18, Y+33	; 0x21
    22c4:	3a a1       	ldd	r19, Y+34	; 0x22
    22c6:	82 0f       	add	r24, r18
    22c8:	93 1f       	adc	r25, r19
    22ca:	fc 01       	movw	r30, r24
    22cc:	80 81       	ld	r24, Z
    22ce:	91 81       	ldd	r25, Z+1	; 0x01
    22d0:	9f 87       	std	Y+15, r25	; 0x0f
    22d2:	8e 87       	std	Y+14, r24	; 0x0e
				newtemp = pgm_read_word(&temptable[i++]);
    22d4:	89 85       	ldd	r24, Y+9	; 0x09
    22d6:	91 e0       	ldi	r25, 0x01	; 1
    22d8:	98 0f       	add	r25, r24
    22da:	99 87       	std	Y+9, r25	; 0x09
    22dc:	88 2f       	mov	r24, r24
    22de:	90 e0       	ldi	r25, 0x00	; 0
    22e0:	88 0f       	add	r24, r24
    22e2:	99 1f       	adc	r25, r25
    22e4:	29 a1       	ldd	r18, Y+33	; 0x21
    22e6:	3a a1       	ldd	r19, Y+34	; 0x22
    22e8:	82 0f       	add	r24, r18
    22ea:	93 1f       	adc	r25, r19
    22ec:	fc 01       	movw	r30, r24
    22ee:	80 81       	ld	r24, Z
    22f0:	91 81       	ldd	r25, Z+1	; 0x01
    22f2:	9c a3       	std	Y+36, r25	; 0x24
    22f4:	8b a3       	std	Y+35, r24	; 0x23
				if (newtemp > temp)
    22f6:	2b a1       	ldd	r18, Y+35	; 0x23
    22f8:	3c a1       	ldd	r19, Y+36	; 0x24
    22fa:	89 8d       	ldd	r24, Y+25	; 0x19
    22fc:	9a 8d       	ldd	r25, Y+26	; 0x1a
    22fe:	82 17       	cp	r24, r18
    2300:	93 07       	cpc	r25, r19
    2302:	e4 f5       	brge	.+120    	; 0x237c <__stack+0x17d>
				{
					temperatureCont->targetTemperature = oldraw + (int32_t)(oldtemp-temp)*(int32_t)(oldraw-newraw)/(oldtemp-newtemp);
    2304:	2c 85       	ldd	r18, Y+12	; 0x0c
    2306:	3d 85       	ldd	r19, Y+13	; 0x0d
    2308:	89 8d       	ldd	r24, Y+25	; 0x19
    230a:	9a 8d       	ldd	r25, Y+26	; 0x1a
    230c:	a9 01       	movw	r20, r18
    230e:	48 1b       	sub	r20, r24
    2310:	59 0b       	sbc	r21, r25
    2312:	ca 01       	movw	r24, r20
    2314:	9c 01       	movw	r18, r24
    2316:	99 0f       	add	r25, r25
    2318:	44 0b       	sbc	r20, r20
    231a:	55 0b       	sbc	r21, r21
    231c:	6a 85       	ldd	r22, Y+10	; 0x0a
    231e:	7b 85       	ldd	r23, Y+11	; 0x0b
    2320:	8e 85       	ldd	r24, Y+14	; 0x0e
    2322:	9f 85       	ldd	r25, Y+15	; 0x0f
    2324:	fb 01       	movw	r30, r22
    2326:	e8 1b       	sub	r30, r24
    2328:	f9 0b       	sbc	r31, r25
    232a:	cf 01       	movw	r24, r30
    232c:	09 2e       	mov	r0, r25
    232e:	00 0c       	add	r0, r0
    2330:	aa 0b       	sbc	r26, r26
    2332:	bb 0b       	sbc	r27, r27
    2334:	bc 01       	movw	r22, r24
    2336:	cd 01       	movw	r24, r26
    2338:	0e 94 cf 23 	call	0x479e	; 0x479e <__mulsi3>
    233c:	7b 01       	movw	r14, r22
    233e:	8c 01       	movw	r16, r24
    2340:	2c 85       	ldd	r18, Y+12	; 0x0c
    2342:	3d 85       	ldd	r19, Y+13	; 0x0d
    2344:	8b a1       	ldd	r24, Y+35	; 0x23
    2346:	9c a1       	ldd	r25, Y+36	; 0x24
    2348:	a9 01       	movw	r20, r18
    234a:	48 1b       	sub	r20, r24
    234c:	59 0b       	sbc	r21, r25
    234e:	ca 01       	movw	r24, r20
    2350:	9c 01       	movw	r18, r24
    2352:	99 0f       	add	r25, r25
    2354:	44 0b       	sbc	r20, r20
    2356:	55 0b       	sbc	r21, r21
    2358:	c8 01       	movw	r24, r16
    235a:	b7 01       	movw	r22, r14
    235c:	0e 94 00 24 	call	0x4800	; 0x4800 <__divmodsi4>
    2360:	da 01       	movw	r26, r20
    2362:	c9 01       	movw	r24, r18
    2364:	9c 01       	movw	r18, r24
    2366:	8a 85       	ldd	r24, Y+10	; 0x0a
    2368:	9b 85       	ldd	r25, Y+11	; 0x0b
    236a:	82 0f       	add	r24, r18
    236c:	93 1f       	adc	r25, r19
    236e:	9c 01       	movw	r18, r24
    2370:	8f a1       	ldd	r24, Y+39	; 0x27
    2372:	98 a5       	ldd	r25, Y+40	; 0x28
    2374:	fc 01       	movw	r30, r24
    2376:	37 83       	std	Z+7, r19	; 0x07
    2378:	26 83       	std	Z+6, r18	; 0x06
					return 1;
    237a:	f4 c0       	rjmp	.+488    	; 0x2564 <__stack+0x365>
				}
				oldtemp = newtemp;
    237c:	8b a1       	ldd	r24, Y+35	; 0x23
    237e:	9c a1       	ldd	r25, Y+36	; 0x24
    2380:	9d 87       	std	Y+13, r25	; 0x0d
    2382:	8c 87       	std	Y+12, r24	; 0x0c
				oldraw = newraw;
    2384:	8e 85       	ldd	r24, Y+14	; 0x0e
    2386:	9f 85       	ldd	r25, Y+15	; 0x0f
    2388:	9b 87       	std	Y+11, r25	; 0x0b
    238a:	8a 87       	std	Y+10, r24	; 0x0a
			uint8_t i=2;
			const short *temptable = (const short *)pgm_read_word(&temptables[type]); //pgm_read_word(&temptables[type]);
			short oldraw = pgm_read_word(&temptable[0]);
			short oldtemp = pgm_read_word(&temptable[1]);
			short newraw,newtemp;
			while(i<num)
    238c:	99 85       	ldd	r25, Y+9	; 0x09
    238e:	88 a1       	ldd	r24, Y+32	; 0x20
    2390:	98 17       	cp	r25, r24
    2392:	08 f4       	brcc	.+2      	; 0x2396 <__stack+0x197>
    2394:	8e cf       	rjmp	.-228    	; 0x22b2 <__stack+0xb3>
				}
				oldtemp = newtemp;
				oldraw = newraw;
			}
			// Overflow: Set to last value in the table
			temperatureCont->targetTemperature = newraw;
    2396:	8f a1       	ldd	r24, Y+39	; 0x27
    2398:	98 a5       	ldd	r25, Y+40	; 0x28
    239a:	2e 85       	ldd	r18, Y+14	; 0x0e
    239c:	3f 85       	ldd	r19, Y+15	; 0x0f
    239e:	fc 01       	movw	r30, r24
    23a0:	37 83       	std	Z+7, r19	; 0x07
    23a2:	26 83       	std	Z+6, r18	; 0x06
			break;
    23a4:	df c0       	rjmp	.+446    	; 0x2564 <__stack+0x365>
		}
		case 60: // HEATER_USES_AD8495 (Delivers 5mV/degC)
		temperatureCont->targetTemperature = (int)((int32_t)temp * (1024<<(2-ANALOG_REDUCE_BITS))/ 1000);
    23a6:	89 8d       	ldd	r24, Y+25	; 0x19
    23a8:	9a 8d       	ldd	r25, Y+26	; 0x1a
    23aa:	09 2e       	mov	r0, r25
    23ac:	00 0c       	add	r0, r0
    23ae:	aa 0b       	sbc	r26, r26
    23b0:	bb 0b       	sbc	r27, r27
    23b2:	07 2e       	mov	r0, r23
    23b4:	7c e0       	ldi	r23, 0x0C	; 12
    23b6:	88 0f       	add	r24, r24
    23b8:	99 1f       	adc	r25, r25
    23ba:	aa 1f       	adc	r26, r26
    23bc:	bb 1f       	adc	r27, r27
    23be:	7a 95       	dec	r23
    23c0:	d1 f7       	brne	.-12     	; 0x23b6 <__stack+0x1b7>
    23c2:	70 2d       	mov	r23, r0
    23c4:	28 ee       	ldi	r18, 0xE8	; 232
    23c6:	33 e0       	ldi	r19, 0x03	; 3
    23c8:	40 e0       	ldi	r20, 0x00	; 0
    23ca:	50 e0       	ldi	r21, 0x00	; 0
    23cc:	bc 01       	movw	r22, r24
    23ce:	cd 01       	movw	r24, r26
    23d0:	0e 94 00 24 	call	0x4800	; 0x4800 <__divmodsi4>
    23d4:	da 01       	movw	r26, r20
    23d6:	c9 01       	movw	r24, r18
    23d8:	9c 01       	movw	r18, r24
    23da:	8f a1       	ldd	r24, Y+39	; 0x27
    23dc:	98 a5       	ldd	r25, Y+40	; 0x28
    23de:	fc 01       	movw	r30, r24
    23e0:	37 83       	std	Z+7, r19	; 0x07
    23e2:	26 83       	std	Z+6, r18	; 0x06
		break;
    23e4:	bf c0       	rjmp	.+382    	; 0x2564 <__stack+0x365>
		case 100: // HEATER_USES_AD595
		temperatureCont->targetTemperature = (int)((int32_t)temp * (1024<<(2-ANALOG_REDUCE_BITS))/ 500);
    23e6:	89 8d       	ldd	r24, Y+25	; 0x19
    23e8:	9a 8d       	ldd	r25, Y+26	; 0x1a
    23ea:	09 2e       	mov	r0, r25
    23ec:	00 0c       	add	r0, r0
    23ee:	aa 0b       	sbc	r26, r26
    23f0:	bb 0b       	sbc	r27, r27
    23f2:	07 2e       	mov	r0, r23
    23f4:	7c e0       	ldi	r23, 0x0C	; 12
    23f6:	88 0f       	add	r24, r24
    23f8:	99 1f       	adc	r25, r25
    23fa:	aa 1f       	adc	r26, r26
    23fc:	bb 1f       	adc	r27, r27
    23fe:	7a 95       	dec	r23
    2400:	d1 f7       	brne	.-12     	; 0x23f6 <__stack+0x1f7>
    2402:	70 2d       	mov	r23, r0
    2404:	24 ef       	ldi	r18, 0xF4	; 244
    2406:	31 e0       	ldi	r19, 0x01	; 1
    2408:	40 e0       	ldi	r20, 0x00	; 0
    240a:	50 e0       	ldi	r21, 0x00	; 0
    240c:	bc 01       	movw	r22, r24
    240e:	cd 01       	movw	r24, r26
    2410:	0e 94 00 24 	call	0x4800	; 0x4800 <__divmodsi4>
    2414:	da 01       	movw	r26, r20
    2416:	c9 01       	movw	r24, r18
    2418:	9c 01       	movw	r18, r24
    241a:	8f a1       	ldd	r24, Y+39	; 0x27
    241c:	98 a5       	ldd	r25, Y+40	; 0x28
    241e:	fc 01       	movw	r30, r24
    2420:	37 83       	std	Z+7, r19	; 0x07
    2422:	26 83       	std	Z+6, r18	; 0x06
		break;
    2424:	9f c0       	rjmp	.+318    	; 0x2564 <__stack+0x365>
		case 97:
		case 98:
		case 99:
		case 203:
		{
			if (type == 203)
    2426:	89 81       	ldd	r24, Y+1	; 0x01
    2428:	8b 3c       	cpi	r24, 0xCB	; 203
    242a:	11 f4       	brne	.+4      	; 0x2430 <__stack+0x231>
			{
				type = 97;
    242c:	81 e6       	ldi	r24, 0x61	; 97
    242e:	89 83       	std	Y+1, r24	; 0x01
			}
			uint8_t i=2;
    2430:	82 e0       	ldi	r24, 0x02	; 2
    2432:	88 8b       	std	Y+16, r24	; 0x10
			const short *temptable;
			#ifdef USE_GENERIC_THERMISTORTABLE_1
			if(type == 97)
    2434:	89 81       	ldd	r24, Y+1	; 0x01
    2436:	81 36       	cpi	r24, 0x61	; 97
    2438:	21 f4       	brne	.+8      	; 0x2442 <__stack+0x243>
			temptable = (const short *)temptable_generic1;
    243a:	85 e7       	ldi	r24, 0x75	; 117
    243c:	9b e0       	ldi	r25, 0x0B	; 11
    243e:	9a 8b       	std	Y+18, r25	; 0x12
    2440:	89 8b       	std	Y+17, r24	; 0x11
			#endif
			short oldraw = temptable[0];
    2442:	89 89       	ldd	r24, Y+17	; 0x11
    2444:	9a 89       	ldd	r25, Y+18	; 0x12
    2446:	fc 01       	movw	r30, r24
    2448:	80 81       	ld	r24, Z
    244a:	91 81       	ldd	r25, Z+1	; 0x01
    244c:	9c 8b       	std	Y+20, r25	; 0x14
    244e:	8b 8b       	std	Y+19, r24	; 0x13
			short oldtemp = temptable[1];
    2450:	89 89       	ldd	r24, Y+17	; 0x11
    2452:	9a 89       	ldd	r25, Y+18	; 0x12
    2454:	fc 01       	movw	r30, r24
    2456:	82 81       	ldd	r24, Z+2	; 0x02
    2458:	93 81       	ldd	r25, Z+3	; 0x03
    245a:	9e 8b       	std	Y+22, r25	; 0x16
    245c:	8d 8b       	std	Y+21, r24	; 0x15
			short newraw,newtemp;
			while(i<GENERIC_THERM_NUM_ENTRIES*2)
    245e:	72 c0       	rjmp	.+228    	; 0x2544 <__stack+0x345>
			{
				newraw = temptable[i++];
    2460:	88 89       	ldd	r24, Y+16	; 0x10
    2462:	91 e0       	ldi	r25, 0x01	; 1
    2464:	98 0f       	add	r25, r24
    2466:	98 8b       	std	Y+16, r25	; 0x10
    2468:	88 2f       	mov	r24, r24
    246a:	90 e0       	ldi	r25, 0x00	; 0
    246c:	88 0f       	add	r24, r24
    246e:	99 1f       	adc	r25, r25
    2470:	29 89       	ldd	r18, Y+17	; 0x11
    2472:	3a 89       	ldd	r19, Y+18	; 0x12
    2474:	82 0f       	add	r24, r18
    2476:	93 1f       	adc	r25, r19
    2478:	fc 01       	movw	r30, r24
    247a:	80 81       	ld	r24, Z
    247c:	91 81       	ldd	r25, Z+1	; 0x01
    247e:	98 8f       	std	Y+24, r25	; 0x18
    2480:	8f 8b       	std	Y+23, r24	; 0x17
				newtemp = temptable[i++];
    2482:	88 89       	ldd	r24, Y+16	; 0x10
    2484:	91 e0       	ldi	r25, 0x01	; 1
    2486:	98 0f       	add	r25, r24
    2488:	98 8b       	std	Y+16, r25	; 0x10
    248a:	88 2f       	mov	r24, r24
    248c:	90 e0       	ldi	r25, 0x00	; 0
    248e:	88 0f       	add	r24, r24
    2490:	99 1f       	adc	r25, r25
    2492:	29 89       	ldd	r18, Y+17	; 0x11
    2494:	3a 89       	ldd	r19, Y+18	; 0x12
    2496:	82 0f       	add	r24, r18
    2498:	93 1f       	adc	r25, r19
    249a:	fc 01       	movw	r30, r24
    249c:	80 81       	ld	r24, Z
    249e:	91 81       	ldd	r25, Z+1	; 0x01
    24a0:	9e a3       	std	Y+38, r25	; 0x26
    24a2:	8d a3       	std	Y+37, r24	; 0x25
				if (newtemp < temp)
    24a4:	2d a1       	ldd	r18, Y+37	; 0x25
    24a6:	3e a1       	ldd	r19, Y+38	; 0x26
    24a8:	89 8d       	ldd	r24, Y+25	; 0x19
    24aa:	9a 8d       	ldd	r25, Y+26	; 0x1a
    24ac:	28 17       	cp	r18, r24
    24ae:	39 07       	cpc	r19, r25
    24b0:	0c f0       	brlt	.+2      	; 0x24b4 <__stack+0x2b5>
    24b2:	40 c0       	rjmp	.+128    	; 0x2534 <__stack+0x335>
				{
					temperatureCont->targetTemperature = (1023<<(2-ANALOG_REDUCE_BITS))- oldraw + (int32_t)(oldtemp-temp)*(int32_t)(oldraw-newraw)/(oldtemp-newtemp);
    24b4:	2d 89       	ldd	r18, Y+21	; 0x15
    24b6:	3e 89       	ldd	r19, Y+22	; 0x16
    24b8:	89 8d       	ldd	r24, Y+25	; 0x19
    24ba:	9a 8d       	ldd	r25, Y+26	; 0x1a
    24bc:	a9 01       	movw	r20, r18
    24be:	48 1b       	sub	r20, r24
    24c0:	59 0b       	sbc	r21, r25
    24c2:	ca 01       	movw	r24, r20
    24c4:	9c 01       	movw	r18, r24
    24c6:	99 0f       	add	r25, r25
    24c8:	44 0b       	sbc	r20, r20
    24ca:	55 0b       	sbc	r21, r21
    24cc:	6b 89       	ldd	r22, Y+19	; 0x13
    24ce:	7c 89       	ldd	r23, Y+20	; 0x14
    24d0:	8f 89       	ldd	r24, Y+23	; 0x17
    24d2:	98 8d       	ldd	r25, Y+24	; 0x18
    24d4:	fb 01       	movw	r30, r22
    24d6:	e8 1b       	sub	r30, r24
    24d8:	f9 0b       	sbc	r31, r25
    24da:	cf 01       	movw	r24, r30
    24dc:	09 2e       	mov	r0, r25
    24de:	00 0c       	add	r0, r0
    24e0:	aa 0b       	sbc	r26, r26
    24e2:	bb 0b       	sbc	r27, r27
    24e4:	bc 01       	movw	r22, r24
    24e6:	cd 01       	movw	r24, r26
    24e8:	0e 94 cf 23 	call	0x479e	; 0x479e <__mulsi3>
    24ec:	7b 01       	movw	r14, r22
    24ee:	8c 01       	movw	r16, r24
    24f0:	2d 89       	ldd	r18, Y+21	; 0x15
    24f2:	3e 89       	ldd	r19, Y+22	; 0x16
    24f4:	8d a1       	ldd	r24, Y+37	; 0x25
    24f6:	9e a1       	ldd	r25, Y+38	; 0x26
    24f8:	a9 01       	movw	r20, r18
    24fa:	48 1b       	sub	r20, r24
    24fc:	59 0b       	sbc	r21, r25
    24fe:	ca 01       	movw	r24, r20
    2500:	9c 01       	movw	r18, r24
    2502:	99 0f       	add	r25, r25
    2504:	44 0b       	sbc	r20, r20
    2506:	55 0b       	sbc	r21, r21
    2508:	c8 01       	movw	r24, r16
    250a:	b7 01       	movw	r22, r14
    250c:	0e 94 00 24 	call	0x4800	; 0x4800 <__divmodsi4>
    2510:	da 01       	movw	r26, r20
    2512:	c9 01       	movw	r24, r18
    2514:	9c 01       	movw	r18, r24
    2516:	8b 89       	ldd	r24, Y+19	; 0x13
    2518:	9c 89       	ldd	r25, Y+20	; 0x14
    251a:	f9 01       	movw	r30, r18
    251c:	e8 1b       	sub	r30, r24
    251e:	f9 0b       	sbc	r31, r25
    2520:	cf 01       	movw	r24, r30
    2522:	84 50       	subi	r24, 0x04	; 4
    2524:	90 4f       	sbci	r25, 0xF0	; 240
    2526:	9c 01       	movw	r18, r24
    2528:	8f a1       	ldd	r24, Y+39	; 0x27
    252a:	98 a5       	ldd	r25, Y+40	; 0x28
    252c:	fc 01       	movw	r30, r24
    252e:	37 83       	std	Z+7, r19	; 0x07
    2530:	26 83       	std	Z+6, r18	; 0x06
					return 1;
    2532:	18 c0       	rjmp	.+48     	; 0x2564 <__stack+0x365>
				}
				oldtemp = newtemp;
    2534:	8d a1       	ldd	r24, Y+37	; 0x25
    2536:	9e a1       	ldd	r25, Y+38	; 0x26
    2538:	9e 8b       	std	Y+22, r25	; 0x16
    253a:	8d 8b       	std	Y+21, r24	; 0x15
				oldraw = newraw;
    253c:	8f 89       	ldd	r24, Y+23	; 0x17
    253e:	98 8d       	ldd	r25, Y+24	; 0x18
    2540:	9c 8b       	std	Y+20, r25	; 0x14
    2542:	8b 8b       	std	Y+19, r24	; 0x13
			temptable = (const short *)temptable_generic1;
			#endif
			short oldraw = temptable[0];
			short oldtemp = temptable[1];
			short newraw,newtemp;
			while(i<GENERIC_THERM_NUM_ENTRIES*2)
    2544:	88 89       	ldd	r24, Y+16	; 0x10
    2546:	82 34       	cpi	r24, 0x42	; 66
    2548:	08 f4       	brcc	.+2      	; 0x254c <__stack+0x34d>
    254a:	8a cf       	rjmp	.-236    	; 0x2460 <__stack+0x261>
				}
				oldtemp = newtemp;
				oldraw = newraw;
			}
			// Overflow: Set to last value in the table
			temperatureCont->targetTemperature = (1023<<(2-ANALOG_REDUCE_BITS))-newraw;
    254c:	2c ef       	ldi	r18, 0xFC	; 252
    254e:	3f e0       	ldi	r19, 0x0F	; 15
    2550:	8f 89       	ldd	r24, Y+23	; 0x17
    2552:	98 8d       	ldd	r25, Y+24	; 0x18
    2554:	28 1b       	sub	r18, r24
    2556:	39 0b       	sbc	r19, r25
    2558:	8f a1       	ldd	r24, Y+39	; 0x27
    255a:	98 a5       	ldd	r25, Y+40	; 0x28
    255c:	fc 01       	movw	r30, r24
    255e:	37 83       	std	Z+7, r19	; 0x07
    2560:	26 83       	std	Z+6, r18	; 0x06
			break;
    2562:	00 00       	nop
		}
	}
}
    2564:	ee 96       	adiw	r28, 0x3e	; 62
    2566:	0f b6       	in	r0, 0x3f	; 63
    2568:	f8 94       	cli
    256a:	de bf       	out	0x3e, r29	; 62
    256c:	0f be       	out	0x3f, r0	; 63
    256e:	cd bf       	out	0x3d, r28	; 61
    2570:	df 91       	pop	r29
    2572:	cf 91       	pop	r28
    2574:	1f 91       	pop	r17
    2576:	0f 91       	pop	r16
    2578:	ff 90       	pop	r15
    257a:	ef 90       	pop	r14
    257c:	08 95       	ret

0000257e <register_manage_tensometer_event_callback>:
uint8_t calibrating_tensometer = 0;


static void (*tensometer_event_callback)();

void register_manage_tensometer_event_callback(void (*callback)()) {
    257e:	cf 93       	push	r28
    2580:	df 93       	push	r29
    2582:	1f 92       	push	r1
    2584:	1f 92       	push	r1
    2586:	cd b7       	in	r28, 0x3d	; 61
    2588:	de b7       	in	r29, 0x3e	; 62
    258a:	9a 83       	std	Y+2, r25	; 0x02
    258c:	89 83       	std	Y+1, r24	; 0x01
	tensometer_event_callback = callback;
    258e:	89 81       	ldd	r24, Y+1	; 0x01
    2590:	9a 81       	ldd	r25, Y+2	; 0x02
    2592:	90 93 5c 08 	sts	0x085C, r25	; 0x80085c <tensometer_event_callback+0x1>
    2596:	80 93 5b 08 	sts	0x085B, r24	; 0x80085b <tensometer_event_callback>
}
    259a:	0f 90       	pop	r0
    259c:	0f 90       	pop	r0
    259e:	df 91       	pop	r29
    25a0:	cf 91       	pop	r28
    25a2:	08 95       	ret

000025a4 <MANAGE_TENSOMETER_EVENT>:

void MANAGE_TENSOMETER_EVENT() {
    25a4:	cf 93       	push	r28
    25a6:	df 93       	push	r29
    25a8:	cd b7       	in	r28, 0x3d	; 61
    25aa:	de b7       	in	r29, 0x3e	; 62
	if( tensometer_event_callback ) {
    25ac:	80 91 5b 08 	lds	r24, 0x085B	; 0x80085b <tensometer_event_callback>
    25b0:	90 91 5c 08 	lds	r25, 0x085C	; 0x80085c <tensometer_event_callback+0x1>
    25b4:	89 2b       	or	r24, r25
    25b6:	31 f0       	breq	.+12     	; 0x25c4 <MANAGE_TENSOMETER_EVENT+0x20>
		(*tensometer_event_callback)();
    25b8:	80 91 5b 08 	lds	r24, 0x085B	; 0x80085b <tensometer_event_callback>
    25bc:	90 91 5c 08 	lds	r25, 0x085C	; 0x80085c <tensometer_event_callback+0x1>
    25c0:	fc 01       	movw	r30, r24
    25c2:	19 95       	eicall
	}
}
    25c4:	df 91       	pop	r29
    25c6:	cf 91       	pop	r28
    25c8:	08 95       	ret

000025ca <initTensometer>:


void initTensometer(){
    25ca:	cf 93       	push	r28
    25cc:	df 93       	push	r29
    25ce:	cd b7       	in	r28, 0x3d	; 61
    25d0:	de b7       	in	r29, 0x3e	; 62
    25d2:	60 97       	sbiw	r28, 0x10	; 16
    25d4:	0f b6       	in	r0, 0x3f	; 63
    25d6:	f8 94       	cli
    25d8:	de bf       	out	0x3e, r29	; 62
    25da:	0f be       	out	0x3f, r0	; 63
    25dc:	cd bf       	out	0x3d, r28	; 61
	PIN_OUT(ADS_A0_PIN);
    25de:	87 e0       	ldi	r24, 0x07	; 7
    25e0:	91 e0       	ldi	r25, 0x01	; 1
    25e2:	27 e0       	ldi	r18, 0x07	; 7
    25e4:	31 e0       	ldi	r19, 0x01	; 1
    25e6:	f9 01       	movw	r30, r18
    25e8:	20 81       	ld	r18, Z
    25ea:	20 62       	ori	r18, 0x20	; 32
    25ec:	fc 01       	movw	r30, r24
    25ee:	20 83       	st	Z, r18
	ADS_A0_LOW;
    25f0:	88 e0       	ldi	r24, 0x08	; 8
    25f2:	91 e0       	ldi	r25, 0x01	; 1
    25f4:	28 e0       	ldi	r18, 0x08	; 8
    25f6:	31 e0       	ldi	r19, 0x01	; 1
    25f8:	f9 01       	movw	r30, r18
    25fa:	20 81       	ld	r18, Z
    25fc:	2f 7d       	andi	r18, 0xDF	; 223
    25fe:	fc 01       	movw	r30, r24
    2600:	20 83       	st	Z, r18
	
	PIN_OUT(ADS_SCLK_PIN);
    2602:	87 e0       	ldi	r24, 0x07	; 7
    2604:	91 e0       	ldi	r25, 0x01	; 1
    2606:	27 e0       	ldi	r18, 0x07	; 7
    2608:	31 e0       	ldi	r19, 0x01	; 1
    260a:	f9 01       	movw	r30, r18
    260c:	20 81       	ld	r18, Z
    260e:	28 60       	ori	r18, 0x08	; 8
    2610:	fc 01       	movw	r30, r24
    2612:	20 83       	st	Z, r18
	ADS_SCLK_LOW;
    2614:	88 e0       	ldi	r24, 0x08	; 8
    2616:	91 e0       	ldi	r25, 0x01	; 1
    2618:	28 e0       	ldi	r18, 0x08	; 8
    261a:	31 e0       	ldi	r19, 0x01	; 1
    261c:	f9 01       	movw	r30, r18
    261e:	20 81       	ld	r18, Z
    2620:	27 7f       	andi	r18, 0xF7	; 247
    2622:	fc 01       	movw	r30, r24
    2624:	20 83       	st	Z, r18
	
	PIN_IN(ADS_DRDY_PIN);
    2626:	87 e0       	ldi	r24, 0x07	; 7
    2628:	91 e0       	ldi	r25, 0x01	; 1
    262a:	27 e0       	ldi	r18, 0x07	; 7
    262c:	31 e0       	ldi	r19, 0x01	; 1
    262e:	f9 01       	movw	r30, r18
    2630:	20 81       	ld	r18, Z
    2632:	2f 7e       	andi	r18, 0xEF	; 239
    2634:	fc 01       	movw	r30, r24
    2636:	20 83       	st	Z, r18
	ADS_DRDY_LOW;
    2638:	88 e0       	ldi	r24, 0x08	; 8
    263a:	91 e0       	ldi	r25, 0x01	; 1
    263c:	28 e0       	ldi	r18, 0x08	; 8
    263e:	31 e0       	ldi	r19, 0x01	; 1
    2640:	f9 01       	movw	r30, r18
    2642:	20 81       	ld	r18, Z
    2644:	2f 7e       	andi	r18, 0xEF	; 239
    2646:	fc 01       	movw	r30, r24
    2648:	20 83       	st	Z, r18
	
	PIN_OUT(ADS_PDWN_PIN);
    264a:	87 e0       	ldi	r24, 0x07	; 7
    264c:	91 e0       	ldi	r25, 0x01	; 1
    264e:	27 e0       	ldi	r18, 0x07	; 7
    2650:	31 e0       	ldi	r19, 0x01	; 1
    2652:	f9 01       	movw	r30, r18
    2654:	20 81       	ld	r18, Z
    2656:	24 60       	ori	r18, 0x04	; 4
    2658:	fc 01       	movw	r30, r24
    265a:	20 83       	st	Z, r18
	ADS_PDWN_LOW;
    265c:	88 e0       	ldi	r24, 0x08	; 8
    265e:	91 e0       	ldi	r25, 0x01	; 1
    2660:	28 e0       	ldi	r18, 0x08	; 8
    2662:	31 e0       	ldi	r19, 0x01	; 1
    2664:	f9 01       	movw	r30, r18
    2666:	20 81       	ld	r18, Z
    2668:	2b 7f       	andi	r18, 0xFB	; 251
    266a:	fc 01       	movw	r30, r24
    266c:	20 83       	st	Z, r18
	
	for (int i =0;i<TENSOMETER_NUMBER;i++)
    266e:	1a 82       	std	Y+2, r1	; 0x02
    2670:	19 82       	std	Y+1, r1	; 0x01
    2672:	57 c0       	rjmp	.+174    	; 0x2722 <initTensometer+0x158>
	{
		get_roll_weight(i);
    2674:	89 81       	ldd	r24, Y+1	; 0x01
    2676:	0e 94 e3 21 	call	0x43c6	; 0x43c6 <get_roll_weight>
		tensometer[i].RAW_Value = 0;
    267a:	29 81       	ldd	r18, Y+1	; 0x01
    267c:	3a 81       	ldd	r19, Y+2	; 0x02
    267e:	47 e1       	ldi	r20, 0x17	; 23
    2680:	42 9f       	mul	r20, r18
    2682:	c0 01       	movw	r24, r0
    2684:	43 9f       	mul	r20, r19
    2686:	90 0d       	add	r25, r0
    2688:	11 24       	eor	r1, r1
    268a:	80 50       	subi	r24, 0x00	; 0
    268c:	94 4f       	sbci	r25, 0xF4	; 244
    268e:	fc 01       	movw	r30, r24
    2690:	11 82       	std	Z+1, r1	; 0x01
    2692:	10 82       	st	Z, r1
		tensometer[i].filamentWeight = 0;
    2694:	29 81       	ldd	r18, Y+1	; 0x01
    2696:	3a 81       	ldd	r19, Y+2	; 0x02
    2698:	47 e1       	ldi	r20, 0x17	; 23
    269a:	42 9f       	mul	r20, r18
    269c:	c0 01       	movw	r24, r0
    269e:	43 9f       	mul	r20, r19
    26a0:	90 0d       	add	r25, r0
    26a2:	11 24       	eor	r1, r1
    26a4:	8a 5f       	subi	r24, 0xFA	; 250
    26a6:	93 4f       	sbci	r25, 0xF3	; 243
    26a8:	fc 01       	movw	r30, r24
    26aa:	11 82       	std	Z+1, r1	; 0x01
    26ac:	10 82       	st	Z, r1
		tensometer[i].weight = 0;
    26ae:	29 81       	ldd	r18, Y+1	; 0x01
    26b0:	3a 81       	ldd	r19, Y+2	; 0x02
    26b2:	47 e1       	ldi	r20, 0x17	; 23
    26b4:	42 9f       	mul	r20, r18
    26b6:	c0 01       	movw	r24, r0
    26b8:	43 9f       	mul	r20, r19
    26ba:	90 0d       	add	r25, r0
    26bc:	11 24       	eor	r1, r1
    26be:	8e 5f       	subi	r24, 0xFE	; 254
    26c0:	93 4f       	sbci	r25, 0xF3	; 243
    26c2:	fc 01       	movw	r30, r24
    26c4:	11 82       	std	Z+1, r1	; 0x01
    26c6:	10 82       	st	Z, r1
		tensometer[i].numberConversion=0;
    26c8:	29 81       	ldd	r18, Y+1	; 0x01
    26ca:	3a 81       	ldd	r19, Y+2	; 0x02
    26cc:	47 e1       	ldi	r20, 0x17	; 23
    26ce:	42 9f       	mul	r20, r18
    26d0:	c0 01       	movw	r24, r0
    26d2:	43 9f       	mul	r20, r19
    26d4:	90 0d       	add	r25, r0
    26d6:	11 24       	eor	r1, r1
    26d8:	86 5f       	subi	r24, 0xF6	; 246
    26da:	93 4f       	sbci	r25, 0xF3	; 243
    26dc:	fc 01       	movw	r30, r24
    26de:	10 82       	st	Z, r1
		tensometer[i].tempPreCalculateMeasure=0;
    26e0:	29 81       	ldd	r18, Y+1	; 0x01
    26e2:	3a 81       	ldd	r19, Y+2	; 0x02
    26e4:	47 e1       	ldi	r20, 0x17	; 23
    26e6:	42 9f       	mul	r20, r18
    26e8:	c0 01       	movw	r24, r0
    26ea:	43 9f       	mul	r20, r19
    26ec:	90 0d       	add	r25, r0
    26ee:	11 24       	eor	r1, r1
    26f0:	85 5f       	subi	r24, 0xF5	; 245
    26f2:	93 4f       	sbci	r25, 0xF3	; 243
    26f4:	fc 01       	movw	r30, r24
    26f6:	10 82       	st	Z, r1
    26f8:	11 82       	std	Z+1, r1	; 0x01
    26fa:	12 82       	std	Z+2, r1	; 0x02
    26fc:	13 82       	std	Z+3, r1	; 0x03
		tensometer[i].setFilamentWeight=0;
    26fe:	29 81       	ldd	r18, Y+1	; 0x01
    2700:	3a 81       	ldd	r19, Y+2	; 0x02
    2702:	47 e1       	ldi	r20, 0x17	; 23
    2704:	42 9f       	mul	r20, r18
    2706:	c0 01       	movw	r24, r0
    2708:	43 9f       	mul	r20, r19
    270a:	90 0d       	add	r25, r0
    270c:	11 24       	eor	r1, r1
    270e:	88 5f       	subi	r24, 0xF8	; 248
    2710:	93 4f       	sbci	r25, 0xF3	; 243
    2712:	fc 01       	movw	r30, r24
    2714:	11 82       	std	Z+1, r1	; 0x01
    2716:	10 82       	st	Z, r1
	ADS_DRDY_LOW;
	
	PIN_OUT(ADS_PDWN_PIN);
	ADS_PDWN_LOW;
	
	for (int i =0;i<TENSOMETER_NUMBER;i++)
    2718:	89 81       	ldd	r24, Y+1	; 0x01
    271a:	9a 81       	ldd	r25, Y+2	; 0x02
    271c:	01 96       	adiw	r24, 0x01	; 1
    271e:	9a 83       	std	Y+2, r25	; 0x02
    2720:	89 83       	std	Y+1, r24	; 0x01
    2722:	89 81       	ldd	r24, Y+1	; 0x01
    2724:	9a 81       	ldd	r25, Y+2	; 0x02
    2726:	02 97       	sbiw	r24, 0x02	; 2
    2728:	0c f4       	brge	.+2      	; 0x272c <initTensometer+0x162>
    272a:	a4 cf       	rjmp	.-184    	; 0x2674 <initTensometer+0xaa>
		tensometer[i].setFilamentWeight=0;
		//tensometer[i].constantCalibrationValue=0;
		//tensometer[i].zeroScaleMass=0;
	}
	
	ADS_PDWN_LOW;
    272c:	88 e0       	ldi	r24, 0x08	; 8
    272e:	91 e0       	ldi	r25, 0x01	; 1
    2730:	28 e0       	ldi	r18, 0x08	; 8
    2732:	31 e0       	ldi	r19, 0x01	; 1
    2734:	f9 01       	movw	r30, r18
    2736:	20 81       	ld	r18, Z
    2738:	2b 7f       	andi	r18, 0xFB	; 251
    273a:	fc 01       	movw	r30, r24
    273c:	20 83       	st	Z, r18
    273e:	80 e0       	ldi	r24, 0x00	; 0
    2740:	90 e0       	ldi	r25, 0x00	; 0
    2742:	a0 e2       	ldi	r26, 0x20	; 32
    2744:	b1 e4       	ldi	r27, 0x41	; 65
    2746:	8b 83       	std	Y+3, r24	; 0x03
    2748:	9c 83       	std	Y+4, r25	; 0x04
    274a:	ad 83       	std	Y+5, r26	; 0x05
    274c:	be 83       	std	Y+6, r27	; 0x06

	__builtin_avr_delay_cycles(__ticks_dc);

#else
	uint16_t __ticks;
	__tmp = ((F_CPU) / 4e3) * __ms;
    274e:	20 e0       	ldi	r18, 0x00	; 0
    2750:	30 e0       	ldi	r19, 0x00	; 0
    2752:	4a e7       	ldi	r20, 0x7A	; 122
    2754:	55 e4       	ldi	r21, 0x45	; 69
    2756:	6b 81       	ldd	r22, Y+3	; 0x03
    2758:	7c 81       	ldd	r23, Y+4	; 0x04
    275a:	8d 81       	ldd	r24, Y+5	; 0x05
    275c:	9e 81       	ldd	r25, Y+6	; 0x06
    275e:	0e 94 6c 23 	call	0x46d8	; 0x46d8 <__mulsf3>
    2762:	dc 01       	movw	r26, r24
    2764:	cb 01       	movw	r24, r22
    2766:	8f 83       	std	Y+7, r24	; 0x07
    2768:	98 87       	std	Y+8, r25	; 0x08
    276a:	a9 87       	std	Y+9, r26	; 0x09
    276c:	ba 87       	std	Y+10, r27	; 0x0a
	if (__tmp < 1.0)
    276e:	20 e0       	ldi	r18, 0x00	; 0
    2770:	30 e0       	ldi	r19, 0x00	; 0
    2772:	40 e8       	ldi	r20, 0x80	; 128
    2774:	5f e3       	ldi	r21, 0x3F	; 63
    2776:	6f 81       	ldd	r22, Y+7	; 0x07
    2778:	78 85       	ldd	r23, Y+8	; 0x08
    277a:	89 85       	ldd	r24, Y+9	; 0x09
    277c:	9a 85       	ldd	r25, Y+10	; 0x0a
    277e:	0e 94 19 22 	call	0x4432	; 0x4432 <__cmpsf2>
    2782:	88 23       	and	r24, r24
    2784:	2c f4       	brge	.+10     	; 0x2790 <initTensometer+0x1c6>
		__ticks = 1;
    2786:	81 e0       	ldi	r24, 0x01	; 1
    2788:	90 e0       	ldi	r25, 0x00	; 0
    278a:	9c 87       	std	Y+12, r25	; 0x0c
    278c:	8b 87       	std	Y+11, r24	; 0x0b
    278e:	3f c0       	rjmp	.+126    	; 0x280e <initTensometer+0x244>
	else if (__tmp > 65535)
    2790:	20 e0       	ldi	r18, 0x00	; 0
    2792:	3f ef       	ldi	r19, 0xFF	; 255
    2794:	4f e7       	ldi	r20, 0x7F	; 127
    2796:	57 e4       	ldi	r21, 0x47	; 71
    2798:	6f 81       	ldd	r22, Y+7	; 0x07
    279a:	78 85       	ldd	r23, Y+8	; 0x08
    279c:	89 85       	ldd	r24, Y+9	; 0x09
    279e:	9a 85       	ldd	r25, Y+10	; 0x0a
    27a0:	0e 94 68 23 	call	0x46d0	; 0x46d0 <__gesf2>
    27a4:	18 16       	cp	r1, r24
    27a6:	4c f5       	brge	.+82     	; 0x27fa <initTensometer+0x230>
	{
		//	__ticks = requested delay in 1/10 ms
		__ticks = (uint16_t) (__ms * 10.0);
    27a8:	20 e0       	ldi	r18, 0x00	; 0
    27aa:	30 e0       	ldi	r19, 0x00	; 0
    27ac:	40 e2       	ldi	r20, 0x20	; 32
    27ae:	51 e4       	ldi	r21, 0x41	; 65
    27b0:	6b 81       	ldd	r22, Y+3	; 0x03
    27b2:	7c 81       	ldd	r23, Y+4	; 0x04
    27b4:	8d 81       	ldd	r24, Y+5	; 0x05
    27b6:	9e 81       	ldd	r25, Y+6	; 0x06
    27b8:	0e 94 6c 23 	call	0x46d8	; 0x46d8 <__mulsf3>
    27bc:	dc 01       	movw	r26, r24
    27be:	cb 01       	movw	r24, r22
    27c0:	bc 01       	movw	r22, r24
    27c2:	cd 01       	movw	r24, r26
    27c4:	0e 94 8a 22 	call	0x4514	; 0x4514 <__fixunssfsi>
    27c8:	dc 01       	movw	r26, r24
    27ca:	cb 01       	movw	r24, r22
    27cc:	9c 87       	std	Y+12, r25	; 0x0c
    27ce:	8b 87       	std	Y+11, r24	; 0x0b
    27d0:	0f c0       	rjmp	.+30     	; 0x27f0 <initTensometer+0x226>
    27d2:	80 e9       	ldi	r24, 0x90	; 144
    27d4:	91 e0       	ldi	r25, 0x01	; 1
    27d6:	9e 87       	std	Y+14, r25	; 0x0e
    27d8:	8d 87       	std	Y+13, r24	; 0x0d
    milliseconds can be achieved.
 */
void
_delay_loop_2(uint16_t __count)
{
	__asm__ volatile (
    27da:	8d 85       	ldd	r24, Y+13	; 0x0d
    27dc:	9e 85       	ldd	r25, Y+14	; 0x0e
    27de:	01 97       	sbiw	r24, 0x01	; 1
    27e0:	f1 f7       	brne	.-4      	; 0x27de <initTensometer+0x214>
    27e2:	9e 87       	std	Y+14, r25	; 0x0e
    27e4:	8d 87       	std	Y+13, r24	; 0x0d
		while(__ticks)
		{
			// wait 1/10 ms
			_delay_loop_2(((F_CPU) / 4e3) / 10);
			__ticks --;
    27e6:	8b 85       	ldd	r24, Y+11	; 0x0b
    27e8:	9c 85       	ldd	r25, Y+12	; 0x0c
    27ea:	01 97       	sbiw	r24, 0x01	; 1
    27ec:	9c 87       	std	Y+12, r25	; 0x0c
    27ee:	8b 87       	std	Y+11, r24	; 0x0b
		__ticks = 1;
	else if (__tmp > 65535)
	{
		//	__ticks = requested delay in 1/10 ms
		__ticks = (uint16_t) (__ms * 10.0);
		while(__ticks)
    27f0:	8b 85       	ldd	r24, Y+11	; 0x0b
    27f2:	9c 85       	ldd	r25, Y+12	; 0x0c
    27f4:	89 2b       	or	r24, r25
    27f6:	69 f7       	brne	.-38     	; 0x27d2 <initTensometer+0x208>
    27f8:	14 c0       	rjmp	.+40     	; 0x2822 <initTensometer+0x258>
			__ticks --;
		}
		return;
	}
	else
		__ticks = (uint16_t)__tmp;
    27fa:	6f 81       	ldd	r22, Y+7	; 0x07
    27fc:	78 85       	ldd	r23, Y+8	; 0x08
    27fe:	89 85       	ldd	r24, Y+9	; 0x09
    2800:	9a 85       	ldd	r25, Y+10	; 0x0a
    2802:	0e 94 8a 22 	call	0x4514	; 0x4514 <__fixunssfsi>
    2806:	dc 01       	movw	r26, r24
    2808:	cb 01       	movw	r24, r22
    280a:	9c 87       	std	Y+12, r25	; 0x0c
    280c:	8b 87       	std	Y+11, r24	; 0x0b
    280e:	8b 85       	ldd	r24, Y+11	; 0x0b
    2810:	9c 85       	ldd	r25, Y+12	; 0x0c
    2812:	98 8b       	std	Y+16, r25	; 0x10
    2814:	8f 87       	std	Y+15, r24	; 0x0f
    2816:	8f 85       	ldd	r24, Y+15	; 0x0f
    2818:	98 89       	ldd	r25, Y+16	; 0x10
    281a:	01 97       	sbiw	r24, 0x01	; 1
    281c:	f1 f7       	brne	.-4      	; 0x281a <initTensometer+0x250>
    281e:	98 8b       	std	Y+16, r25	; 0x10
    2820:	8f 87       	std	Y+15, r24	; 0x0f
	_delay_ms(10);
	ADS_PDWN_HIGH; // ADS ON
    2822:	88 e0       	ldi	r24, 0x08	; 8
    2824:	91 e0       	ldi	r25, 0x01	; 1
    2826:	28 e0       	ldi	r18, 0x08	; 8
    2828:	31 e0       	ldi	r19, 0x01	; 1
    282a:	f9 01       	movw	r30, r18
    282c:	20 81       	ld	r18, Z
    282e:	24 60       	ori	r18, 0x04	; 4
    2830:	fc 01       	movw	r30, r24
    2832:	20 83       	st	Z, r18
	
	ADS_A0_LOW;
    2834:	88 e0       	ldi	r24, 0x08	; 8
    2836:	91 e0       	ldi	r25, 0x01	; 1
    2838:	28 e0       	ldi	r18, 0x08	; 8
    283a:	31 e0       	ldi	r19, 0x01	; 1
    283c:	f9 01       	movw	r30, r18
    283e:	20 81       	ld	r18, Z
    2840:	2f 7d       	andi	r18, 0xDF	; 223
    2842:	fc 01       	movw	r30, r24
    2844:	20 83       	st	Z, r18
}
    2846:	60 96       	adiw	r28, 0x10	; 16
    2848:	0f b6       	in	r0, 0x3f	; 63
    284a:	f8 94       	cli
    284c:	de bf       	out	0x3e, r29	; 62
    284e:	0f be       	out	0x3f, r0	; 63
    2850:	cd bf       	out	0x3d, r28	; 61
    2852:	df 91       	pop	r29
    2854:	cf 91       	pop	r28
    2856:	08 95       	ret

00002858 <calulate_calibration_constant>:
// 	where wfs is the user-specified calibration mass, cfs is the ADC code taken with the calibration mass
// 	applied, and czs is the ADC measurement taken with no load.
// 	wzs , the zero-scale mass, is calculated from m and czs using Equation 2:
// 	wzs = m ? czs

void calulate_calibration_constant(uint8_t input_mux, uint32_t calibration_mass_gram, int32_t adc_code_mass, int32_t adc_code_noload){
    2858:	cf 92       	push	r12
    285a:	df 92       	push	r13
    285c:	ef 92       	push	r14
    285e:	ff 92       	push	r15
    2860:	0f 93       	push	r16
    2862:	1f 93       	push	r17
    2864:	cf 93       	push	r28
    2866:	df 93       	push	r29
    2868:	cd b7       	in	r28, 0x3d	; 61
    286a:	de b7       	in	r29, 0x3e	; 62
    286c:	61 97       	sbiw	r28, 0x11	; 17
    286e:	0f b6       	in	r0, 0x3f	; 63
    2870:	f8 94       	cli
    2872:	de bf       	out	0x3e, r29	; 62
    2874:	0f be       	out	0x3f, r0	; 63
    2876:	cd bf       	out	0x3d, r28	; 61
    2878:	89 83       	std	Y+1, r24	; 0x01
    287a:	4a 83       	std	Y+2, r20	; 0x02
    287c:	5b 83       	std	Y+3, r21	; 0x03
    287e:	6c 83       	std	Y+4, r22	; 0x04
    2880:	7d 83       	std	Y+5, r23	; 0x05
    2882:	0e 83       	std	Y+6, r16	; 0x06
    2884:	1f 83       	std	Y+7, r17	; 0x07
    2886:	28 87       	std	Y+8, r18	; 0x08
    2888:	39 87       	std	Y+9, r19	; 0x09
    288a:	ca 86       	std	Y+10, r12	; 0x0a
    288c:	db 86       	std	Y+11, r13	; 0x0b
    288e:	ec 86       	std	Y+12, r14	; 0x0c
    2890:	fd 86       	std	Y+13, r15	; 0x0d
	calibration_mass_gram *=1000;
    2892:	2a 81       	ldd	r18, Y+2	; 0x02
    2894:	3b 81       	ldd	r19, Y+3	; 0x03
    2896:	4c 81       	ldd	r20, Y+4	; 0x04
    2898:	5d 81       	ldd	r21, Y+5	; 0x05
    289a:	88 ee       	ldi	r24, 0xE8	; 232
    289c:	93 e0       	ldi	r25, 0x03	; 3
    289e:	dc 01       	movw	r26, r24
    28a0:	0e 94 24 24 	call	0x4848	; 0x4848 <__muluhisi3>
    28a4:	dc 01       	movw	r26, r24
    28a6:	cb 01       	movw	r24, r22
    28a8:	8a 83       	std	Y+2, r24	; 0x02
    28aa:	9b 83       	std	Y+3, r25	; 0x03
    28ac:	ac 83       	std	Y+4, r26	; 0x04
    28ae:	bd 83       	std	Y+5, r27	; 0x05
	tensometer[input_mux].constantCalibrationValue = (uint16_t)(calibration_mass_gram/(adc_code_mass - adc_code_noload));
    28b0:	89 81       	ldd	r24, Y+1	; 0x01
    28b2:	08 2f       	mov	r16, r24
    28b4:	10 e0       	ldi	r17, 0x00	; 0
    28b6:	2e 81       	ldd	r18, Y+6	; 0x06
    28b8:	3f 81       	ldd	r19, Y+7	; 0x07
    28ba:	48 85       	ldd	r20, Y+8	; 0x08
    28bc:	59 85       	ldd	r21, Y+9	; 0x09
    28be:	8a 85       	ldd	r24, Y+10	; 0x0a
    28c0:	9b 85       	ldd	r25, Y+11	; 0x0b
    28c2:	ac 85       	ldd	r26, Y+12	; 0x0c
    28c4:	bd 85       	ldd	r27, Y+13	; 0x0d
    28c6:	69 01       	movw	r12, r18
    28c8:	7a 01       	movw	r14, r20
    28ca:	c8 1a       	sub	r12, r24
    28cc:	d9 0a       	sbc	r13, r25
    28ce:	ea 0a       	sbc	r14, r26
    28d0:	fb 0a       	sbc	r15, r27
    28d2:	d7 01       	movw	r26, r14
    28d4:	c6 01       	movw	r24, r12
    28d6:	9c 01       	movw	r18, r24
    28d8:	ad 01       	movw	r20, r26
    28da:	8a 81       	ldd	r24, Y+2	; 0x02
    28dc:	9b 81       	ldd	r25, Y+3	; 0x03
    28de:	ac 81       	ldd	r26, Y+4	; 0x04
    28e0:	bd 81       	ldd	r27, Y+5	; 0x05
    28e2:	bc 01       	movw	r22, r24
    28e4:	cd 01       	movw	r24, r26
    28e6:	0e 94 de 23 	call	0x47bc	; 0x47bc <__udivmodsi4>
    28ea:	da 01       	movw	r26, r20
    28ec:	c9 01       	movw	r24, r18
    28ee:	9c 01       	movw	r18, r24
    28f0:	47 e1       	ldi	r20, 0x17	; 23
    28f2:	40 9f       	mul	r20, r16
    28f4:	c0 01       	movw	r24, r0
    28f6:	41 9f       	mul	r20, r17
    28f8:	90 0d       	add	r25, r0
    28fa:	11 24       	eor	r1, r1
    28fc:	81 5f       	subi	r24, 0xF1	; 241
    28fe:	93 4f       	sbci	r25, 0xF3	; 243
    2900:	dc 01       	movw	r26, r24
    2902:	2d 93       	st	X+, r18
    2904:	3c 93       	st	X, r19
	tensometer[input_mux].zeroScaleMass = (int32_t)tensometer[input_mux].constantCalibrationValue*adc_code_noload ;
    2906:	89 81       	ldd	r24, Y+1	; 0x01
    2908:	e8 2f       	mov	r30, r24
    290a:	f0 e0       	ldi	r31, 0x00	; 0
    290c:	89 81       	ldd	r24, Y+1	; 0x01
    290e:	28 2f       	mov	r18, r24
    2910:	30 e0       	ldi	r19, 0x00	; 0
    2912:	47 e1       	ldi	r20, 0x17	; 23
    2914:	42 9f       	mul	r20, r18
    2916:	c0 01       	movw	r24, r0
    2918:	43 9f       	mul	r20, r19
    291a:	90 0d       	add	r25, r0
    291c:	11 24       	eor	r1, r1
    291e:	81 5f       	subi	r24, 0xF1	; 241
    2920:	93 4f       	sbci	r25, 0xF3	; 243
    2922:	dc 01       	movw	r26, r24
    2924:	8d 91       	ld	r24, X+
    2926:	9c 91       	ld	r25, X
    2928:	9c 01       	movw	r18, r24
    292a:	40 e0       	ldi	r20, 0x00	; 0
    292c:	50 e0       	ldi	r21, 0x00	; 0
    292e:	8a 85       	ldd	r24, Y+10	; 0x0a
    2930:	9b 85       	ldd	r25, Y+11	; 0x0b
    2932:	ac 85       	ldd	r26, Y+12	; 0x0c
    2934:	bd 85       	ldd	r27, Y+13	; 0x0d
    2936:	bc 01       	movw	r22, r24
    2938:	cd 01       	movw	r24, r26
    293a:	0e 94 cf 23 	call	0x479e	; 0x479e <__mulsi3>
    293e:	dc 01       	movw	r26, r24
    2940:	cb 01       	movw	r24, r22
    2942:	47 e1       	ldi	r20, 0x17	; 23
    2944:	4e 9f       	mul	r20, r30
    2946:	90 01       	movw	r18, r0
    2948:	4f 9f       	mul	r20, r31
    294a:	30 0d       	add	r19, r0
    294c:	11 24       	eor	r1, r1
    294e:	2f 5e       	subi	r18, 0xEF	; 239
    2950:	33 4f       	sbci	r19, 0xF3	; 243
    2952:	f9 01       	movw	r30, r18
    2954:	80 83       	st	Z, r24
    2956:	91 83       	std	Z+1, r25	; 0x01
    2958:	a2 83       	std	Z+2, r26	; 0x02
    295a:	b3 83       	std	Z+3, r27	; 0x03
	tensometer[input_mux].zeroScaleMass *= (-1);
    295c:	89 81       	ldd	r24, Y+1	; 0x01
    295e:	48 2f       	mov	r20, r24
    2960:	50 e0       	ldi	r21, 0x00	; 0
    2962:	89 81       	ldd	r24, Y+1	; 0x01
    2964:	28 2f       	mov	r18, r24
    2966:	30 e0       	ldi	r19, 0x00	; 0
    2968:	67 e1       	ldi	r22, 0x17	; 23
    296a:	62 9f       	mul	r22, r18
    296c:	c0 01       	movw	r24, r0
    296e:	63 9f       	mul	r22, r19
    2970:	90 0d       	add	r25, r0
    2972:	11 24       	eor	r1, r1
    2974:	8f 5e       	subi	r24, 0xEF	; 239
    2976:	93 4f       	sbci	r25, 0xF3	; 243
    2978:	fc 01       	movw	r30, r24
    297a:	80 81       	ld	r24, Z
    297c:	91 81       	ldd	r25, Z+1	; 0x01
    297e:	a2 81       	ldd	r26, Z+2	; 0x02
    2980:	b3 81       	ldd	r27, Z+3	; 0x03
    2982:	b0 95       	com	r27
    2984:	a0 95       	com	r26
    2986:	90 95       	com	r25
    2988:	81 95       	neg	r24
    298a:	9f 4f       	sbci	r25, 0xFF	; 255
    298c:	af 4f       	sbci	r26, 0xFF	; 255
    298e:	bf 4f       	sbci	r27, 0xFF	; 255
    2990:	67 e1       	ldi	r22, 0x17	; 23
    2992:	64 9f       	mul	r22, r20
    2994:	90 01       	movw	r18, r0
    2996:	65 9f       	mul	r22, r21
    2998:	30 0d       	add	r19, r0
    299a:	11 24       	eor	r1, r1
    299c:	2f 5e       	subi	r18, 0xEF	; 239
    299e:	33 4f       	sbci	r19, 0xF3	; 243
    29a0:	f9 01       	movw	r30, r18
    29a2:	80 83       	st	Z, r24
    29a4:	91 83       	std	Z+1, r25	; 0x01
    29a6:	a2 83       	std	Z+2, r26	; 0x02
    29a8:	b3 83       	std	Z+3, r27	; 0x03
	calibration_mass_gram;
}
    29aa:	61 96       	adiw	r28, 0x11	; 17
    29ac:	0f b6       	in	r0, 0x3f	; 63
    29ae:	f8 94       	cli
    29b0:	de bf       	out	0x3e, r29	; 62
    29b2:	0f be       	out	0x3f, r0	; 63
    29b4:	cd bf       	out	0x3d, r28	; 61
    29b6:	df 91       	pop	r29
    29b8:	cf 91       	pop	r28
    29ba:	1f 91       	pop	r17
    29bc:	0f 91       	pop	r16
    29be:	ff 90       	pop	r15
    29c0:	ef 90       	pop	r14
    29c2:	df 90       	pop	r13
    29c4:	cf 90       	pop	r12
    29c6:	08 95       	ret

000029c8 <calibration_sequence>:



uint8_t calibration_sequence(){
    29c8:	cf 92       	push	r12
    29ca:	df 92       	push	r13
    29cc:	ef 92       	push	r14
    29ce:	ff 92       	push	r15
    29d0:	0f 93       	push	r16
    29d2:	1f 93       	push	r17
    29d4:	cf 93       	push	r28
    29d6:	df 93       	push	r29
    29d8:	cd b7       	in	r28, 0x3d	; 61
    29da:	de b7       	in	r29, 0x3e	; 62
    29dc:	c6 54       	subi	r28, 0x46	; 70
    29de:	d1 09       	sbc	r29, r1
    29e0:	0f b6       	in	r0, 0x3f	; 63
    29e2:	f8 94       	cli
    29e4:	de bf       	out	0x3e, r29	; 62
    29e6:	0f be       	out	0x3f, r0	; 63
    29e8:	cd bf       	out	0x3d, r28	; 61
	uint16_t calibatrionMass = tensometer[calibrating_tensometer].calibatrionMass;
    29ea:	80 91 5a 08 	lds	r24, 0x085A	; 0x80085a <calibrating_tensometer>
    29ee:	28 2f       	mov	r18, r24
    29f0:	30 e0       	ldi	r19, 0x00	; 0
    29f2:	47 e1       	ldi	r20, 0x17	; 23
    29f4:	42 9f       	mul	r20, r18
    29f6:	c0 01       	movw	r24, r0
    29f8:	43 9f       	mul	r20, r19
    29fa:	90 0d       	add	r25, r0
    29fc:	11 24       	eor	r1, r1
    29fe:	8b 5e       	subi	r24, 0xEB	; 235
    2a00:	93 4f       	sbci	r25, 0xF3	; 243
    2a02:	fc 01       	movw	r30, r24
    2a04:	80 81       	ld	r24, Z
    2a06:	91 81       	ldd	r25, Z+1	; 0x01
    2a08:	9a 87       	std	Y+10, r25	; 0x0a
    2a0a:	89 87       	std	Y+9, r24	; 0x09
	
	modbus_puts_s(PSTR("kalibracja rozpoczeta!! Zdejmij obciazenie z belki za:"));
    2a0c:	88 eb       	ldi	r24, 0xB8	; 184
    2a0e:	97 e0       	ldi	r25, 0x07	; 7
    2a10:	0e 94 cb 0a 	call	0x1596	; 0x1596 <modbus_puts_s>
	for (int i=TENSOMETER_CALIBRATION_COUTING;i>=0;i--){
    2a14:	85 e0       	ldi	r24, 0x05	; 5
    2a16:	90 e0       	ldi	r25, 0x00	; 0
    2a18:	9a 83       	std	Y+2, r25	; 0x02
    2a1a:	89 83       	std	Y+1, r24	; 0x01
    2a1c:	7e c0       	rjmp	.+252    	; 0x2b1a <calibration_sequence+0x152>
		modbus_puts_var_int(PSTR(" Count: "),i);
    2a1e:	8f ee       	ldi	r24, 0xEF	; 239
    2a20:	97 e0       	ldi	r25, 0x07	; 7
    2a22:	29 81       	ldd	r18, Y+1	; 0x01
    2a24:	3a 81       	ldd	r19, Y+2	; 0x02
    2a26:	b9 01       	movw	r22, r18
    2a28:	0e 94 e7 0a 	call	0x15ce	; 0x15ce <modbus_puts_var_int>
    2a2c:	80 e0       	ldi	r24, 0x00	; 0
    2a2e:	90 e0       	ldi	r25, 0x00	; 0
    2a30:	aa e7       	ldi	r26, 0x7A	; 122
    2a32:	b4 e4       	ldi	r27, 0x44	; 68
    2a34:	8f 87       	std	Y+15, r24	; 0x0f
    2a36:	98 8b       	std	Y+16, r25	; 0x10
    2a38:	a9 8b       	std	Y+17, r26	; 0x11
    2a3a:	ba 8b       	std	Y+18, r27	; 0x12

	__builtin_avr_delay_cycles(__ticks_dc);

#else
	uint16_t __ticks;
	__tmp = ((F_CPU) / 4e3) * __ms;
    2a3c:	20 e0       	ldi	r18, 0x00	; 0
    2a3e:	30 e0       	ldi	r19, 0x00	; 0
    2a40:	4a e7       	ldi	r20, 0x7A	; 122
    2a42:	55 e4       	ldi	r21, 0x45	; 69
    2a44:	6f 85       	ldd	r22, Y+15	; 0x0f
    2a46:	78 89       	ldd	r23, Y+16	; 0x10
    2a48:	89 89       	ldd	r24, Y+17	; 0x11
    2a4a:	9a 89       	ldd	r25, Y+18	; 0x12
    2a4c:	0e 94 6c 23 	call	0x46d8	; 0x46d8 <__mulsf3>
    2a50:	dc 01       	movw	r26, r24
    2a52:	cb 01       	movw	r24, r22
    2a54:	8b 8b       	std	Y+19, r24	; 0x13
    2a56:	9c 8b       	std	Y+20, r25	; 0x14
    2a58:	ad 8b       	std	Y+21, r26	; 0x15
    2a5a:	be 8b       	std	Y+22, r27	; 0x16
	if (__tmp < 1.0)
    2a5c:	20 e0       	ldi	r18, 0x00	; 0
    2a5e:	30 e0       	ldi	r19, 0x00	; 0
    2a60:	40 e8       	ldi	r20, 0x80	; 128
    2a62:	5f e3       	ldi	r21, 0x3F	; 63
    2a64:	6b 89       	ldd	r22, Y+19	; 0x13
    2a66:	7c 89       	ldd	r23, Y+20	; 0x14
    2a68:	8d 89       	ldd	r24, Y+21	; 0x15
    2a6a:	9e 89       	ldd	r25, Y+22	; 0x16
    2a6c:	0e 94 19 22 	call	0x4432	; 0x4432 <__cmpsf2>
    2a70:	88 23       	and	r24, r24
    2a72:	2c f4       	brge	.+10     	; 0x2a7e <calibration_sequence+0xb6>
		__ticks = 1;
    2a74:	81 e0       	ldi	r24, 0x01	; 1
    2a76:	90 e0       	ldi	r25, 0x00	; 0
    2a78:	98 8f       	std	Y+24, r25	; 0x18
    2a7a:	8f 8b       	std	Y+23, r24	; 0x17
    2a7c:	3f c0       	rjmp	.+126    	; 0x2afc <calibration_sequence+0x134>
	else if (__tmp > 65535)
    2a7e:	20 e0       	ldi	r18, 0x00	; 0
    2a80:	3f ef       	ldi	r19, 0xFF	; 255
    2a82:	4f e7       	ldi	r20, 0x7F	; 127
    2a84:	57 e4       	ldi	r21, 0x47	; 71
    2a86:	6b 89       	ldd	r22, Y+19	; 0x13
    2a88:	7c 89       	ldd	r23, Y+20	; 0x14
    2a8a:	8d 89       	ldd	r24, Y+21	; 0x15
    2a8c:	9e 89       	ldd	r25, Y+22	; 0x16
    2a8e:	0e 94 68 23 	call	0x46d0	; 0x46d0 <__gesf2>
    2a92:	18 16       	cp	r1, r24
    2a94:	4c f5       	brge	.+82     	; 0x2ae8 <calibration_sequence+0x120>
	{
		//	__ticks = requested delay in 1/10 ms
		__ticks = (uint16_t) (__ms * 10.0);
    2a96:	20 e0       	ldi	r18, 0x00	; 0
    2a98:	30 e0       	ldi	r19, 0x00	; 0
    2a9a:	40 e2       	ldi	r20, 0x20	; 32
    2a9c:	51 e4       	ldi	r21, 0x41	; 65
    2a9e:	6f 85       	ldd	r22, Y+15	; 0x0f
    2aa0:	78 89       	ldd	r23, Y+16	; 0x10
    2aa2:	89 89       	ldd	r24, Y+17	; 0x11
    2aa4:	9a 89       	ldd	r25, Y+18	; 0x12
    2aa6:	0e 94 6c 23 	call	0x46d8	; 0x46d8 <__mulsf3>
    2aaa:	dc 01       	movw	r26, r24
    2aac:	cb 01       	movw	r24, r22
    2aae:	bc 01       	movw	r22, r24
    2ab0:	cd 01       	movw	r24, r26
    2ab2:	0e 94 8a 22 	call	0x4514	; 0x4514 <__fixunssfsi>
    2ab6:	dc 01       	movw	r26, r24
    2ab8:	cb 01       	movw	r24, r22
    2aba:	98 8f       	std	Y+24, r25	; 0x18
    2abc:	8f 8b       	std	Y+23, r24	; 0x17
    2abe:	0f c0       	rjmp	.+30     	; 0x2ade <calibration_sequence+0x116>
    2ac0:	80 e9       	ldi	r24, 0x90	; 144
    2ac2:	91 e0       	ldi	r25, 0x01	; 1
    2ac4:	9a 8f       	std	Y+26, r25	; 0x1a
    2ac6:	89 8f       	std	Y+25, r24	; 0x19
    2ac8:	89 8d       	ldd	r24, Y+25	; 0x19
    2aca:	9a 8d       	ldd	r25, Y+26	; 0x1a
    2acc:	01 97       	sbiw	r24, 0x01	; 1
    2ace:	f1 f7       	brne	.-4      	; 0x2acc <calibration_sequence+0x104>
    2ad0:	9a 8f       	std	Y+26, r25	; 0x1a
    2ad2:	89 8f       	std	Y+25, r24	; 0x19
		while(__ticks)
		{
			// wait 1/10 ms
			_delay_loop_2(((F_CPU) / 4e3) / 10);
			__ticks --;
    2ad4:	8f 89       	ldd	r24, Y+23	; 0x17
    2ad6:	98 8d       	ldd	r25, Y+24	; 0x18
    2ad8:	01 97       	sbiw	r24, 0x01	; 1
    2ada:	98 8f       	std	Y+24, r25	; 0x18
    2adc:	8f 8b       	std	Y+23, r24	; 0x17
		__ticks = 1;
	else if (__tmp > 65535)
	{
		//	__ticks = requested delay in 1/10 ms
		__ticks = (uint16_t) (__ms * 10.0);
		while(__ticks)
    2ade:	8f 89       	ldd	r24, Y+23	; 0x17
    2ae0:	98 8d       	ldd	r25, Y+24	; 0x18
    2ae2:	89 2b       	or	r24, r25
    2ae4:	69 f7       	brne	.-38     	; 0x2ac0 <calibration_sequence+0xf8>
    2ae6:	14 c0       	rjmp	.+40     	; 0x2b10 <calibration_sequence+0x148>
			__ticks --;
		}
		return;
	}
	else
		__ticks = (uint16_t)__tmp;
    2ae8:	6b 89       	ldd	r22, Y+19	; 0x13
    2aea:	7c 89       	ldd	r23, Y+20	; 0x14
    2aec:	8d 89       	ldd	r24, Y+21	; 0x15
    2aee:	9e 89       	ldd	r25, Y+22	; 0x16
    2af0:	0e 94 8a 22 	call	0x4514	; 0x4514 <__fixunssfsi>
    2af4:	dc 01       	movw	r26, r24
    2af6:	cb 01       	movw	r24, r22
    2af8:	98 8f       	std	Y+24, r25	; 0x18
    2afa:	8f 8b       	std	Y+23, r24	; 0x17
    2afc:	8f 89       	ldd	r24, Y+23	; 0x17
    2afe:	98 8d       	ldd	r25, Y+24	; 0x18
    2b00:	9c 8f       	std	Y+28, r25	; 0x1c
    2b02:	8b 8f       	std	Y+27, r24	; 0x1b
    2b04:	8b 8d       	ldd	r24, Y+27	; 0x1b
    2b06:	9c 8d       	ldd	r25, Y+28	; 0x1c
    2b08:	01 97       	sbiw	r24, 0x01	; 1
    2b0a:	f1 f7       	brne	.-4      	; 0x2b08 <calibration_sequence+0x140>
    2b0c:	9c 8f       	std	Y+28, r25	; 0x1c
    2b0e:	8b 8f       	std	Y+27, r24	; 0x1b

uint8_t calibration_sequence(){
	uint16_t calibatrionMass = tensometer[calibrating_tensometer].calibatrionMass;
	
	modbus_puts_s(PSTR("kalibracja rozpoczeta!! Zdejmij obciazenie z belki za:"));
	for (int i=TENSOMETER_CALIBRATION_COUTING;i>=0;i--){
    2b10:	89 81       	ldd	r24, Y+1	; 0x01
    2b12:	9a 81       	ldd	r25, Y+2	; 0x02
    2b14:	01 97       	sbiw	r24, 0x01	; 1
    2b16:	9a 83       	std	Y+2, r25	; 0x02
    2b18:	89 83       	std	Y+1, r24	; 0x01
    2b1a:	89 81       	ldd	r24, Y+1	; 0x01
    2b1c:	9a 81       	ldd	r25, Y+2	; 0x02
    2b1e:	99 23       	and	r25, r25
    2b20:	0c f0       	brlt	.+2      	; 0x2b24 <calibration_sequence+0x15c>
    2b22:	7d cf       	rjmp	.-262    	; 0x2a1e <calibration_sequence+0x56>
		modbus_puts_var_int(PSTR(" Count: "),i);
		_delay_ms(1000);
	}
	for (int i=0;i<TENSOMETER_CALIBRATION_COUTING;i++){
    2b24:	1c 82       	std	Y+4, r1	; 0x04
    2b26:	1b 82       	std	Y+3, r1	; 0x03
    2b28:	7c c0       	rjmp	.+248    	; 0x2c22 <calibration_sequence+0x25a>
		make_tensometer_measure(calibrating_tensometer);
    2b2a:	80 91 5a 08 	lds	r24, 0x085A	; 0x80085a <calibrating_tensometer>
    2b2e:	88 2f       	mov	r24, r24
    2b30:	90 e0       	ldi	r25, 0x00	; 0
    2b32:	20 d5       	rcall	.+2624   	; 0x3574 <make_tensometer_measure>
    2b34:	80 e0       	ldi	r24, 0x00	; 0
    2b36:	90 e0       	ldi	r25, 0x00	; 0
    2b38:	a8 ec       	ldi	r26, 0xC8	; 200
    2b3a:	b2 e4       	ldi	r27, 0x42	; 66
    2b3c:	8d 8f       	std	Y+29, r24	; 0x1d
    2b3e:	9e 8f       	std	Y+30, r25	; 0x1e
    2b40:	af 8f       	std	Y+31, r26	; 0x1f
    2b42:	b8 a3       	std	Y+32, r27	; 0x20

	__builtin_avr_delay_cycles(__ticks_dc);

#else
	uint16_t __ticks;
	__tmp = ((F_CPU) / 4e3) * __ms;
    2b44:	20 e0       	ldi	r18, 0x00	; 0
    2b46:	30 e0       	ldi	r19, 0x00	; 0
    2b48:	4a e7       	ldi	r20, 0x7A	; 122
    2b4a:	55 e4       	ldi	r21, 0x45	; 69
    2b4c:	6d 8d       	ldd	r22, Y+29	; 0x1d
    2b4e:	7e 8d       	ldd	r23, Y+30	; 0x1e
    2b50:	8f 8d       	ldd	r24, Y+31	; 0x1f
    2b52:	98 a1       	ldd	r25, Y+32	; 0x20
    2b54:	0e 94 6c 23 	call	0x46d8	; 0x46d8 <__mulsf3>
    2b58:	dc 01       	movw	r26, r24
    2b5a:	cb 01       	movw	r24, r22
    2b5c:	89 a3       	std	Y+33, r24	; 0x21
    2b5e:	9a a3       	std	Y+34, r25	; 0x22
    2b60:	ab a3       	std	Y+35, r26	; 0x23
    2b62:	bc a3       	std	Y+36, r27	; 0x24
	if (__tmp < 1.0)
    2b64:	20 e0       	ldi	r18, 0x00	; 0
    2b66:	30 e0       	ldi	r19, 0x00	; 0
    2b68:	40 e8       	ldi	r20, 0x80	; 128
    2b6a:	5f e3       	ldi	r21, 0x3F	; 63
    2b6c:	69 a1       	ldd	r22, Y+33	; 0x21
    2b6e:	7a a1       	ldd	r23, Y+34	; 0x22
    2b70:	8b a1       	ldd	r24, Y+35	; 0x23
    2b72:	9c a1       	ldd	r25, Y+36	; 0x24
    2b74:	0e 94 19 22 	call	0x4432	; 0x4432 <__cmpsf2>
    2b78:	88 23       	and	r24, r24
    2b7a:	2c f4       	brge	.+10     	; 0x2b86 <calibration_sequence+0x1be>
		__ticks = 1;
    2b7c:	81 e0       	ldi	r24, 0x01	; 1
    2b7e:	90 e0       	ldi	r25, 0x00	; 0
    2b80:	9e a3       	std	Y+38, r25	; 0x26
    2b82:	8d a3       	std	Y+37, r24	; 0x25
    2b84:	3f c0       	rjmp	.+126    	; 0x2c04 <calibration_sequence+0x23c>
	else if (__tmp > 65535)
    2b86:	20 e0       	ldi	r18, 0x00	; 0
    2b88:	3f ef       	ldi	r19, 0xFF	; 255
    2b8a:	4f e7       	ldi	r20, 0x7F	; 127
    2b8c:	57 e4       	ldi	r21, 0x47	; 71
    2b8e:	69 a1       	ldd	r22, Y+33	; 0x21
    2b90:	7a a1       	ldd	r23, Y+34	; 0x22
    2b92:	8b a1       	ldd	r24, Y+35	; 0x23
    2b94:	9c a1       	ldd	r25, Y+36	; 0x24
    2b96:	0e 94 68 23 	call	0x46d0	; 0x46d0 <__gesf2>
    2b9a:	18 16       	cp	r1, r24
    2b9c:	4c f5       	brge	.+82     	; 0x2bf0 <calibration_sequence+0x228>
	{
		//	__ticks = requested delay in 1/10 ms
		__ticks = (uint16_t) (__ms * 10.0);
    2b9e:	20 e0       	ldi	r18, 0x00	; 0
    2ba0:	30 e0       	ldi	r19, 0x00	; 0
    2ba2:	40 e2       	ldi	r20, 0x20	; 32
    2ba4:	51 e4       	ldi	r21, 0x41	; 65
    2ba6:	6d 8d       	ldd	r22, Y+29	; 0x1d
    2ba8:	7e 8d       	ldd	r23, Y+30	; 0x1e
    2baa:	8f 8d       	ldd	r24, Y+31	; 0x1f
    2bac:	98 a1       	ldd	r25, Y+32	; 0x20
    2bae:	0e 94 6c 23 	call	0x46d8	; 0x46d8 <__mulsf3>
    2bb2:	dc 01       	movw	r26, r24
    2bb4:	cb 01       	movw	r24, r22
    2bb6:	bc 01       	movw	r22, r24
    2bb8:	cd 01       	movw	r24, r26
    2bba:	0e 94 8a 22 	call	0x4514	; 0x4514 <__fixunssfsi>
    2bbe:	dc 01       	movw	r26, r24
    2bc0:	cb 01       	movw	r24, r22
    2bc2:	9e a3       	std	Y+38, r25	; 0x26
    2bc4:	8d a3       	std	Y+37, r24	; 0x25
    2bc6:	0f c0       	rjmp	.+30     	; 0x2be6 <calibration_sequence+0x21e>
    2bc8:	80 e9       	ldi	r24, 0x90	; 144
    2bca:	91 e0       	ldi	r25, 0x01	; 1
    2bcc:	98 a7       	std	Y+40, r25	; 0x28
    2bce:	8f a3       	std	Y+39, r24	; 0x27
    2bd0:	8f a1       	ldd	r24, Y+39	; 0x27
    2bd2:	98 a5       	ldd	r25, Y+40	; 0x28
    2bd4:	01 97       	sbiw	r24, 0x01	; 1
    2bd6:	f1 f7       	brne	.-4      	; 0x2bd4 <calibration_sequence+0x20c>
    2bd8:	98 a7       	std	Y+40, r25	; 0x28
    2bda:	8f a3       	std	Y+39, r24	; 0x27
		while(__ticks)
		{
			// wait 1/10 ms
			_delay_loop_2(((F_CPU) / 4e3) / 10);
			__ticks --;
    2bdc:	8d a1       	ldd	r24, Y+37	; 0x25
    2bde:	9e a1       	ldd	r25, Y+38	; 0x26
    2be0:	01 97       	sbiw	r24, 0x01	; 1
    2be2:	9e a3       	std	Y+38, r25	; 0x26
    2be4:	8d a3       	std	Y+37, r24	; 0x25
		__ticks = 1;
	else if (__tmp > 65535)
	{
		//	__ticks = requested delay in 1/10 ms
		__ticks = (uint16_t) (__ms * 10.0);
		while(__ticks)
    2be6:	8d a1       	ldd	r24, Y+37	; 0x25
    2be8:	9e a1       	ldd	r25, Y+38	; 0x26
    2bea:	89 2b       	or	r24, r25
    2bec:	69 f7       	brne	.-38     	; 0x2bc8 <calibration_sequence+0x200>
    2bee:	14 c0       	rjmp	.+40     	; 0x2c18 <calibration_sequence+0x250>
			__ticks --;
		}
		return;
	}
	else
		__ticks = (uint16_t)__tmp;
    2bf0:	69 a1       	ldd	r22, Y+33	; 0x21
    2bf2:	7a a1       	ldd	r23, Y+34	; 0x22
    2bf4:	8b a1       	ldd	r24, Y+35	; 0x23
    2bf6:	9c a1       	ldd	r25, Y+36	; 0x24
    2bf8:	0e 94 8a 22 	call	0x4514	; 0x4514 <__fixunssfsi>
    2bfc:	dc 01       	movw	r26, r24
    2bfe:	cb 01       	movw	r24, r22
    2c00:	9e a3       	std	Y+38, r25	; 0x26
    2c02:	8d a3       	std	Y+37, r24	; 0x25
    2c04:	8d a1       	ldd	r24, Y+37	; 0x25
    2c06:	9e a1       	ldd	r25, Y+38	; 0x26
    2c08:	9a a7       	std	Y+42, r25	; 0x2a
    2c0a:	89 a7       	std	Y+41, r24	; 0x29
    2c0c:	89 a5       	ldd	r24, Y+41	; 0x29
    2c0e:	9a a5       	ldd	r25, Y+42	; 0x2a
    2c10:	01 97       	sbiw	r24, 0x01	; 1
    2c12:	f1 f7       	brne	.-4      	; 0x2c10 <calibration_sequence+0x248>
    2c14:	9a a7       	std	Y+42, r25	; 0x2a
    2c16:	89 a7       	std	Y+41, r24	; 0x29
	modbus_puts_s(PSTR("kalibracja rozpoczeta!! Zdejmij obciazenie z belki za:"));
	for (int i=TENSOMETER_CALIBRATION_COUTING;i>=0;i--){
		modbus_puts_var_int(PSTR(" Count: "),i);
		_delay_ms(1000);
	}
	for (int i=0;i<TENSOMETER_CALIBRATION_COUTING;i++){
    2c18:	8b 81       	ldd	r24, Y+3	; 0x03
    2c1a:	9c 81       	ldd	r25, Y+4	; 0x04
    2c1c:	01 96       	adiw	r24, 0x01	; 1
    2c1e:	9c 83       	std	Y+4, r25	; 0x04
    2c20:	8b 83       	std	Y+3, r24	; 0x03
    2c22:	8b 81       	ldd	r24, Y+3	; 0x03
    2c24:	9c 81       	ldd	r25, Y+4	; 0x04
    2c26:	05 97       	sbiw	r24, 0x05	; 5
    2c28:	0c f4       	brge	.+2      	; 0x2c2c <calibration_sequence+0x264>
    2c2a:	7f cf       	rjmp	.-258    	; 0x2b2a <calibration_sequence+0x162>
		make_tensometer_measure(calibrating_tensometer);
		_delay_ms(TENSOMETER_CALIBRATION_INTERVAL_MS);
	}
	
	int16_t adc_code_noload = (int16_t)tensometer[calibrating_tensometer].RAW_Value;
    2c2c:	80 91 5a 08 	lds	r24, 0x085A	; 0x80085a <calibrating_tensometer>
    2c30:	28 2f       	mov	r18, r24
    2c32:	30 e0       	ldi	r19, 0x00	; 0
    2c34:	47 e1       	ldi	r20, 0x17	; 23
    2c36:	42 9f       	mul	r20, r18
    2c38:	c0 01       	movw	r24, r0
    2c3a:	43 9f       	mul	r20, r19
    2c3c:	90 0d       	add	r25, r0
    2c3e:	11 24       	eor	r1, r1
    2c40:	80 50       	subi	r24, 0x00	; 0
    2c42:	94 4f       	sbci	r25, 0xF4	; 244
    2c44:	fc 01       	movw	r30, r24
    2c46:	80 81       	ld	r24, Z
    2c48:	91 81       	ldd	r25, Z+1	; 0x01
    2c4a:	9c 87       	std	Y+12, r25	; 0x0c
    2c4c:	8b 87       	std	Y+11, r24	; 0x0b
	
	modbus_puts_s(PSTR("Zaloz obciazenie testowe za:"));
    2c4e:	88 ef       	ldi	r24, 0xF8	; 248
    2c50:	97 e0       	ldi	r25, 0x07	; 7
    2c52:	0e 94 cb 0a 	call	0x1596	; 0x1596 <modbus_puts_s>
	for (int i=TENSOMETER_CALIBRATION_COUTING;i>=0;i--){
    2c56:	85 e0       	ldi	r24, 0x05	; 5
    2c58:	90 e0       	ldi	r25, 0x00	; 0
    2c5a:	9e 83       	std	Y+6, r25	; 0x06
    2c5c:	8d 83       	std	Y+5, r24	; 0x05
    2c5e:	7e c0       	rjmp	.+252    	; 0x2d5c <calibration_sequence+0x394>
		modbus_puts_var_int(PSTR(" Count: "),i);
    2c60:	85 e1       	ldi	r24, 0x15	; 21
    2c62:	98 e0       	ldi	r25, 0x08	; 8
    2c64:	2d 81       	ldd	r18, Y+5	; 0x05
    2c66:	3e 81       	ldd	r19, Y+6	; 0x06
    2c68:	b9 01       	movw	r22, r18
    2c6a:	0e 94 e7 0a 	call	0x15ce	; 0x15ce <modbus_puts_var_int>
    2c6e:	80 e0       	ldi	r24, 0x00	; 0
    2c70:	90 e0       	ldi	r25, 0x00	; 0
    2c72:	aa e7       	ldi	r26, 0x7A	; 122
    2c74:	b4 e4       	ldi	r27, 0x44	; 68
    2c76:	8b a7       	std	Y+43, r24	; 0x2b
    2c78:	9c a7       	std	Y+44, r25	; 0x2c
    2c7a:	ad a7       	std	Y+45, r26	; 0x2d
    2c7c:	be a7       	std	Y+46, r27	; 0x2e

	__builtin_avr_delay_cycles(__ticks_dc);

#else
	uint16_t __ticks;
	__tmp = ((F_CPU) / 4e3) * __ms;
    2c7e:	20 e0       	ldi	r18, 0x00	; 0
    2c80:	30 e0       	ldi	r19, 0x00	; 0
    2c82:	4a e7       	ldi	r20, 0x7A	; 122
    2c84:	55 e4       	ldi	r21, 0x45	; 69
    2c86:	6b a5       	ldd	r22, Y+43	; 0x2b
    2c88:	7c a5       	ldd	r23, Y+44	; 0x2c
    2c8a:	8d a5       	ldd	r24, Y+45	; 0x2d
    2c8c:	9e a5       	ldd	r25, Y+46	; 0x2e
    2c8e:	0e 94 6c 23 	call	0x46d8	; 0x46d8 <__mulsf3>
    2c92:	dc 01       	movw	r26, r24
    2c94:	cb 01       	movw	r24, r22
    2c96:	8f a7       	std	Y+47, r24	; 0x2f
    2c98:	98 ab       	std	Y+48, r25	; 0x30
    2c9a:	a9 ab       	std	Y+49, r26	; 0x31
    2c9c:	ba ab       	std	Y+50, r27	; 0x32
	if (__tmp < 1.0)
    2c9e:	20 e0       	ldi	r18, 0x00	; 0
    2ca0:	30 e0       	ldi	r19, 0x00	; 0
    2ca2:	40 e8       	ldi	r20, 0x80	; 128
    2ca4:	5f e3       	ldi	r21, 0x3F	; 63
    2ca6:	6f a5       	ldd	r22, Y+47	; 0x2f
    2ca8:	78 a9       	ldd	r23, Y+48	; 0x30
    2caa:	89 a9       	ldd	r24, Y+49	; 0x31
    2cac:	9a a9       	ldd	r25, Y+50	; 0x32
    2cae:	0e 94 19 22 	call	0x4432	; 0x4432 <__cmpsf2>
    2cb2:	88 23       	and	r24, r24
    2cb4:	2c f4       	brge	.+10     	; 0x2cc0 <calibration_sequence+0x2f8>
		__ticks = 1;
    2cb6:	81 e0       	ldi	r24, 0x01	; 1
    2cb8:	90 e0       	ldi	r25, 0x00	; 0
    2cba:	9c ab       	std	Y+52, r25	; 0x34
    2cbc:	8b ab       	std	Y+51, r24	; 0x33
    2cbe:	3f c0       	rjmp	.+126    	; 0x2d3e <calibration_sequence+0x376>
	else if (__tmp > 65535)
    2cc0:	20 e0       	ldi	r18, 0x00	; 0
    2cc2:	3f ef       	ldi	r19, 0xFF	; 255
    2cc4:	4f e7       	ldi	r20, 0x7F	; 127
    2cc6:	57 e4       	ldi	r21, 0x47	; 71
    2cc8:	6f a5       	ldd	r22, Y+47	; 0x2f
    2cca:	78 a9       	ldd	r23, Y+48	; 0x30
    2ccc:	89 a9       	ldd	r24, Y+49	; 0x31
    2cce:	9a a9       	ldd	r25, Y+50	; 0x32
    2cd0:	0e 94 68 23 	call	0x46d0	; 0x46d0 <__gesf2>
    2cd4:	18 16       	cp	r1, r24
    2cd6:	4c f5       	brge	.+82     	; 0x2d2a <calibration_sequence+0x362>
	{
		//	__ticks = requested delay in 1/10 ms
		__ticks = (uint16_t) (__ms * 10.0);
    2cd8:	20 e0       	ldi	r18, 0x00	; 0
    2cda:	30 e0       	ldi	r19, 0x00	; 0
    2cdc:	40 e2       	ldi	r20, 0x20	; 32
    2cde:	51 e4       	ldi	r21, 0x41	; 65
    2ce0:	6b a5       	ldd	r22, Y+43	; 0x2b
    2ce2:	7c a5       	ldd	r23, Y+44	; 0x2c
    2ce4:	8d a5       	ldd	r24, Y+45	; 0x2d
    2ce6:	9e a5       	ldd	r25, Y+46	; 0x2e
    2ce8:	0e 94 6c 23 	call	0x46d8	; 0x46d8 <__mulsf3>
    2cec:	dc 01       	movw	r26, r24
    2cee:	cb 01       	movw	r24, r22
    2cf0:	bc 01       	movw	r22, r24
    2cf2:	cd 01       	movw	r24, r26
    2cf4:	0e 94 8a 22 	call	0x4514	; 0x4514 <__fixunssfsi>
    2cf8:	dc 01       	movw	r26, r24
    2cfa:	cb 01       	movw	r24, r22
    2cfc:	9c ab       	std	Y+52, r25	; 0x34
    2cfe:	8b ab       	std	Y+51, r24	; 0x33
    2d00:	0f c0       	rjmp	.+30     	; 0x2d20 <calibration_sequence+0x358>
    2d02:	80 e9       	ldi	r24, 0x90	; 144
    2d04:	91 e0       	ldi	r25, 0x01	; 1
    2d06:	9e ab       	std	Y+54, r25	; 0x36
    2d08:	8d ab       	std	Y+53, r24	; 0x35
    2d0a:	8d a9       	ldd	r24, Y+53	; 0x35
    2d0c:	9e a9       	ldd	r25, Y+54	; 0x36
    2d0e:	01 97       	sbiw	r24, 0x01	; 1
    2d10:	f1 f7       	brne	.-4      	; 0x2d0e <calibration_sequence+0x346>
    2d12:	9e ab       	std	Y+54, r25	; 0x36
    2d14:	8d ab       	std	Y+53, r24	; 0x35
		while(__ticks)
		{
			// wait 1/10 ms
			_delay_loop_2(((F_CPU) / 4e3) / 10);
			__ticks --;
    2d16:	8b a9       	ldd	r24, Y+51	; 0x33
    2d18:	9c a9       	ldd	r25, Y+52	; 0x34
    2d1a:	01 97       	sbiw	r24, 0x01	; 1
    2d1c:	9c ab       	std	Y+52, r25	; 0x34
    2d1e:	8b ab       	std	Y+51, r24	; 0x33
		__ticks = 1;
	else if (__tmp > 65535)
	{
		//	__ticks = requested delay in 1/10 ms
		__ticks = (uint16_t) (__ms * 10.0);
		while(__ticks)
    2d20:	8b a9       	ldd	r24, Y+51	; 0x33
    2d22:	9c a9       	ldd	r25, Y+52	; 0x34
    2d24:	89 2b       	or	r24, r25
    2d26:	69 f7       	brne	.-38     	; 0x2d02 <calibration_sequence+0x33a>
    2d28:	14 c0       	rjmp	.+40     	; 0x2d52 <calibration_sequence+0x38a>
			__ticks --;
		}
		return;
	}
	else
		__ticks = (uint16_t)__tmp;
    2d2a:	6f a5       	ldd	r22, Y+47	; 0x2f
    2d2c:	78 a9       	ldd	r23, Y+48	; 0x30
    2d2e:	89 a9       	ldd	r24, Y+49	; 0x31
    2d30:	9a a9       	ldd	r25, Y+50	; 0x32
    2d32:	0e 94 8a 22 	call	0x4514	; 0x4514 <__fixunssfsi>
    2d36:	dc 01       	movw	r26, r24
    2d38:	cb 01       	movw	r24, r22
    2d3a:	9c ab       	std	Y+52, r25	; 0x34
    2d3c:	8b ab       	std	Y+51, r24	; 0x33
    2d3e:	8b a9       	ldd	r24, Y+51	; 0x33
    2d40:	9c a9       	ldd	r25, Y+52	; 0x34
    2d42:	98 af       	std	Y+56, r25	; 0x38
    2d44:	8f ab       	std	Y+55, r24	; 0x37
    2d46:	8f a9       	ldd	r24, Y+55	; 0x37
    2d48:	98 ad       	ldd	r25, Y+56	; 0x38
    2d4a:	01 97       	sbiw	r24, 0x01	; 1
    2d4c:	f1 f7       	brne	.-4      	; 0x2d4a <calibration_sequence+0x382>
    2d4e:	98 af       	std	Y+56, r25	; 0x38
    2d50:	8f ab       	std	Y+55, r24	; 0x37
	}
	
	int16_t adc_code_noload = (int16_t)tensometer[calibrating_tensometer].RAW_Value;
	
	modbus_puts_s(PSTR("Zaloz obciazenie testowe za:"));
	for (int i=TENSOMETER_CALIBRATION_COUTING;i>=0;i--){
    2d52:	8d 81       	ldd	r24, Y+5	; 0x05
    2d54:	9e 81       	ldd	r25, Y+6	; 0x06
    2d56:	01 97       	sbiw	r24, 0x01	; 1
    2d58:	9e 83       	std	Y+6, r25	; 0x06
    2d5a:	8d 83       	std	Y+5, r24	; 0x05
    2d5c:	8d 81       	ldd	r24, Y+5	; 0x05
    2d5e:	9e 81       	ldd	r25, Y+6	; 0x06
    2d60:	99 23       	and	r25, r25
    2d62:	0c f0       	brlt	.+2      	; 0x2d66 <calibration_sequence+0x39e>
    2d64:	7d cf       	rjmp	.-262    	; 0x2c60 <calibration_sequence+0x298>
		modbus_puts_var_int(PSTR(" Count: "),i);
		_delay_ms(1000);
	}
	
	for (int i=0;i<TENSOMETER_CALIBRATION_COUTING;i++){
    2d66:	18 86       	std	Y+8, r1	; 0x08
    2d68:	1f 82       	std	Y+7, r1	; 0x07
    2d6a:	bf c0       	rjmp	.+382    	; 0x2eea <calibration_sequence+0x522>
		make_tensometer_measure(calibrating_tensometer);
    2d6c:	80 91 5a 08 	lds	r24, 0x085A	; 0x80085a <calibrating_tensometer>
    2d70:	88 2f       	mov	r24, r24
    2d72:	90 e0       	ldi	r25, 0x00	; 0
    2d74:	ff d3       	rcall	.+2046   	; 0x3574 <make_tensometer_measure>
    2d76:	80 e0       	ldi	r24, 0x00	; 0
    2d78:	90 e0       	ldi	r25, 0x00	; 0
    2d7a:	a8 ec       	ldi	r26, 0xC8	; 200
    2d7c:	b2 e4       	ldi	r27, 0x42	; 66
    2d7e:	89 af       	std	Y+57, r24	; 0x39
    2d80:	9a af       	std	Y+58, r25	; 0x3a
    2d82:	ab af       	std	Y+59, r26	; 0x3b
    2d84:	bc af       	std	Y+60, r27	; 0x3c

	__builtin_avr_delay_cycles(__ticks_dc);

#else
	uint16_t __ticks;
	__tmp = ((F_CPU) / 4e3) * __ms;
    2d86:	20 e0       	ldi	r18, 0x00	; 0
    2d88:	30 e0       	ldi	r19, 0x00	; 0
    2d8a:	4a e7       	ldi	r20, 0x7A	; 122
    2d8c:	55 e4       	ldi	r21, 0x45	; 69
    2d8e:	69 ad       	ldd	r22, Y+57	; 0x39
    2d90:	7a ad       	ldd	r23, Y+58	; 0x3a
    2d92:	8b ad       	ldd	r24, Y+59	; 0x3b
    2d94:	9c ad       	ldd	r25, Y+60	; 0x3c
    2d96:	0e 94 6c 23 	call	0x46d8	; 0x46d8 <__mulsf3>
    2d9a:	dc 01       	movw	r26, r24
    2d9c:	cb 01       	movw	r24, r22
    2d9e:	9e 01       	movw	r18, r28
    2da0:	23 5c       	subi	r18, 0xC3	; 195
    2da2:	3f 4f       	sbci	r19, 0xFF	; 255
    2da4:	f9 01       	movw	r30, r18
    2da6:	80 83       	st	Z, r24
    2da8:	91 83       	std	Z+1, r25	; 0x01
    2daa:	a2 83       	std	Z+2, r26	; 0x02
    2dac:	b3 83       	std	Z+3, r27	; 0x03
	if (__tmp < 1.0)
    2dae:	20 e0       	ldi	r18, 0x00	; 0
    2db0:	30 e0       	ldi	r19, 0x00	; 0
    2db2:	40 e8       	ldi	r20, 0x80	; 128
    2db4:	5f e3       	ldi	r21, 0x3F	; 63
    2db6:	ce 01       	movw	r24, r28
    2db8:	cd 96       	adiw	r24, 0x3d	; 61
    2dba:	fc 01       	movw	r30, r24
    2dbc:	60 81       	ld	r22, Z
    2dbe:	71 81       	ldd	r23, Z+1	; 0x01
    2dc0:	82 81       	ldd	r24, Z+2	; 0x02
    2dc2:	93 81       	ldd	r25, Z+3	; 0x03
    2dc4:	0e 94 19 22 	call	0x4432	; 0x4432 <__cmpsf2>
    2dc8:	88 23       	and	r24, r24
    2dca:	4c f4       	brge	.+18     	; 0x2dde <calibration_sequence+0x416>
		__ticks = 1;
    2dcc:	ce 01       	movw	r24, r28
    2dce:	8f 5b       	subi	r24, 0xBF	; 191
    2dd0:	9f 4f       	sbci	r25, 0xFF	; 255
    2dd2:	21 e0       	ldi	r18, 0x01	; 1
    2dd4:	30 e0       	ldi	r19, 0x00	; 0
    2dd6:	fc 01       	movw	r30, r24
    2dd8:	31 83       	std	Z+1, r19	; 0x01
    2dda:	20 83       	st	Z, r18
    2ddc:	67 c0       	rjmp	.+206    	; 0x2eac <calibration_sequence+0x4e4>
	else if (__tmp > 65535)
    2dde:	20 e0       	ldi	r18, 0x00	; 0
    2de0:	3f ef       	ldi	r19, 0xFF	; 255
    2de2:	4f e7       	ldi	r20, 0x7F	; 127
    2de4:	57 e4       	ldi	r21, 0x47	; 71
    2de6:	ce 01       	movw	r24, r28
    2de8:	cd 96       	adiw	r24, 0x3d	; 61
    2dea:	fc 01       	movw	r30, r24
    2dec:	60 81       	ld	r22, Z
    2dee:	71 81       	ldd	r23, Z+1	; 0x01
    2df0:	82 81       	ldd	r24, Z+2	; 0x02
    2df2:	93 81       	ldd	r25, Z+3	; 0x03
    2df4:	0e 94 68 23 	call	0x46d0	; 0x46d0 <__gesf2>
    2df8:	18 16       	cp	r1, r24
    2dfa:	0c f0       	brlt	.+2      	; 0x2dfe <calibration_sequence+0x436>
    2dfc:	46 c0       	rjmp	.+140    	; 0x2e8a <calibration_sequence+0x4c2>
	{
		//	__ticks = requested delay in 1/10 ms
		__ticks = (uint16_t) (__ms * 10.0);
    2dfe:	20 e0       	ldi	r18, 0x00	; 0
    2e00:	30 e0       	ldi	r19, 0x00	; 0
    2e02:	40 e2       	ldi	r20, 0x20	; 32
    2e04:	51 e4       	ldi	r21, 0x41	; 65
    2e06:	69 ad       	ldd	r22, Y+57	; 0x39
    2e08:	7a ad       	ldd	r23, Y+58	; 0x3a
    2e0a:	8b ad       	ldd	r24, Y+59	; 0x3b
    2e0c:	9c ad       	ldd	r25, Y+60	; 0x3c
    2e0e:	0e 94 6c 23 	call	0x46d8	; 0x46d8 <__mulsf3>
    2e12:	dc 01       	movw	r26, r24
    2e14:	cb 01       	movw	r24, r22
    2e16:	8e 01       	movw	r16, r28
    2e18:	0f 5b       	subi	r16, 0xBF	; 191
    2e1a:	1f 4f       	sbci	r17, 0xFF	; 255
    2e1c:	bc 01       	movw	r22, r24
    2e1e:	cd 01       	movw	r24, r26
    2e20:	0e 94 8a 22 	call	0x4514	; 0x4514 <__fixunssfsi>
    2e24:	dc 01       	movw	r26, r24
    2e26:	cb 01       	movw	r24, r22
    2e28:	f8 01       	movw	r30, r16
    2e2a:	91 83       	std	Z+1, r25	; 0x01
    2e2c:	80 83       	st	Z, r24
    2e2e:	24 c0       	rjmp	.+72     	; 0x2e78 <calibration_sequence+0x4b0>
    2e30:	ce 01       	movw	r24, r28
    2e32:	8d 5b       	subi	r24, 0xBD	; 189
    2e34:	9f 4f       	sbci	r25, 0xFF	; 255
    2e36:	20 e9       	ldi	r18, 0x90	; 144
    2e38:	31 e0       	ldi	r19, 0x01	; 1
    2e3a:	fc 01       	movw	r30, r24
    2e3c:	31 83       	std	Z+1, r19	; 0x01
    2e3e:	20 83       	st	Z, r18
    2e40:	ce 01       	movw	r24, r28
    2e42:	8d 5b       	subi	r24, 0xBD	; 189
    2e44:	9f 4f       	sbci	r25, 0xFF	; 255
    2e46:	fc 01       	movw	r30, r24
    2e48:	80 81       	ld	r24, Z
    2e4a:	91 81       	ldd	r25, Z+1	; 0x01
    2e4c:	01 97       	sbiw	r24, 0x01	; 1
    2e4e:	f1 f7       	brne	.-4      	; 0x2e4c <calibration_sequence+0x484>
    2e50:	9e 01       	movw	r18, r28
    2e52:	2d 5b       	subi	r18, 0xBD	; 189
    2e54:	3f 4f       	sbci	r19, 0xFF	; 255
    2e56:	f9 01       	movw	r30, r18
    2e58:	91 83       	std	Z+1, r25	; 0x01
    2e5a:	80 83       	st	Z, r24
		while(__ticks)
		{
			// wait 1/10 ms
			_delay_loop_2(((F_CPU) / 4e3) / 10);
			__ticks --;
    2e5c:	ce 01       	movw	r24, r28
    2e5e:	8f 5b       	subi	r24, 0xBF	; 191
    2e60:	9f 4f       	sbci	r25, 0xFF	; 255
    2e62:	9e 01       	movw	r18, r28
    2e64:	2f 5b       	subi	r18, 0xBF	; 191
    2e66:	3f 4f       	sbci	r19, 0xFF	; 255
    2e68:	f9 01       	movw	r30, r18
    2e6a:	20 81       	ld	r18, Z
    2e6c:	31 81       	ldd	r19, Z+1	; 0x01
    2e6e:	21 50       	subi	r18, 0x01	; 1
    2e70:	31 09       	sbc	r19, r1
    2e72:	fc 01       	movw	r30, r24
    2e74:	31 83       	std	Z+1, r19	; 0x01
    2e76:	20 83       	st	Z, r18
		__ticks = 1;
	else if (__tmp > 65535)
	{
		//	__ticks = requested delay in 1/10 ms
		__ticks = (uint16_t) (__ms * 10.0);
		while(__ticks)
    2e78:	ce 01       	movw	r24, r28
    2e7a:	8f 5b       	subi	r24, 0xBF	; 191
    2e7c:	9f 4f       	sbci	r25, 0xFF	; 255
    2e7e:	fc 01       	movw	r30, r24
    2e80:	80 81       	ld	r24, Z
    2e82:	91 81       	ldd	r25, Z+1	; 0x01
    2e84:	89 2b       	or	r24, r25
    2e86:	a1 f6       	brne	.-88     	; 0x2e30 <calibration_sequence+0x468>
    2e88:	2b c0       	rjmp	.+86     	; 0x2ee0 <calibration_sequence+0x518>
			__ticks --;
		}
		return;
	}
	else
		__ticks = (uint16_t)__tmp;
    2e8a:	8e 01       	movw	r16, r28
    2e8c:	0f 5b       	subi	r16, 0xBF	; 191
    2e8e:	1f 4f       	sbci	r17, 0xFF	; 255
    2e90:	ce 01       	movw	r24, r28
    2e92:	cd 96       	adiw	r24, 0x3d	; 61
    2e94:	fc 01       	movw	r30, r24
    2e96:	60 81       	ld	r22, Z
    2e98:	71 81       	ldd	r23, Z+1	; 0x01
    2e9a:	82 81       	ldd	r24, Z+2	; 0x02
    2e9c:	93 81       	ldd	r25, Z+3	; 0x03
    2e9e:	0e 94 8a 22 	call	0x4514	; 0x4514 <__fixunssfsi>
    2ea2:	dc 01       	movw	r26, r24
    2ea4:	cb 01       	movw	r24, r22
    2ea6:	f8 01       	movw	r30, r16
    2ea8:	91 83       	std	Z+1, r25	; 0x01
    2eaa:	80 83       	st	Z, r24
    2eac:	ce 01       	movw	r24, r28
    2eae:	8b 5b       	subi	r24, 0xBB	; 187
    2eb0:	9f 4f       	sbci	r25, 0xFF	; 255
    2eb2:	9e 01       	movw	r18, r28
    2eb4:	2f 5b       	subi	r18, 0xBF	; 191
    2eb6:	3f 4f       	sbci	r19, 0xFF	; 255
    2eb8:	f9 01       	movw	r30, r18
    2eba:	20 81       	ld	r18, Z
    2ebc:	31 81       	ldd	r19, Z+1	; 0x01
    2ebe:	fc 01       	movw	r30, r24
    2ec0:	31 83       	std	Z+1, r19	; 0x01
    2ec2:	20 83       	st	Z, r18
    2ec4:	ce 01       	movw	r24, r28
    2ec6:	8b 5b       	subi	r24, 0xBB	; 187
    2ec8:	9f 4f       	sbci	r25, 0xFF	; 255
    2eca:	fc 01       	movw	r30, r24
    2ecc:	80 81       	ld	r24, Z
    2ece:	91 81       	ldd	r25, Z+1	; 0x01
    2ed0:	01 97       	sbiw	r24, 0x01	; 1
    2ed2:	f1 f7       	brne	.-4      	; 0x2ed0 <calibration_sequence+0x508>
    2ed4:	9e 01       	movw	r18, r28
    2ed6:	2b 5b       	subi	r18, 0xBB	; 187
    2ed8:	3f 4f       	sbci	r19, 0xFF	; 255
    2eda:	f9 01       	movw	r30, r18
    2edc:	91 83       	std	Z+1, r25	; 0x01
    2ede:	80 83       	st	Z, r24
	for (int i=TENSOMETER_CALIBRATION_COUTING;i>=0;i--){
		modbus_puts_var_int(PSTR(" Count: "),i);
		_delay_ms(1000);
	}
	
	for (int i=0;i<TENSOMETER_CALIBRATION_COUTING;i++){
    2ee0:	8f 81       	ldd	r24, Y+7	; 0x07
    2ee2:	98 85       	ldd	r25, Y+8	; 0x08
    2ee4:	01 96       	adiw	r24, 0x01	; 1
    2ee6:	98 87       	std	Y+8, r25	; 0x08
    2ee8:	8f 83       	std	Y+7, r24	; 0x07
    2eea:	8f 81       	ldd	r24, Y+7	; 0x07
    2eec:	98 85       	ldd	r25, Y+8	; 0x08
    2eee:	05 97       	sbiw	r24, 0x05	; 5
    2ef0:	0c f4       	brge	.+2      	; 0x2ef4 <calibration_sequence+0x52c>
    2ef2:	3c cf       	rjmp	.-392    	; 0x2d6c <calibration_sequence+0x3a4>
		make_tensometer_measure(calibrating_tensometer);
		_delay_ms(TENSOMETER_CALIBRATION_INTERVAL_MS);
	}
	
	int16_t adc_code_mass = (int16_t)tensometer[calibrating_tensometer].RAW_Value;
    2ef4:	80 91 5a 08 	lds	r24, 0x085A	; 0x80085a <calibrating_tensometer>
    2ef8:	28 2f       	mov	r18, r24
    2efa:	30 e0       	ldi	r19, 0x00	; 0
    2efc:	47 e1       	ldi	r20, 0x17	; 23
    2efe:	42 9f       	mul	r20, r18
    2f00:	c0 01       	movw	r24, r0
    2f02:	43 9f       	mul	r20, r19
    2f04:	90 0d       	add	r25, r0
    2f06:	11 24       	eor	r1, r1
    2f08:	80 50       	subi	r24, 0x00	; 0
    2f0a:	94 4f       	sbci	r25, 0xF4	; 244
    2f0c:	fc 01       	movw	r30, r24
    2f0e:	80 81       	ld	r24, Z
    2f10:	91 81       	ldd	r25, Z+1	; 0x01
    2f12:	9e 87       	std	Y+14, r25	; 0x0e
    2f14:	8d 87       	std	Y+13, r24	; 0x0d
	
	calulate_calibration_constant(calibrating_tensometer,calibatrionMass,adc_code_mass,adc_code_noload);
    2f16:	8b 85       	ldd	r24, Y+11	; 0x0b
    2f18:	9c 85       	ldd	r25, Y+12	; 0x0c
    2f1a:	7c 01       	movw	r14, r24
    2f1c:	99 0f       	add	r25, r25
    2f1e:	00 0b       	sbc	r16, r16
    2f20:	11 0b       	sbc	r17, r17
    2f22:	8d 85       	ldd	r24, Y+13	; 0x0d
    2f24:	9e 85       	ldd	r25, Y+14	; 0x0e
    2f26:	9c 01       	movw	r18, r24
    2f28:	99 0f       	add	r25, r25
    2f2a:	44 0b       	sbc	r20, r20
    2f2c:	55 0b       	sbc	r21, r21
    2f2e:	89 85       	ldd	r24, Y+9	; 0x09
    2f30:	9a 85       	ldd	r25, Y+10	; 0x0a
    2f32:	cc 01       	movw	r24, r24
    2f34:	a0 e0       	ldi	r26, 0x00	; 0
    2f36:	b0 e0       	ldi	r27, 0x00	; 0
    2f38:	e0 91 5a 08 	lds	r30, 0x085A	; 0x80085a <calibrating_tensometer>
    2f3c:	67 01       	movw	r12, r14
    2f3e:	78 01       	movw	r14, r16
    2f40:	89 01       	movw	r16, r18
    2f42:	9a 01       	movw	r18, r20
    2f44:	ac 01       	movw	r20, r24
    2f46:	bd 01       	movw	r22, r26
    2f48:	8e 2f       	mov	r24, r30
    2f4a:	86 dc       	rcall	.-1780   	; 0x2858 <calulate_calibration_constant>
	storeDataIntoEEPROM();
    2f4c:	0e 94 0b 02 	call	0x416	; 0x416 <storeDataIntoEEPROM>
	modbus_puts_s(PSTR("Kalibracja zakonczona!!!"));
    2f50:	8e e1       	ldi	r24, 0x1E	; 30
    2f52:	98 e0       	ldi	r25, 0x08	; 8
    2f54:	0e 94 cb 0a 	call	0x1596	; 0x1596 <modbus_puts_s>
	return 1;
    2f58:	81 e0       	ldi	r24, 0x01	; 1
}
    2f5a:	ca 5b       	subi	r28, 0xBA	; 186
    2f5c:	df 4f       	sbci	r29, 0xFF	; 255
    2f5e:	0f b6       	in	r0, 0x3f	; 63
    2f60:	f8 94       	cli
    2f62:	de bf       	out	0x3e, r29	; 62
    2f64:	0f be       	out	0x3f, r0	; 63
    2f66:	cd bf       	out	0x3d, r28	; 61
    2f68:	df 91       	pop	r29
    2f6a:	cf 91       	pop	r28
    2f6c:	1f 91       	pop	r17
    2f6e:	0f 91       	pop	r16
    2f70:	ff 90       	pop	r15
    2f72:	ef 90       	pop	r14
    2f74:	df 90       	pop	r13
    2f76:	cf 90       	pop	r12
    2f78:	08 95       	ret

00002f7a <offset_calibration>:

void offset_calibration(void)
{
    2f7a:	0f 93       	push	r16
    2f7c:	1f 93       	push	r17
    2f7e:	cf 93       	push	r28
    2f80:	df 93       	push	r29
    2f82:	cd b7       	in	r28, 0x3d	; 61
    2f84:	de b7       	in	r29, 0x3e	; 62
    2f86:	c1 55       	subi	r28, 0x51	; 81
    2f88:	d1 09       	sbc	r29, r1
    2f8a:	0f b6       	in	r0, 0x3f	; 63
    2f8c:	f8 94       	cli
    2f8e:	de bf       	out	0x3e, r29	; 62
    2f90:	0f be       	out	0x3f, r0	; 63
    2f92:	cd bf       	out	0x3d, r28	; 61
	for(uint8_t i=0; i<26; i++)
    2f94:	19 82       	std	Y+1, r1	; 0x01
    2f96:	1c c2       	rjmp	.+1080   	; 0x33d0 <offset_calibration+0x456>
	{
		ADS_SCLK_HIGH;
    2f98:	88 e0       	ldi	r24, 0x08	; 8
    2f9a:	91 e0       	ldi	r25, 0x01	; 1
    2f9c:	28 e0       	ldi	r18, 0x08	; 8
    2f9e:	31 e0       	ldi	r19, 0x01	; 1
    2fa0:	f9 01       	movw	r30, r18
    2fa2:	20 81       	ld	r18, Z
    2fa4:	28 60       	ori	r18, 0x08	; 8
    2fa6:	fc 01       	movw	r30, r24
    2fa8:	20 83       	st	Z, r18
    2faa:	80 e0       	ldi	r24, 0x00	; 0
    2fac:	90 e0       	ldi	r25, 0x00	; 0
    2fae:	a0 e0       	ldi	r26, 0x00	; 0
    2fb0:	b0 e4       	ldi	r27, 0x40	; 64
    2fb2:	8a 83       	std	Y+2, r24	; 0x02
    2fb4:	9b 83       	std	Y+3, r25	; 0x03
    2fb6:	ac 83       	std	Y+4, r26	; 0x04
    2fb8:	bd 83       	std	Y+5, r27	; 0x05
	__builtin_avr_delay_cycles(__ticks_dc);

#else
	uint8_t __ticks;
	double __tmp2 ;
	__tmp = ((F_CPU) / 3e6) * __us;
    2fba:	2b ea       	ldi	r18, 0xAB	; 171
    2fbc:	3a ea       	ldi	r19, 0xAA	; 170
    2fbe:	4a ea       	ldi	r20, 0xAA	; 170
    2fc0:	50 e4       	ldi	r21, 0x40	; 64
    2fc2:	6a 81       	ldd	r22, Y+2	; 0x02
    2fc4:	7b 81       	ldd	r23, Y+3	; 0x03
    2fc6:	8c 81       	ldd	r24, Y+4	; 0x04
    2fc8:	9d 81       	ldd	r25, Y+5	; 0x05
    2fca:	0e 94 6c 23 	call	0x46d8	; 0x46d8 <__mulsf3>
    2fce:	dc 01       	movw	r26, r24
    2fd0:	cb 01       	movw	r24, r22
    2fd2:	8e 83       	std	Y+6, r24	; 0x06
    2fd4:	9f 83       	std	Y+7, r25	; 0x07
    2fd6:	a8 87       	std	Y+8, r26	; 0x08
    2fd8:	b9 87       	std	Y+9, r27	; 0x09
	__tmp2 = ((F_CPU) / 4e6) * __us;
    2fda:	20 e0       	ldi	r18, 0x00	; 0
    2fdc:	30 e0       	ldi	r19, 0x00	; 0
    2fde:	40 e8       	ldi	r20, 0x80	; 128
    2fe0:	50 e4       	ldi	r21, 0x40	; 64
    2fe2:	6a 81       	ldd	r22, Y+2	; 0x02
    2fe4:	7b 81       	ldd	r23, Y+3	; 0x03
    2fe6:	8c 81       	ldd	r24, Y+4	; 0x04
    2fe8:	9d 81       	ldd	r25, Y+5	; 0x05
    2fea:	0e 94 6c 23 	call	0x46d8	; 0x46d8 <__mulsf3>
    2fee:	dc 01       	movw	r26, r24
    2ff0:	cb 01       	movw	r24, r22
    2ff2:	8a 87       	std	Y+10, r24	; 0x0a
    2ff4:	9b 87       	std	Y+11, r25	; 0x0b
    2ff6:	ac 87       	std	Y+12, r26	; 0x0c
    2ff8:	bd 87       	std	Y+13, r27	; 0x0d
	if (__tmp < 1.0)
    2ffa:	20 e0       	ldi	r18, 0x00	; 0
    2ffc:	30 e0       	ldi	r19, 0x00	; 0
    2ffe:	40 e8       	ldi	r20, 0x80	; 128
    3000:	5f e3       	ldi	r21, 0x3F	; 63
    3002:	6e 81       	ldd	r22, Y+6	; 0x06
    3004:	7f 81       	ldd	r23, Y+7	; 0x07
    3006:	88 85       	ldd	r24, Y+8	; 0x08
    3008:	99 85       	ldd	r25, Y+9	; 0x09
    300a:	0e 94 19 22 	call	0x4432	; 0x4432 <__cmpsf2>
    300e:	88 23       	and	r24, r24
    3010:	1c f4       	brge	.+6      	; 0x3018 <offset_calibration+0x9e>
		__ticks = 1;
    3012:	81 e0       	ldi	r24, 0x01	; 1
    3014:	8e 87       	std	Y+14, r24	; 0x0e
    3016:	b6 c0       	rjmp	.+364    	; 0x3184 <offset_calibration+0x20a>
	else if (__tmp2 > 65535)
    3018:	20 e0       	ldi	r18, 0x00	; 0
    301a:	3f ef       	ldi	r19, 0xFF	; 255
    301c:	4f e7       	ldi	r20, 0x7F	; 127
    301e:	57 e4       	ldi	r21, 0x47	; 71
    3020:	6a 85       	ldd	r22, Y+10	; 0x0a
    3022:	7b 85       	ldd	r23, Y+11	; 0x0b
    3024:	8c 85       	ldd	r24, Y+12	; 0x0c
    3026:	9d 85       	ldd	r25, Y+13	; 0x0d
    3028:	0e 94 68 23 	call	0x46d0	; 0x46d0 <__gesf2>
    302c:	18 16       	cp	r1, r24
    302e:	0c f0       	brlt	.+2      	; 0x3032 <offset_calibration+0xb8>
    3030:	7f c0       	rjmp	.+254    	; 0x3130 <offset_calibration+0x1b6>
	{
		_delay_ms(__us / 1000.0);
    3032:	20 e0       	ldi	r18, 0x00	; 0
    3034:	30 e0       	ldi	r19, 0x00	; 0
    3036:	4a e7       	ldi	r20, 0x7A	; 122
    3038:	54 e4       	ldi	r21, 0x44	; 68
    303a:	6a 81       	ldd	r22, Y+2	; 0x02
    303c:	7b 81       	ldd	r23, Y+3	; 0x03
    303e:	8c 81       	ldd	r24, Y+4	; 0x04
    3040:	9d 81       	ldd	r25, Y+5	; 0x05
    3042:	0e 94 1d 22 	call	0x443a	; 0x443a <__divsf3>
    3046:	dc 01       	movw	r26, r24
    3048:	cb 01       	movw	r24, r22
    304a:	8f 87       	std	Y+15, r24	; 0x0f
    304c:	98 8b       	std	Y+16, r25	; 0x10
    304e:	a9 8b       	std	Y+17, r26	; 0x11
    3050:	ba 8b       	std	Y+18, r27	; 0x12

	__builtin_avr_delay_cycles(__ticks_dc);

#else
	uint16_t __ticks;
	__tmp = ((F_CPU) / 4e3) * __ms;
    3052:	20 e0       	ldi	r18, 0x00	; 0
    3054:	30 e0       	ldi	r19, 0x00	; 0
    3056:	4a e7       	ldi	r20, 0x7A	; 122
    3058:	55 e4       	ldi	r21, 0x45	; 69
    305a:	6f 85       	ldd	r22, Y+15	; 0x0f
    305c:	78 89       	ldd	r23, Y+16	; 0x10
    305e:	89 89       	ldd	r24, Y+17	; 0x11
    3060:	9a 89       	ldd	r25, Y+18	; 0x12
    3062:	0e 94 6c 23 	call	0x46d8	; 0x46d8 <__mulsf3>
    3066:	dc 01       	movw	r26, r24
    3068:	cb 01       	movw	r24, r22
    306a:	8b 8b       	std	Y+19, r24	; 0x13
    306c:	9c 8b       	std	Y+20, r25	; 0x14
    306e:	ad 8b       	std	Y+21, r26	; 0x15
    3070:	be 8b       	std	Y+22, r27	; 0x16
	if (__tmp < 1.0)
    3072:	20 e0       	ldi	r18, 0x00	; 0
    3074:	30 e0       	ldi	r19, 0x00	; 0
    3076:	40 e8       	ldi	r20, 0x80	; 128
    3078:	5f e3       	ldi	r21, 0x3F	; 63
    307a:	6b 89       	ldd	r22, Y+19	; 0x13
    307c:	7c 89       	ldd	r23, Y+20	; 0x14
    307e:	8d 89       	ldd	r24, Y+21	; 0x15
    3080:	9e 89       	ldd	r25, Y+22	; 0x16
    3082:	0e 94 19 22 	call	0x4432	; 0x4432 <__cmpsf2>
    3086:	88 23       	and	r24, r24
    3088:	2c f4       	brge	.+10     	; 0x3094 <offset_calibration+0x11a>
		__ticks = 1;
    308a:	81 e0       	ldi	r24, 0x01	; 1
    308c:	90 e0       	ldi	r25, 0x00	; 0
    308e:	98 8f       	std	Y+24, r25	; 0x18
    3090:	8f 8b       	std	Y+23, r24	; 0x17
    3092:	41 c0       	rjmp	.+130    	; 0x3116 <offset_calibration+0x19c>
	else if (__tmp > 65535)
    3094:	20 e0       	ldi	r18, 0x00	; 0
    3096:	3f ef       	ldi	r19, 0xFF	; 255
    3098:	4f e7       	ldi	r20, 0x7F	; 127
    309a:	57 e4       	ldi	r21, 0x47	; 71
    309c:	6b 89       	ldd	r22, Y+19	; 0x13
    309e:	7c 89       	ldd	r23, Y+20	; 0x14
    30a0:	8d 89       	ldd	r24, Y+21	; 0x15
    30a2:	9e 89       	ldd	r25, Y+22	; 0x16
    30a4:	0e 94 68 23 	call	0x46d0	; 0x46d0 <__gesf2>
    30a8:	18 16       	cp	r1, r24
    30aa:	5c f5       	brge	.+86     	; 0x3102 <offset_calibration+0x188>
	{
		//	__ticks = requested delay in 1/10 ms
		__ticks = (uint16_t) (__ms * 10.0);
    30ac:	20 e0       	ldi	r18, 0x00	; 0
    30ae:	30 e0       	ldi	r19, 0x00	; 0
    30b0:	40 e2       	ldi	r20, 0x20	; 32
    30b2:	51 e4       	ldi	r21, 0x41	; 65
    30b4:	6f 85       	ldd	r22, Y+15	; 0x0f
    30b6:	78 89       	ldd	r23, Y+16	; 0x10
    30b8:	89 89       	ldd	r24, Y+17	; 0x11
    30ba:	9a 89       	ldd	r25, Y+18	; 0x12
    30bc:	0e 94 6c 23 	call	0x46d8	; 0x46d8 <__mulsf3>
    30c0:	dc 01       	movw	r26, r24
    30c2:	cb 01       	movw	r24, r22
    30c4:	bc 01       	movw	r22, r24
    30c6:	cd 01       	movw	r24, r26
    30c8:	0e 94 8a 22 	call	0x4514	; 0x4514 <__fixunssfsi>
    30cc:	dc 01       	movw	r26, r24
    30ce:	cb 01       	movw	r24, r22
    30d0:	98 8f       	std	Y+24, r25	; 0x18
    30d2:	8f 8b       	std	Y+23, r24	; 0x17
    30d4:	0f c0       	rjmp	.+30     	; 0x30f4 <offset_calibration+0x17a>
    30d6:	80 e9       	ldi	r24, 0x90	; 144
    30d8:	91 e0       	ldi	r25, 0x01	; 1
    30da:	9a 8f       	std	Y+26, r25	; 0x1a
    30dc:	89 8f       	std	Y+25, r24	; 0x19
    30de:	89 8d       	ldd	r24, Y+25	; 0x19
    30e0:	9a 8d       	ldd	r25, Y+26	; 0x1a
    30e2:	01 97       	sbiw	r24, 0x01	; 1
    30e4:	f1 f7       	brne	.-4      	; 0x30e2 <offset_calibration+0x168>
    30e6:	9a 8f       	std	Y+26, r25	; 0x1a
    30e8:	89 8f       	std	Y+25, r24	; 0x19
		while(__ticks)
		{
			// wait 1/10 ms
			_delay_loop_2(((F_CPU) / 4e3) / 10);
			__ticks --;
    30ea:	8f 89       	ldd	r24, Y+23	; 0x17
    30ec:	98 8d       	ldd	r25, Y+24	; 0x18
    30ee:	01 97       	sbiw	r24, 0x01	; 1
    30f0:	98 8f       	std	Y+24, r25	; 0x18
    30f2:	8f 8b       	std	Y+23, r24	; 0x17
		__ticks = 1;
	else if (__tmp > 65535)
	{
		//	__ticks = requested delay in 1/10 ms
		__ticks = (uint16_t) (__ms * 10.0);
		while(__ticks)
    30f4:	8f 89       	ldd	r24, Y+23	; 0x17
    30f6:	98 8d       	ldd	r25, Y+24	; 0x18
    30f8:	89 2b       	or	r24, r25
    30fa:	69 f7       	brne	.-38     	; 0x30d6 <offset_calibration+0x15c>
    30fc:	8a a1       	ldd	r24, Y+34	; 0x22
    30fe:	8e 87       	std	Y+14, r24	; 0x0e
    3100:	41 c0       	rjmp	.+130    	; 0x3184 <offset_calibration+0x20a>
			__ticks --;
		}
		return;
	}
	else
		__ticks = (uint16_t)__tmp;
    3102:	6b 89       	ldd	r22, Y+19	; 0x13
    3104:	7c 89       	ldd	r23, Y+20	; 0x14
    3106:	8d 89       	ldd	r24, Y+21	; 0x15
    3108:	9e 89       	ldd	r25, Y+22	; 0x16
    310a:	0e 94 8a 22 	call	0x4514	; 0x4514 <__fixunssfsi>
    310e:	dc 01       	movw	r26, r24
    3110:	cb 01       	movw	r24, r22
    3112:	98 8f       	std	Y+24, r25	; 0x18
    3114:	8f 8b       	std	Y+23, r24	; 0x17
    3116:	8f 89       	ldd	r24, Y+23	; 0x17
    3118:	98 8d       	ldd	r25, Y+24	; 0x18
    311a:	9c 8f       	std	Y+28, r25	; 0x1c
    311c:	8b 8f       	std	Y+27, r24	; 0x1b
    311e:	8b 8d       	ldd	r24, Y+27	; 0x1b
    3120:	9c 8d       	ldd	r25, Y+28	; 0x1c
    3122:	01 97       	sbiw	r24, 0x01	; 1
    3124:	f1 f7       	brne	.-4      	; 0x3122 <offset_calibration+0x1a8>
    3126:	9c 8f       	std	Y+28, r25	; 0x1c
    3128:	8b 8f       	std	Y+27, r24	; 0x1b
    312a:	8a a1       	ldd	r24, Y+34	; 0x22
    312c:	8e 87       	std	Y+14, r24	; 0x0e
    312e:	2a c0       	rjmp	.+84     	; 0x3184 <offset_calibration+0x20a>
		__ticks = 1;
	else if (__tmp2 > 65535)
	{
		_delay_ms(__us / 1000.0);
	}
	else if (__tmp > 255)
    3130:	20 e0       	ldi	r18, 0x00	; 0
    3132:	30 e0       	ldi	r19, 0x00	; 0
    3134:	4f e7       	ldi	r20, 0x7F	; 127
    3136:	53 e4       	ldi	r21, 0x43	; 67
    3138:	6e 81       	ldd	r22, Y+6	; 0x06
    313a:	7f 81       	ldd	r23, Y+7	; 0x07
    313c:	88 85       	ldd	r24, Y+8	; 0x08
    313e:	99 85       	ldd	r25, Y+9	; 0x09
    3140:	0e 94 68 23 	call	0x46d0	; 0x46d0 <__gesf2>
    3144:	18 16       	cp	r1, r24
    3146:	ac f4       	brge	.+42     	; 0x3172 <offset_calibration+0x1f8>
	{
		uint16_t __ticks=(uint16_t)__tmp2;
    3148:	6a 85       	ldd	r22, Y+10	; 0x0a
    314a:	7b 85       	ldd	r23, Y+11	; 0x0b
    314c:	8c 85       	ldd	r24, Y+12	; 0x0c
    314e:	9d 85       	ldd	r25, Y+13	; 0x0d
    3150:	0e 94 8a 22 	call	0x4514	; 0x4514 <__fixunssfsi>
    3154:	dc 01       	movw	r26, r24
    3156:	cb 01       	movw	r24, r22
    3158:	9e 8f       	std	Y+30, r25	; 0x1e
    315a:	8d 8f       	std	Y+29, r24	; 0x1d
    315c:	8d 8d       	ldd	r24, Y+29	; 0x1d
    315e:	9e 8d       	ldd	r25, Y+30	; 0x1e
    3160:	98 a3       	std	Y+32, r25	; 0x20
    3162:	8f 8f       	std	Y+31, r24	; 0x1f
    3164:	8f 8d       	ldd	r24, Y+31	; 0x1f
    3166:	98 a1       	ldd	r25, Y+32	; 0x20
    3168:	01 97       	sbiw	r24, 0x01	; 1
    316a:	f1 f7       	brne	.-4      	; 0x3168 <offset_calibration+0x1ee>
    316c:	98 a3       	std	Y+32, r25	; 0x20
    316e:	8f 8f       	std	Y+31, r24	; 0x1f
    3170:	0f c0       	rjmp	.+30     	; 0x3190 <offset_calibration+0x216>
		_delay_loop_2(__ticks);
		return;
	}
	else
		__ticks = (uint8_t)__tmp;
    3172:	6e 81       	ldd	r22, Y+6	; 0x06
    3174:	7f 81       	ldd	r23, Y+7	; 0x07
    3176:	88 85       	ldd	r24, Y+8	; 0x08
    3178:	99 85       	ldd	r25, Y+9	; 0x09
    317a:	0e 94 8a 22 	call	0x4514	; 0x4514 <__fixunssfsi>
    317e:	dc 01       	movw	r26, r24
    3180:	cb 01       	movw	r24, r22
    3182:	8e 87       	std	Y+14, r24	; 0x0e
    3184:	8e 85       	ldd	r24, Y+14	; 0x0e
    3186:	89 a3       	std	Y+33, r24	; 0x21
    can be achieved.
*/
void
_delay_loop_1(uint8_t __count)
{
	__asm__ volatile (
    3188:	89 a1       	ldd	r24, Y+33	; 0x21
    318a:	8a 95       	dec	r24
    318c:	f1 f7       	brne	.-4      	; 0x318a <offset_calibration+0x210>
    318e:	89 a3       	std	Y+33, r24	; 0x21
		_delay_us(2);
		ADS_SCLK_LOW;
    3190:	88 e0       	ldi	r24, 0x08	; 8
    3192:	91 e0       	ldi	r25, 0x01	; 1
    3194:	28 e0       	ldi	r18, 0x08	; 8
    3196:	31 e0       	ldi	r19, 0x01	; 1
    3198:	f9 01       	movw	r30, r18
    319a:	20 81       	ld	r18, Z
    319c:	27 7f       	andi	r18, 0xF7	; 247
    319e:	fc 01       	movw	r30, r24
    31a0:	20 83       	st	Z, r18
    31a2:	80 e0       	ldi	r24, 0x00	; 0
    31a4:	90 e0       	ldi	r25, 0x00	; 0
    31a6:	a0 e0       	ldi	r26, 0x00	; 0
    31a8:	b0 e4       	ldi	r27, 0x40	; 64
    31aa:	8b a3       	std	Y+35, r24	; 0x23
    31ac:	9c a3       	std	Y+36, r25	; 0x24
    31ae:	ad a3       	std	Y+37, r26	; 0x25
    31b0:	be a3       	std	Y+38, r27	; 0x26
	__builtin_avr_delay_cycles(__ticks_dc);

#else
	uint8_t __ticks;
	double __tmp2 ;
	__tmp = ((F_CPU) / 3e6) * __us;
    31b2:	2b ea       	ldi	r18, 0xAB	; 171
    31b4:	3a ea       	ldi	r19, 0xAA	; 170
    31b6:	4a ea       	ldi	r20, 0xAA	; 170
    31b8:	50 e4       	ldi	r21, 0x40	; 64
    31ba:	6b a1       	ldd	r22, Y+35	; 0x23
    31bc:	7c a1       	ldd	r23, Y+36	; 0x24
    31be:	8d a1       	ldd	r24, Y+37	; 0x25
    31c0:	9e a1       	ldd	r25, Y+38	; 0x26
    31c2:	0e 94 6c 23 	call	0x46d8	; 0x46d8 <__mulsf3>
    31c6:	dc 01       	movw	r26, r24
    31c8:	cb 01       	movw	r24, r22
    31ca:	8f a3       	std	Y+39, r24	; 0x27
    31cc:	98 a7       	std	Y+40, r25	; 0x28
    31ce:	a9 a7       	std	Y+41, r26	; 0x29
    31d0:	ba a7       	std	Y+42, r27	; 0x2a
	__tmp2 = ((F_CPU) / 4e6) * __us;
    31d2:	20 e0       	ldi	r18, 0x00	; 0
    31d4:	30 e0       	ldi	r19, 0x00	; 0
    31d6:	40 e8       	ldi	r20, 0x80	; 128
    31d8:	50 e4       	ldi	r21, 0x40	; 64
    31da:	6b a1       	ldd	r22, Y+35	; 0x23
    31dc:	7c a1       	ldd	r23, Y+36	; 0x24
    31de:	8d a1       	ldd	r24, Y+37	; 0x25
    31e0:	9e a1       	ldd	r25, Y+38	; 0x26
    31e2:	0e 94 6c 23 	call	0x46d8	; 0x46d8 <__mulsf3>
    31e6:	dc 01       	movw	r26, r24
    31e8:	cb 01       	movw	r24, r22
    31ea:	8b a7       	std	Y+43, r24	; 0x2b
    31ec:	9c a7       	std	Y+44, r25	; 0x2c
    31ee:	ad a7       	std	Y+45, r26	; 0x2d
    31f0:	be a7       	std	Y+46, r27	; 0x2e
	if (__tmp < 1.0)
    31f2:	20 e0       	ldi	r18, 0x00	; 0
    31f4:	30 e0       	ldi	r19, 0x00	; 0
    31f6:	40 e8       	ldi	r20, 0x80	; 128
    31f8:	5f e3       	ldi	r21, 0x3F	; 63
    31fa:	6f a1       	ldd	r22, Y+39	; 0x27
    31fc:	78 a5       	ldd	r23, Y+40	; 0x28
    31fe:	89 a5       	ldd	r24, Y+41	; 0x29
    3200:	9a a5       	ldd	r25, Y+42	; 0x2a
    3202:	0e 94 19 22 	call	0x4432	; 0x4432 <__cmpsf2>
    3206:	88 23       	and	r24, r24
    3208:	1c f4       	brge	.+6      	; 0x3210 <offset_calibration+0x296>
		__ticks = 1;
    320a:	81 e0       	ldi	r24, 0x01	; 1
    320c:	8f a7       	std	Y+47, r24	; 0x2f
    320e:	ca c0       	rjmp	.+404    	; 0x33a4 <offset_calibration+0x42a>
	else if (__tmp2 > 65535)
    3210:	20 e0       	ldi	r18, 0x00	; 0
    3212:	3f ef       	ldi	r19, 0xFF	; 255
    3214:	4f e7       	ldi	r20, 0x7F	; 127
    3216:	57 e4       	ldi	r21, 0x47	; 71
    3218:	6b a5       	ldd	r22, Y+43	; 0x2b
    321a:	7c a5       	ldd	r23, Y+44	; 0x2c
    321c:	8d a5       	ldd	r24, Y+45	; 0x2d
    321e:	9e a5       	ldd	r25, Y+46	; 0x2e
    3220:	0e 94 68 23 	call	0x46d0	; 0x46d0 <__gesf2>
    3224:	18 16       	cp	r1, r24
    3226:	0c f0       	brlt	.+2      	; 0x322a <offset_calibration+0x2b0>
    3228:	87 c0       	rjmp	.+270    	; 0x3338 <offset_calibration+0x3be>
	{
		_delay_ms(__us / 1000.0);
    322a:	20 e0       	ldi	r18, 0x00	; 0
    322c:	30 e0       	ldi	r19, 0x00	; 0
    322e:	4a e7       	ldi	r20, 0x7A	; 122
    3230:	54 e4       	ldi	r21, 0x44	; 68
    3232:	6b a1       	ldd	r22, Y+35	; 0x23
    3234:	7c a1       	ldd	r23, Y+36	; 0x24
    3236:	8d a1       	ldd	r24, Y+37	; 0x25
    3238:	9e a1       	ldd	r25, Y+38	; 0x26
    323a:	0e 94 1d 22 	call	0x443a	; 0x443a <__divsf3>
    323e:	dc 01       	movw	r26, r24
    3240:	cb 01       	movw	r24, r22
    3242:	88 ab       	std	Y+48, r24	; 0x30
    3244:	99 ab       	std	Y+49, r25	; 0x31
    3246:	aa ab       	std	Y+50, r26	; 0x32
    3248:	bb ab       	std	Y+51, r27	; 0x33

	__builtin_avr_delay_cycles(__ticks_dc);

#else
	uint16_t __ticks;
	__tmp = ((F_CPU) / 4e3) * __ms;
    324a:	20 e0       	ldi	r18, 0x00	; 0
    324c:	30 e0       	ldi	r19, 0x00	; 0
    324e:	4a e7       	ldi	r20, 0x7A	; 122
    3250:	55 e4       	ldi	r21, 0x45	; 69
    3252:	68 a9       	ldd	r22, Y+48	; 0x30
    3254:	79 a9       	ldd	r23, Y+49	; 0x31
    3256:	8a a9       	ldd	r24, Y+50	; 0x32
    3258:	9b a9       	ldd	r25, Y+51	; 0x33
    325a:	0e 94 6c 23 	call	0x46d8	; 0x46d8 <__mulsf3>
    325e:	dc 01       	movw	r26, r24
    3260:	cb 01       	movw	r24, r22
    3262:	8c ab       	std	Y+52, r24	; 0x34
    3264:	9d ab       	std	Y+53, r25	; 0x35
    3266:	ae ab       	std	Y+54, r26	; 0x36
    3268:	bf ab       	std	Y+55, r27	; 0x37
	if (__tmp < 1.0)
    326a:	20 e0       	ldi	r18, 0x00	; 0
    326c:	30 e0       	ldi	r19, 0x00	; 0
    326e:	40 e8       	ldi	r20, 0x80	; 128
    3270:	5f e3       	ldi	r21, 0x3F	; 63
    3272:	6c a9       	ldd	r22, Y+52	; 0x34
    3274:	7d a9       	ldd	r23, Y+53	; 0x35
    3276:	8e a9       	ldd	r24, Y+54	; 0x36
    3278:	9f a9       	ldd	r25, Y+55	; 0x37
    327a:	0e 94 19 22 	call	0x4432	; 0x4432 <__cmpsf2>
    327e:	88 23       	and	r24, r24
    3280:	2c f4       	brge	.+10     	; 0x328c <offset_calibration+0x312>
		__ticks = 1;
    3282:	81 e0       	ldi	r24, 0x01	; 1
    3284:	90 e0       	ldi	r25, 0x00	; 0
    3286:	99 af       	std	Y+57, r25	; 0x39
    3288:	88 af       	std	Y+56, r24	; 0x38
    328a:	45 c0       	rjmp	.+138    	; 0x3316 <offset_calibration+0x39c>
	else if (__tmp > 65535)
    328c:	20 e0       	ldi	r18, 0x00	; 0
    328e:	3f ef       	ldi	r19, 0xFF	; 255
    3290:	4f e7       	ldi	r20, 0x7F	; 127
    3292:	57 e4       	ldi	r21, 0x47	; 71
    3294:	6c a9       	ldd	r22, Y+52	; 0x34
    3296:	7d a9       	ldd	r23, Y+53	; 0x35
    3298:	8e a9       	ldd	r24, Y+54	; 0x36
    329a:	9f a9       	ldd	r25, Y+55	; 0x37
    329c:	0e 94 68 23 	call	0x46d0	; 0x46d0 <__gesf2>
    32a0:	18 16       	cp	r1, r24
    32a2:	7c f5       	brge	.+94     	; 0x3302 <offset_calibration+0x388>
	{
		//	__ticks = requested delay in 1/10 ms
		__ticks = (uint16_t) (__ms * 10.0);
    32a4:	20 e0       	ldi	r18, 0x00	; 0
    32a6:	30 e0       	ldi	r19, 0x00	; 0
    32a8:	40 e2       	ldi	r20, 0x20	; 32
    32aa:	51 e4       	ldi	r21, 0x41	; 65
    32ac:	68 a9       	ldd	r22, Y+48	; 0x30
    32ae:	79 a9       	ldd	r23, Y+49	; 0x31
    32b0:	8a a9       	ldd	r24, Y+50	; 0x32
    32b2:	9b a9       	ldd	r25, Y+51	; 0x33
    32b4:	0e 94 6c 23 	call	0x46d8	; 0x46d8 <__mulsf3>
    32b8:	dc 01       	movw	r26, r24
    32ba:	cb 01       	movw	r24, r22
    32bc:	bc 01       	movw	r22, r24
    32be:	cd 01       	movw	r24, r26
    32c0:	0e 94 8a 22 	call	0x4514	; 0x4514 <__fixunssfsi>
    32c4:	dc 01       	movw	r26, r24
    32c6:	cb 01       	movw	r24, r22
    32c8:	99 af       	std	Y+57, r25	; 0x39
    32ca:	88 af       	std	Y+56, r24	; 0x38
    32cc:	0f c0       	rjmp	.+30     	; 0x32ec <offset_calibration+0x372>
    32ce:	80 e9       	ldi	r24, 0x90	; 144
    32d0:	91 e0       	ldi	r25, 0x01	; 1
    32d2:	9b af       	std	Y+59, r25	; 0x3b
    32d4:	8a af       	std	Y+58, r24	; 0x3a
    milliseconds can be achieved.
 */
void
_delay_loop_2(uint16_t __count)
{
	__asm__ volatile (
    32d6:	8a ad       	ldd	r24, Y+58	; 0x3a
    32d8:	9b ad       	ldd	r25, Y+59	; 0x3b
    32da:	01 97       	sbiw	r24, 0x01	; 1
    32dc:	f1 f7       	brne	.-4      	; 0x32da <offset_calibration+0x360>
    32de:	9b af       	std	Y+59, r25	; 0x3b
    32e0:	8a af       	std	Y+58, r24	; 0x3a
		while(__ticks)
		{
			// wait 1/10 ms
			_delay_loop_2(((F_CPU) / 4e3) / 10);
			__ticks --;
    32e2:	88 ad       	ldd	r24, Y+56	; 0x38
    32e4:	99 ad       	ldd	r25, Y+57	; 0x39
    32e6:	01 97       	sbiw	r24, 0x01	; 1
    32e8:	99 af       	std	Y+57, r25	; 0x39
    32ea:	88 af       	std	Y+56, r24	; 0x38
		__ticks = 1;
	else if (__tmp > 65535)
	{
		//	__ticks = requested delay in 1/10 ms
		__ticks = (uint16_t) (__ms * 10.0);
		while(__ticks)
    32ec:	88 ad       	ldd	r24, Y+56	; 0x38
    32ee:	99 ad       	ldd	r25, Y+57	; 0x39
    32f0:	89 2b       	or	r24, r25
    32f2:	69 f7       	brne	.-38     	; 0x32ce <offset_calibration+0x354>
    32f4:	ce 01       	movw	r24, r28
    32f6:	8d 5b       	subi	r24, 0xBD	; 189
    32f8:	9f 4f       	sbci	r25, 0xFF	; 255
    32fa:	fc 01       	movw	r30, r24
    32fc:	80 81       	ld	r24, Z
    32fe:	8f a7       	std	Y+47, r24	; 0x2f
    3300:	51 c0       	rjmp	.+162    	; 0x33a4 <offset_calibration+0x42a>
			__ticks --;
		}
		return;
	}
	else
		__ticks = (uint16_t)__tmp;
    3302:	6c a9       	ldd	r22, Y+52	; 0x34
    3304:	7d a9       	ldd	r23, Y+53	; 0x35
    3306:	8e a9       	ldd	r24, Y+54	; 0x36
    3308:	9f a9       	ldd	r25, Y+55	; 0x37
    330a:	0e 94 8a 22 	call	0x4514	; 0x4514 <__fixunssfsi>
    330e:	dc 01       	movw	r26, r24
    3310:	cb 01       	movw	r24, r22
    3312:	99 af       	std	Y+57, r25	; 0x39
    3314:	88 af       	std	Y+56, r24	; 0x38
    3316:	88 ad       	ldd	r24, Y+56	; 0x38
    3318:	99 ad       	ldd	r25, Y+57	; 0x39
    331a:	9d af       	std	Y+61, r25	; 0x3d
    331c:	8c af       	std	Y+60, r24	; 0x3c
    331e:	8c ad       	ldd	r24, Y+60	; 0x3c
    3320:	9d ad       	ldd	r25, Y+61	; 0x3d
    3322:	01 97       	sbiw	r24, 0x01	; 1
    3324:	f1 f7       	brne	.-4      	; 0x3322 <offset_calibration+0x3a8>
    3326:	9d af       	std	Y+61, r25	; 0x3d
    3328:	8c af       	std	Y+60, r24	; 0x3c
    332a:	ce 01       	movw	r24, r28
    332c:	8d 5b       	subi	r24, 0xBD	; 189
    332e:	9f 4f       	sbci	r25, 0xFF	; 255
    3330:	fc 01       	movw	r30, r24
    3332:	80 81       	ld	r24, Z
    3334:	8f a7       	std	Y+47, r24	; 0x2f
    3336:	36 c0       	rjmp	.+108    	; 0x33a4 <offset_calibration+0x42a>
		__ticks = 1;
	else if (__tmp2 > 65535)
	{
		_delay_ms(__us / 1000.0);
	}
	else if (__tmp > 255)
    3338:	20 e0       	ldi	r18, 0x00	; 0
    333a:	30 e0       	ldi	r19, 0x00	; 0
    333c:	4f e7       	ldi	r20, 0x7F	; 127
    333e:	53 e4       	ldi	r21, 0x43	; 67
    3340:	6f a1       	ldd	r22, Y+39	; 0x27
    3342:	78 a5       	ldd	r23, Y+40	; 0x28
    3344:	89 a5       	ldd	r24, Y+41	; 0x29
    3346:	9a a5       	ldd	r25, Y+42	; 0x2a
    3348:	0e 94 68 23 	call	0x46d0	; 0x46d0 <__gesf2>
    334c:	18 16       	cp	r1, r24
    334e:	0c f5       	brge	.+66     	; 0x3392 <offset_calibration+0x418>
	{
		uint16_t __ticks=(uint16_t)__tmp2;
    3350:	6b a5       	ldd	r22, Y+43	; 0x2b
    3352:	7c a5       	ldd	r23, Y+44	; 0x2c
    3354:	8d a5       	ldd	r24, Y+45	; 0x2d
    3356:	9e a5       	ldd	r25, Y+46	; 0x2e
    3358:	0e 94 8a 22 	call	0x4514	; 0x4514 <__fixunssfsi>
    335c:	dc 01       	movw	r26, r24
    335e:	cb 01       	movw	r24, r22
    3360:	9f af       	std	Y+63, r25	; 0x3f
    3362:	8e af       	std	Y+62, r24	; 0x3e
    3364:	ce 01       	movw	r24, r28
    3366:	80 5c       	subi	r24, 0xC0	; 192
    3368:	9f 4f       	sbci	r25, 0xFF	; 255
    336a:	2e ad       	ldd	r18, Y+62	; 0x3e
    336c:	3f ad       	ldd	r19, Y+63	; 0x3f
    336e:	fc 01       	movw	r30, r24
    3370:	31 83       	std	Z+1, r19	; 0x01
    3372:	20 83       	st	Z, r18
    3374:	ce 01       	movw	r24, r28
    3376:	80 5c       	subi	r24, 0xC0	; 192
    3378:	9f 4f       	sbci	r25, 0xFF	; 255
    337a:	fc 01       	movw	r30, r24
    337c:	80 81       	ld	r24, Z
    337e:	91 81       	ldd	r25, Z+1	; 0x01
    3380:	01 97       	sbiw	r24, 0x01	; 1
    3382:	f1 f7       	brne	.-4      	; 0x3380 <offset_calibration+0x406>
    3384:	9e 01       	movw	r18, r28
    3386:	20 5c       	subi	r18, 0xC0	; 192
    3388:	3f 4f       	sbci	r19, 0xFF	; 255
    338a:	f9 01       	movw	r30, r18
    338c:	91 83       	std	Z+1, r25	; 0x01
    338e:	80 83       	st	Z, r24
    3390:	1c c0       	rjmp	.+56     	; 0x33ca <offset_calibration+0x450>
		_delay_loop_2(__ticks);
		return;
	}
	else
		__ticks = (uint8_t)__tmp;
    3392:	6f a1       	ldd	r22, Y+39	; 0x27
    3394:	78 a5       	ldd	r23, Y+40	; 0x28
    3396:	89 a5       	ldd	r24, Y+41	; 0x29
    3398:	9a a5       	ldd	r25, Y+42	; 0x2a
    339a:	0e 94 8a 22 	call	0x4514	; 0x4514 <__fixunssfsi>
    339e:	dc 01       	movw	r26, r24
    33a0:	cb 01       	movw	r24, r22
    33a2:	8f a7       	std	Y+47, r24	; 0x2f
    33a4:	ce 01       	movw	r24, r28
    33a6:	8e 5b       	subi	r24, 0xBE	; 190
    33a8:	9f 4f       	sbci	r25, 0xFF	; 255
    33aa:	2f a5       	ldd	r18, Y+47	; 0x2f
    33ac:	fc 01       	movw	r30, r24
    33ae:	20 83       	st	Z, r18
    can be achieved.
*/
void
_delay_loop_1(uint8_t __count)
{
	__asm__ volatile (
    33b0:	ce 01       	movw	r24, r28
    33b2:	8e 5b       	subi	r24, 0xBE	; 190
    33b4:	9f 4f       	sbci	r25, 0xFF	; 255
    33b6:	fc 01       	movw	r30, r24
    33b8:	80 81       	ld	r24, Z
    33ba:	28 2f       	mov	r18, r24
    33bc:	2a 95       	dec	r18
    33be:	f1 f7       	brne	.-4      	; 0x33bc <offset_calibration+0x442>
    33c0:	ce 01       	movw	r24, r28
    33c2:	8e 5b       	subi	r24, 0xBE	; 190
    33c4:	9f 4f       	sbci	r25, 0xFF	; 255
    33c6:	fc 01       	movw	r30, r24
    33c8:	20 83       	st	Z, r18
	return 1;
}

void offset_calibration(void)
{
	for(uint8_t i=0; i<26; i++)
    33ca:	89 81       	ldd	r24, Y+1	; 0x01
    33cc:	8f 5f       	subi	r24, 0xFF	; 255
    33ce:	89 83       	std	Y+1, r24	; 0x01
    33d0:	89 81       	ldd	r24, Y+1	; 0x01
    33d2:	8a 31       	cpi	r24, 0x1A	; 26
    33d4:	08 f4       	brcc	.+2      	; 0x33d8 <offset_calibration+0x45e>
    33d6:	e0 cd       	rjmp	.-1088   	; 0x2f98 <offset_calibration+0x1e>
    33d8:	9e 01       	movw	r18, r28
    33da:	2c 5b       	subi	r18, 0xBC	; 188
    33dc:	3f 4f       	sbci	r19, 0xFF	; 255
    33de:	80 e0       	ldi	r24, 0x00	; 0
    33e0:	90 e8       	ldi	r25, 0x80	; 128
    33e2:	ab eb       	ldi	r26, 0xBB	; 187
    33e4:	b4 e4       	ldi	r27, 0x44	; 68
    33e6:	f9 01       	movw	r30, r18
    33e8:	80 83       	st	Z, r24
    33ea:	91 83       	std	Z+1, r25	; 0x01
    33ec:	a2 83       	std	Z+2, r26	; 0x02
    33ee:	b3 83       	std	Z+3, r27	; 0x03

	__builtin_avr_delay_cycles(__ticks_dc);

#else
	uint16_t __ticks;
	__tmp = ((F_CPU) / 4e3) * __ms;
    33f0:	8e 01       	movw	r16, r28
    33f2:	08 5b       	subi	r16, 0xB8	; 184
    33f4:	1f 4f       	sbci	r17, 0xFF	; 255
    33f6:	ce 01       	movw	r24, r28
    33f8:	8c 5b       	subi	r24, 0xBC	; 188
    33fa:	9f 4f       	sbci	r25, 0xFF	; 255
    33fc:	20 e0       	ldi	r18, 0x00	; 0
    33fe:	30 e0       	ldi	r19, 0x00	; 0
    3400:	4a e7       	ldi	r20, 0x7A	; 122
    3402:	55 e4       	ldi	r21, 0x45	; 69
    3404:	fc 01       	movw	r30, r24
    3406:	60 81       	ld	r22, Z
    3408:	71 81       	ldd	r23, Z+1	; 0x01
    340a:	82 81       	ldd	r24, Z+2	; 0x02
    340c:	93 81       	ldd	r25, Z+3	; 0x03
    340e:	0e 94 6c 23 	call	0x46d8	; 0x46d8 <__mulsf3>
    3412:	dc 01       	movw	r26, r24
    3414:	cb 01       	movw	r24, r22
    3416:	f8 01       	movw	r30, r16
    3418:	80 83       	st	Z, r24
    341a:	91 83       	std	Z+1, r25	; 0x01
    341c:	a2 83       	std	Z+2, r26	; 0x02
    341e:	b3 83       	std	Z+3, r27	; 0x03
	if (__tmp < 1.0)
    3420:	ce 01       	movw	r24, r28
    3422:	88 5b       	subi	r24, 0xB8	; 184
    3424:	9f 4f       	sbci	r25, 0xFF	; 255
    3426:	20 e0       	ldi	r18, 0x00	; 0
    3428:	30 e0       	ldi	r19, 0x00	; 0
    342a:	40 e8       	ldi	r20, 0x80	; 128
    342c:	5f e3       	ldi	r21, 0x3F	; 63
    342e:	fc 01       	movw	r30, r24
    3430:	60 81       	ld	r22, Z
    3432:	71 81       	ldd	r23, Z+1	; 0x01
    3434:	82 81       	ldd	r24, Z+2	; 0x02
    3436:	93 81       	ldd	r25, Z+3	; 0x03
    3438:	fc d7       	rcall	.+4088   	; 0x4432 <__cmpsf2>
    343a:	88 23       	and	r24, r24
    343c:	4c f4       	brge	.+18     	; 0x3450 <offset_calibration+0x4d6>
		__ticks = 1;
    343e:	ce 01       	movw	r24, r28
    3440:	84 5b       	subi	r24, 0xB4	; 180
    3442:	9f 4f       	sbci	r25, 0xFF	; 255
    3444:	21 e0       	ldi	r18, 0x01	; 1
    3446:	30 e0       	ldi	r19, 0x00	; 0
    3448:	fc 01       	movw	r30, r24
    344a:	31 83       	std	Z+1, r19	; 0x01
    344c:	20 83       	st	Z, r18
    344e:	6c c0       	rjmp	.+216    	; 0x3528 <offset_calibration+0x5ae>
	else if (__tmp > 65535)
    3450:	ce 01       	movw	r24, r28
    3452:	88 5b       	subi	r24, 0xB8	; 184
    3454:	9f 4f       	sbci	r25, 0xFF	; 255
    3456:	20 e0       	ldi	r18, 0x00	; 0
    3458:	3f ef       	ldi	r19, 0xFF	; 255
    345a:	4f e7       	ldi	r20, 0x7F	; 127
    345c:	57 e4       	ldi	r21, 0x47	; 71
    345e:	fc 01       	movw	r30, r24
    3460:	60 81       	ld	r22, Z
    3462:	71 81       	ldd	r23, Z+1	; 0x01
    3464:	82 81       	ldd	r24, Z+2	; 0x02
    3466:	93 81       	ldd	r25, Z+3	; 0x03
    3468:	0e 94 68 23 	call	0x46d0	; 0x46d0 <__gesf2>
    346c:	18 16       	cp	r1, r24
    346e:	0c f0       	brlt	.+2      	; 0x3472 <offset_calibration+0x4f8>
    3470:	4a c0       	rjmp	.+148    	; 0x3506 <offset_calibration+0x58c>
	{
		//	__ticks = requested delay in 1/10 ms
		__ticks = (uint16_t) (__ms * 10.0);
    3472:	ce 01       	movw	r24, r28
    3474:	8c 5b       	subi	r24, 0xBC	; 188
    3476:	9f 4f       	sbci	r25, 0xFF	; 255
    3478:	20 e0       	ldi	r18, 0x00	; 0
    347a:	30 e0       	ldi	r19, 0x00	; 0
    347c:	40 e2       	ldi	r20, 0x20	; 32
    347e:	51 e4       	ldi	r21, 0x41	; 65
    3480:	fc 01       	movw	r30, r24
    3482:	60 81       	ld	r22, Z
    3484:	71 81       	ldd	r23, Z+1	; 0x01
    3486:	82 81       	ldd	r24, Z+2	; 0x02
    3488:	93 81       	ldd	r25, Z+3	; 0x03
    348a:	0e 94 6c 23 	call	0x46d8	; 0x46d8 <__mulsf3>
    348e:	dc 01       	movw	r26, r24
    3490:	cb 01       	movw	r24, r22
    3492:	8e 01       	movw	r16, r28
    3494:	04 5b       	subi	r16, 0xB4	; 180
    3496:	1f 4f       	sbci	r17, 0xFF	; 255
    3498:	bc 01       	movw	r22, r24
    349a:	cd 01       	movw	r24, r26
    349c:	0e 94 8a 22 	call	0x4514	; 0x4514 <__fixunssfsi>
    34a0:	dc 01       	movw	r26, r24
    34a2:	cb 01       	movw	r24, r22
    34a4:	f8 01       	movw	r30, r16
    34a6:	91 83       	std	Z+1, r25	; 0x01
    34a8:	80 83       	st	Z, r24
    34aa:	24 c0       	rjmp	.+72     	; 0x34f4 <offset_calibration+0x57a>
    34ac:	ce 01       	movw	r24, r28
    34ae:	82 5b       	subi	r24, 0xB2	; 178
    34b0:	9f 4f       	sbci	r25, 0xFF	; 255
    34b2:	20 e9       	ldi	r18, 0x90	; 144
    34b4:	31 e0       	ldi	r19, 0x01	; 1
    34b6:	fc 01       	movw	r30, r24
    34b8:	31 83       	std	Z+1, r19	; 0x01
    34ba:	20 83       	st	Z, r18
    milliseconds can be achieved.
 */
void
_delay_loop_2(uint16_t __count)
{
	__asm__ volatile (
    34bc:	ce 01       	movw	r24, r28
    34be:	82 5b       	subi	r24, 0xB2	; 178
    34c0:	9f 4f       	sbci	r25, 0xFF	; 255
    34c2:	fc 01       	movw	r30, r24
    34c4:	80 81       	ld	r24, Z
    34c6:	91 81       	ldd	r25, Z+1	; 0x01
    34c8:	01 97       	sbiw	r24, 0x01	; 1
    34ca:	f1 f7       	brne	.-4      	; 0x34c8 <offset_calibration+0x54e>
    34cc:	9e 01       	movw	r18, r28
    34ce:	22 5b       	subi	r18, 0xB2	; 178
    34d0:	3f 4f       	sbci	r19, 0xFF	; 255
    34d2:	f9 01       	movw	r30, r18
    34d4:	91 83       	std	Z+1, r25	; 0x01
    34d6:	80 83       	st	Z, r24
		while(__ticks)
		{
			// wait 1/10 ms
			_delay_loop_2(((F_CPU) / 4e3) / 10);
			__ticks --;
    34d8:	ce 01       	movw	r24, r28
    34da:	84 5b       	subi	r24, 0xB4	; 180
    34dc:	9f 4f       	sbci	r25, 0xFF	; 255
    34de:	9e 01       	movw	r18, r28
    34e0:	24 5b       	subi	r18, 0xB4	; 180
    34e2:	3f 4f       	sbci	r19, 0xFF	; 255
    34e4:	f9 01       	movw	r30, r18
    34e6:	20 81       	ld	r18, Z
    34e8:	31 81       	ldd	r19, Z+1	; 0x01
    34ea:	21 50       	subi	r18, 0x01	; 1
    34ec:	31 09       	sbc	r19, r1
    34ee:	fc 01       	movw	r30, r24
    34f0:	31 83       	std	Z+1, r19	; 0x01
    34f2:	20 83       	st	Z, r18
		__ticks = 1;
	else if (__tmp > 65535)
	{
		//	__ticks = requested delay in 1/10 ms
		__ticks = (uint16_t) (__ms * 10.0);
		while(__ticks)
    34f4:	ce 01       	movw	r24, r28
    34f6:	84 5b       	subi	r24, 0xB4	; 180
    34f8:	9f 4f       	sbci	r25, 0xFF	; 255
    34fa:	fc 01       	movw	r30, r24
    34fc:	80 81       	ld	r24, Z
    34fe:	91 81       	ldd	r25, Z+1	; 0x01
    3500:	89 2b       	or	r24, r25
    3502:	a1 f6       	brne	.-88     	; 0x34ac <offset_calibration+0x532>
    3504:	2b c0       	rjmp	.+86     	; 0x355c <offset_calibration+0x5e2>
			__ticks --;
		}
		return;
	}
	else
		__ticks = (uint16_t)__tmp;
    3506:	8e 01       	movw	r16, r28
    3508:	04 5b       	subi	r16, 0xB4	; 180
    350a:	1f 4f       	sbci	r17, 0xFF	; 255
    350c:	ce 01       	movw	r24, r28
    350e:	88 5b       	subi	r24, 0xB8	; 184
    3510:	9f 4f       	sbci	r25, 0xFF	; 255
    3512:	fc 01       	movw	r30, r24
    3514:	60 81       	ld	r22, Z
    3516:	71 81       	ldd	r23, Z+1	; 0x01
    3518:	82 81       	ldd	r24, Z+2	; 0x02
    351a:	93 81       	ldd	r25, Z+3	; 0x03
    351c:	fb d7       	rcall	.+4086   	; 0x4514 <__fixunssfsi>
    351e:	dc 01       	movw	r26, r24
    3520:	cb 01       	movw	r24, r22
    3522:	f8 01       	movw	r30, r16
    3524:	91 83       	std	Z+1, r25	; 0x01
    3526:	80 83       	st	Z, r24
    3528:	ce 01       	movw	r24, r28
    352a:	80 5b       	subi	r24, 0xB0	; 176
    352c:	9f 4f       	sbci	r25, 0xFF	; 255
    352e:	9e 01       	movw	r18, r28
    3530:	24 5b       	subi	r18, 0xB4	; 180
    3532:	3f 4f       	sbci	r19, 0xFF	; 255
    3534:	f9 01       	movw	r30, r18
    3536:	20 81       	ld	r18, Z
    3538:	31 81       	ldd	r19, Z+1	; 0x01
    353a:	fc 01       	movw	r30, r24
    353c:	31 83       	std	Z+1, r19	; 0x01
    353e:	20 83       	st	Z, r18
    3540:	ce 01       	movw	r24, r28
    3542:	80 5b       	subi	r24, 0xB0	; 176
    3544:	9f 4f       	sbci	r25, 0xFF	; 255
    3546:	fc 01       	movw	r30, r24
    3548:	80 81       	ld	r24, Z
    354a:	91 81       	ldd	r25, Z+1	; 0x01
    354c:	01 97       	sbiw	r24, 0x01	; 1
    354e:	f1 f7       	brne	.-4      	; 0x354c <offset_calibration+0x5d2>
    3550:	9e 01       	movw	r18, r28
    3552:	20 5b       	subi	r18, 0xB0	; 176
    3554:	3f 4f       	sbci	r19, 0xFF	; 255
    3556:	f9 01       	movw	r30, r18
    3558:	91 83       	std	Z+1, r25	; 0x01
    355a:	80 83       	st	Z, r24
		_delay_us(2);
		ADS_SCLK_LOW;
		_delay_us(2);
	}
	_delay_ms(1500);
}
    355c:	cf 5a       	subi	r28, 0xAF	; 175
    355e:	df 4f       	sbci	r29, 0xFF	; 255
    3560:	0f b6       	in	r0, 0x3f	; 63
    3562:	f8 94       	cli
    3564:	de bf       	out	0x3e, r29	; 62
    3566:	0f be       	out	0x3f, r0	; 63
    3568:	cd bf       	out	0x3d, r28	; 61
    356a:	df 91       	pop	r29
    356c:	cf 91       	pop	r28
    356e:	1f 91       	pop	r17
    3570:	0f 91       	pop	r16
    3572:	08 95       	ret

00003574 <make_tensometer_measure>:

 
void make_tensometer_measure(){
    3574:	0f 93       	push	r16
    3576:	1f 93       	push	r17
    3578:	cf 93       	push	r28
    357a:	df 93       	push	r29
    357c:	cd b7       	in	r28, 0x3d	; 61
    357e:	de b7       	in	r29, 0x3e	; 62
    3580:	c3 59       	subi	r28, 0x93	; 147
    3582:	d1 09       	sbc	r29, r1
    3584:	0f b6       	in	r0, 0x3f	; 63
    3586:	f8 94       	cli
    3588:	de bf       	out	0x3e, r29	; 62
    358a:	0f be       	out	0x3f, r0	; 63
    358c:	cd bf       	out	0x3d, r28	; 61
	static uint8_t input_mux=0;
	

	
	
	int32_t data=0; 		
    358e:	19 82       	std	Y+1, r1	; 0x01
    3590:	1a 82       	std	Y+2, r1	; 0x02
    3592:	1b 82       	std	Y+3, r1	; 0x03
    3594:	1c 82       	std	Y+4, r1	; 0x04
	while (ADS_DRDY_IF_HI);	// Czekamy na koniec przetwarzania
    3596:	00 00       	nop
    3598:	86 e0       	ldi	r24, 0x06	; 6
    359a:	91 e0       	ldi	r25, 0x01	; 1
    359c:	fc 01       	movw	r30, r24
    359e:	80 81       	ld	r24, Z
    35a0:	88 2f       	mov	r24, r24
    35a2:	90 e0       	ldi	r25, 0x00	; 0
    35a4:	80 71       	andi	r24, 0x10	; 16
    35a6:	99 27       	eor	r25, r25
    35a8:	89 2b       	or	r24, r25
    35aa:	b1 f7       	brne	.-20     	; 0x3598 <make_tensometer_measure+0x24>
			
	for(uint8_t i=0; i<24; i++)
    35ac:	1d 82       	std	Y+5, r1	; 0x05
    35ae:	72 c2       	rjmp	.+1252   	; 0x3a94 <make_tensometer_measure+0x520>
	{
		data<<=1;
    35b0:	89 81       	ldd	r24, Y+1	; 0x01
    35b2:	9a 81       	ldd	r25, Y+2	; 0x02
    35b4:	ab 81       	ldd	r26, Y+3	; 0x03
    35b6:	bc 81       	ldd	r27, Y+4	; 0x04
    35b8:	88 0f       	add	r24, r24
    35ba:	99 1f       	adc	r25, r25
    35bc:	aa 1f       	adc	r26, r26
    35be:	bb 1f       	adc	r27, r27
    35c0:	89 83       	std	Y+1, r24	; 0x01
    35c2:	9a 83       	std	Y+2, r25	; 0x02
    35c4:	ab 83       	std	Y+3, r26	; 0x03
    35c6:	bc 83       	std	Y+4, r27	; 0x04
		ADS_SCLK_HIGH;
    35c8:	88 e0       	ldi	r24, 0x08	; 8
    35ca:	91 e0       	ldi	r25, 0x01	; 1
    35cc:	28 e0       	ldi	r18, 0x08	; 8
    35ce:	31 e0       	ldi	r19, 0x01	; 1
    35d0:	f9 01       	movw	r30, r18
    35d2:	20 81       	ld	r18, Z
    35d4:	28 60       	ori	r18, 0x08	; 8
    35d6:	fc 01       	movw	r30, r24
    35d8:	20 83       	st	Z, r18
    35da:	80 e0       	ldi	r24, 0x00	; 0
    35dc:	90 e0       	ldi	r25, 0x00	; 0
    35de:	a0 e0       	ldi	r26, 0x00	; 0
    35e0:	b0 e4       	ldi	r27, 0x40	; 64
    35e2:	8e 87       	std	Y+14, r24	; 0x0e
    35e4:	9f 87       	std	Y+15, r25	; 0x0f
    35e6:	a8 8b       	std	Y+16, r26	; 0x10
    35e8:	b9 8b       	std	Y+17, r27	; 0x11
	__builtin_avr_delay_cycles(__ticks_dc);

#else
	uint8_t __ticks;
	double __tmp2 ;
	__tmp = ((F_CPU) / 3e6) * __us;
    35ea:	2b ea       	ldi	r18, 0xAB	; 171
    35ec:	3a ea       	ldi	r19, 0xAA	; 170
    35ee:	4a ea       	ldi	r20, 0xAA	; 170
    35f0:	50 e4       	ldi	r21, 0x40	; 64
    35f2:	6e 85       	ldd	r22, Y+14	; 0x0e
    35f4:	7f 85       	ldd	r23, Y+15	; 0x0f
    35f6:	88 89       	ldd	r24, Y+16	; 0x10
    35f8:	99 89       	ldd	r25, Y+17	; 0x11
    35fa:	0e 94 6c 23 	call	0x46d8	; 0x46d8 <__mulsf3>
    35fe:	dc 01       	movw	r26, r24
    3600:	cb 01       	movw	r24, r22
    3602:	8a 8b       	std	Y+18, r24	; 0x12
    3604:	9b 8b       	std	Y+19, r25	; 0x13
    3606:	ac 8b       	std	Y+20, r26	; 0x14
    3608:	bd 8b       	std	Y+21, r27	; 0x15
	__tmp2 = ((F_CPU) / 4e6) * __us;
    360a:	20 e0       	ldi	r18, 0x00	; 0
    360c:	30 e0       	ldi	r19, 0x00	; 0
    360e:	40 e8       	ldi	r20, 0x80	; 128
    3610:	50 e4       	ldi	r21, 0x40	; 64
    3612:	6e 85       	ldd	r22, Y+14	; 0x0e
    3614:	7f 85       	ldd	r23, Y+15	; 0x0f
    3616:	88 89       	ldd	r24, Y+16	; 0x10
    3618:	99 89       	ldd	r25, Y+17	; 0x11
    361a:	0e 94 6c 23 	call	0x46d8	; 0x46d8 <__mulsf3>
    361e:	dc 01       	movw	r26, r24
    3620:	cb 01       	movw	r24, r22
    3622:	8e 8b       	std	Y+22, r24	; 0x16
    3624:	9f 8b       	std	Y+23, r25	; 0x17
    3626:	a8 8f       	std	Y+24, r26	; 0x18
    3628:	b9 8f       	std	Y+25, r27	; 0x19
	if (__tmp < 1.0)
    362a:	20 e0       	ldi	r18, 0x00	; 0
    362c:	30 e0       	ldi	r19, 0x00	; 0
    362e:	40 e8       	ldi	r20, 0x80	; 128
    3630:	5f e3       	ldi	r21, 0x3F	; 63
    3632:	6a 89       	ldd	r22, Y+18	; 0x12
    3634:	7b 89       	ldd	r23, Y+19	; 0x13
    3636:	8c 89       	ldd	r24, Y+20	; 0x14
    3638:	9d 89       	ldd	r25, Y+21	; 0x15
    363a:	fb d6       	rcall	.+3574   	; 0x4432 <__cmpsf2>
    363c:	88 23       	and	r24, r24
    363e:	1c f4       	brge	.+6      	; 0x3646 <make_tensometer_measure+0xd2>
		__ticks = 1;
    3640:	81 e0       	ldi	r24, 0x01	; 1
    3642:	8a 8f       	std	Y+26, r24	; 0x1a
    3644:	ae c0       	rjmp	.+348    	; 0x37a2 <make_tensometer_measure+0x22e>
	else if (__tmp2 > 65535)
    3646:	20 e0       	ldi	r18, 0x00	; 0
    3648:	3f ef       	ldi	r19, 0xFF	; 255
    364a:	4f e7       	ldi	r20, 0x7F	; 127
    364c:	57 e4       	ldi	r21, 0x47	; 71
    364e:	6e 89       	ldd	r22, Y+22	; 0x16
    3650:	7f 89       	ldd	r23, Y+23	; 0x17
    3652:	88 8d       	ldd	r24, Y+24	; 0x18
    3654:	99 8d       	ldd	r25, Y+25	; 0x19
    3656:	0e 94 68 23 	call	0x46d0	; 0x46d0 <__gesf2>
    365a:	18 16       	cp	r1, r24
    365c:	0c f0       	brlt	.+2      	; 0x3660 <make_tensometer_measure+0xec>
    365e:	7a c0       	rjmp	.+244    	; 0x3754 <make_tensometer_measure+0x1e0>
	{
		_delay_ms(__us / 1000.0);
    3660:	20 e0       	ldi	r18, 0x00	; 0
    3662:	30 e0       	ldi	r19, 0x00	; 0
    3664:	4a e7       	ldi	r20, 0x7A	; 122
    3666:	54 e4       	ldi	r21, 0x44	; 68
    3668:	6e 85       	ldd	r22, Y+14	; 0x0e
    366a:	7f 85       	ldd	r23, Y+15	; 0x0f
    366c:	88 89       	ldd	r24, Y+16	; 0x10
    366e:	99 89       	ldd	r25, Y+17	; 0x11
    3670:	e4 d6       	rcall	.+3528   	; 0x443a <__divsf3>
    3672:	dc 01       	movw	r26, r24
    3674:	cb 01       	movw	r24, r22
    3676:	8b 8f       	std	Y+27, r24	; 0x1b
    3678:	9c 8f       	std	Y+28, r25	; 0x1c
    367a:	ad 8f       	std	Y+29, r26	; 0x1d
    367c:	be 8f       	std	Y+30, r27	; 0x1e

	__builtin_avr_delay_cycles(__ticks_dc);

#else
	uint16_t __ticks;
	__tmp = ((F_CPU) / 4e3) * __ms;
    367e:	20 e0       	ldi	r18, 0x00	; 0
    3680:	30 e0       	ldi	r19, 0x00	; 0
    3682:	4a e7       	ldi	r20, 0x7A	; 122
    3684:	55 e4       	ldi	r21, 0x45	; 69
    3686:	6b 8d       	ldd	r22, Y+27	; 0x1b
    3688:	7c 8d       	ldd	r23, Y+28	; 0x1c
    368a:	8d 8d       	ldd	r24, Y+29	; 0x1d
    368c:	9e 8d       	ldd	r25, Y+30	; 0x1e
    368e:	0e 94 6c 23 	call	0x46d8	; 0x46d8 <__mulsf3>
    3692:	dc 01       	movw	r26, r24
    3694:	cb 01       	movw	r24, r22
    3696:	8f 8f       	std	Y+31, r24	; 0x1f
    3698:	98 a3       	std	Y+32, r25	; 0x20
    369a:	a9 a3       	std	Y+33, r26	; 0x21
    369c:	ba a3       	std	Y+34, r27	; 0x22
	if (__tmp < 1.0)
    369e:	20 e0       	ldi	r18, 0x00	; 0
    36a0:	30 e0       	ldi	r19, 0x00	; 0
    36a2:	40 e8       	ldi	r20, 0x80	; 128
    36a4:	5f e3       	ldi	r21, 0x3F	; 63
    36a6:	6f 8d       	ldd	r22, Y+31	; 0x1f
    36a8:	78 a1       	ldd	r23, Y+32	; 0x20
    36aa:	89 a1       	ldd	r24, Y+33	; 0x21
    36ac:	9a a1       	ldd	r25, Y+34	; 0x22
    36ae:	c1 d6       	rcall	.+3458   	; 0x4432 <__cmpsf2>
    36b0:	88 23       	and	r24, r24
    36b2:	2c f4       	brge	.+10     	; 0x36be <make_tensometer_measure+0x14a>
		__ticks = 1;
    36b4:	81 e0       	ldi	r24, 0x01	; 1
    36b6:	90 e0       	ldi	r25, 0x00	; 0
    36b8:	9c a3       	std	Y+36, r25	; 0x24
    36ba:	8b a3       	std	Y+35, r24	; 0x23
    36bc:	3e c0       	rjmp	.+124    	; 0x373a <make_tensometer_measure+0x1c6>
	else if (__tmp > 65535)
    36be:	20 e0       	ldi	r18, 0x00	; 0
    36c0:	3f ef       	ldi	r19, 0xFF	; 255
    36c2:	4f e7       	ldi	r20, 0x7F	; 127
    36c4:	57 e4       	ldi	r21, 0x47	; 71
    36c6:	6f 8d       	ldd	r22, Y+31	; 0x1f
    36c8:	78 a1       	ldd	r23, Y+32	; 0x20
    36ca:	89 a1       	ldd	r24, Y+33	; 0x21
    36cc:	9a a1       	ldd	r25, Y+34	; 0x22
    36ce:	0e 94 68 23 	call	0x46d0	; 0x46d0 <__gesf2>
    36d2:	18 16       	cp	r1, r24
    36d4:	4c f5       	brge	.+82     	; 0x3728 <make_tensometer_measure+0x1b4>
	{
		//	__ticks = requested delay in 1/10 ms
		__ticks = (uint16_t) (__ms * 10.0);
    36d6:	20 e0       	ldi	r18, 0x00	; 0
    36d8:	30 e0       	ldi	r19, 0x00	; 0
    36da:	40 e2       	ldi	r20, 0x20	; 32
    36dc:	51 e4       	ldi	r21, 0x41	; 65
    36de:	6b 8d       	ldd	r22, Y+27	; 0x1b
    36e0:	7c 8d       	ldd	r23, Y+28	; 0x1c
    36e2:	8d 8d       	ldd	r24, Y+29	; 0x1d
    36e4:	9e 8d       	ldd	r25, Y+30	; 0x1e
    36e6:	f8 d7       	rcall	.+4080   	; 0x46d8 <__mulsf3>
    36e8:	dc 01       	movw	r26, r24
    36ea:	cb 01       	movw	r24, r22
    36ec:	bc 01       	movw	r22, r24
    36ee:	cd 01       	movw	r24, r26
    36f0:	11 d7       	rcall	.+3618   	; 0x4514 <__fixunssfsi>
    36f2:	dc 01       	movw	r26, r24
    36f4:	cb 01       	movw	r24, r22
    36f6:	9c a3       	std	Y+36, r25	; 0x24
    36f8:	8b a3       	std	Y+35, r24	; 0x23
    36fa:	0f c0       	rjmp	.+30     	; 0x371a <make_tensometer_measure+0x1a6>
    36fc:	80 e9       	ldi	r24, 0x90	; 144
    36fe:	91 e0       	ldi	r25, 0x01	; 1
    3700:	9e a3       	std	Y+38, r25	; 0x26
    3702:	8d a3       	std	Y+37, r24	; 0x25
    3704:	8d a1       	ldd	r24, Y+37	; 0x25
    3706:	9e a1       	ldd	r25, Y+38	; 0x26
    3708:	01 97       	sbiw	r24, 0x01	; 1
    370a:	f1 f7       	brne	.-4      	; 0x3708 <make_tensometer_measure+0x194>
    370c:	9e a3       	std	Y+38, r25	; 0x26
    370e:	8d a3       	std	Y+37, r24	; 0x25
		while(__ticks)
		{
			// wait 1/10 ms
			_delay_loop_2(((F_CPU) / 4e3) / 10);
			__ticks --;
    3710:	8b a1       	ldd	r24, Y+35	; 0x23
    3712:	9c a1       	ldd	r25, Y+36	; 0x24
    3714:	01 97       	sbiw	r24, 0x01	; 1
    3716:	9c a3       	std	Y+36, r25	; 0x24
    3718:	8b a3       	std	Y+35, r24	; 0x23
		__ticks = 1;
	else if (__tmp > 65535)
	{
		//	__ticks = requested delay in 1/10 ms
		__ticks = (uint16_t) (__ms * 10.0);
		while(__ticks)
    371a:	8b a1       	ldd	r24, Y+35	; 0x23
    371c:	9c a1       	ldd	r25, Y+36	; 0x24
    371e:	89 2b       	or	r24, r25
    3720:	69 f7       	brne	.-38     	; 0x36fc <make_tensometer_measure+0x188>
    3722:	8e a5       	ldd	r24, Y+46	; 0x2e
    3724:	8a 8f       	std	Y+26, r24	; 0x1a
    3726:	3d c0       	rjmp	.+122    	; 0x37a2 <make_tensometer_measure+0x22e>
			__ticks --;
		}
		return;
	}
	else
		__ticks = (uint16_t)__tmp;
    3728:	6f 8d       	ldd	r22, Y+31	; 0x1f
    372a:	78 a1       	ldd	r23, Y+32	; 0x20
    372c:	89 a1       	ldd	r24, Y+33	; 0x21
    372e:	9a a1       	ldd	r25, Y+34	; 0x22
    3730:	f1 d6       	rcall	.+3554   	; 0x4514 <__fixunssfsi>
    3732:	dc 01       	movw	r26, r24
    3734:	cb 01       	movw	r24, r22
    3736:	9c a3       	std	Y+36, r25	; 0x24
    3738:	8b a3       	std	Y+35, r24	; 0x23
    373a:	8b a1       	ldd	r24, Y+35	; 0x23
    373c:	9c a1       	ldd	r25, Y+36	; 0x24
    373e:	98 a7       	std	Y+40, r25	; 0x28
    3740:	8f a3       	std	Y+39, r24	; 0x27
    3742:	8f a1       	ldd	r24, Y+39	; 0x27
    3744:	98 a5       	ldd	r25, Y+40	; 0x28
    3746:	01 97       	sbiw	r24, 0x01	; 1
    3748:	f1 f7       	brne	.-4      	; 0x3746 <make_tensometer_measure+0x1d2>
    374a:	98 a7       	std	Y+40, r25	; 0x28
    374c:	8f a3       	std	Y+39, r24	; 0x27
    374e:	8e a5       	ldd	r24, Y+46	; 0x2e
    3750:	8a 8f       	std	Y+26, r24	; 0x1a
    3752:	27 c0       	rjmp	.+78     	; 0x37a2 <make_tensometer_measure+0x22e>
		__ticks = 1;
	else if (__tmp2 > 65535)
	{
		_delay_ms(__us / 1000.0);
	}
	else if (__tmp > 255)
    3754:	20 e0       	ldi	r18, 0x00	; 0
    3756:	30 e0       	ldi	r19, 0x00	; 0
    3758:	4f e7       	ldi	r20, 0x7F	; 127
    375a:	53 e4       	ldi	r21, 0x43	; 67
    375c:	6a 89       	ldd	r22, Y+18	; 0x12
    375e:	7b 89       	ldd	r23, Y+19	; 0x13
    3760:	8c 89       	ldd	r24, Y+20	; 0x14
    3762:	9d 89       	ldd	r25, Y+21	; 0x15
    3764:	b5 d7       	rcall	.+3946   	; 0x46d0 <__gesf2>
    3766:	18 16       	cp	r1, r24
    3768:	a4 f4       	brge	.+40     	; 0x3792 <make_tensometer_measure+0x21e>
	{
		uint16_t __ticks=(uint16_t)__tmp2;
    376a:	6e 89       	ldd	r22, Y+22	; 0x16
    376c:	7f 89       	ldd	r23, Y+23	; 0x17
    376e:	88 8d       	ldd	r24, Y+24	; 0x18
    3770:	99 8d       	ldd	r25, Y+25	; 0x19
    3772:	d0 d6       	rcall	.+3488   	; 0x4514 <__fixunssfsi>
    3774:	dc 01       	movw	r26, r24
    3776:	cb 01       	movw	r24, r22
    3778:	9a a7       	std	Y+42, r25	; 0x2a
    377a:	89 a7       	std	Y+41, r24	; 0x29
    377c:	89 a5       	ldd	r24, Y+41	; 0x29
    377e:	9a a5       	ldd	r25, Y+42	; 0x2a
    3780:	9c a7       	std	Y+44, r25	; 0x2c
    3782:	8b a7       	std	Y+43, r24	; 0x2b
    3784:	8b a5       	ldd	r24, Y+43	; 0x2b
    3786:	9c a5       	ldd	r25, Y+44	; 0x2c
    3788:	01 97       	sbiw	r24, 0x01	; 1
    378a:	f1 f7       	brne	.-4      	; 0x3788 <make_tensometer_measure+0x214>
    378c:	9c a7       	std	Y+44, r25	; 0x2c
    378e:	8b a7       	std	Y+43, r24	; 0x2b
    3790:	0e c0       	rjmp	.+28     	; 0x37ae <make_tensometer_measure+0x23a>
		_delay_loop_2(__ticks);
		return;
	}
	else
		__ticks = (uint8_t)__tmp;
    3792:	6a 89       	ldd	r22, Y+18	; 0x12
    3794:	7b 89       	ldd	r23, Y+19	; 0x13
    3796:	8c 89       	ldd	r24, Y+20	; 0x14
    3798:	9d 89       	ldd	r25, Y+21	; 0x15
    379a:	bc d6       	rcall	.+3448   	; 0x4514 <__fixunssfsi>
    379c:	dc 01       	movw	r26, r24
    379e:	cb 01       	movw	r24, r22
    37a0:	8a 8f       	std	Y+26, r24	; 0x1a
    37a2:	8a 8d       	ldd	r24, Y+26	; 0x1a
    37a4:	8d a7       	std	Y+45, r24	; 0x2d
    can be achieved.
*/
void
_delay_loop_1(uint8_t __count)
{
	__asm__ volatile (
    37a6:	8d a5       	ldd	r24, Y+45	; 0x2d
    37a8:	8a 95       	dec	r24
    37aa:	f1 f7       	brne	.-4      	; 0x37a8 <make_tensometer_measure+0x234>
    37ac:	8d a7       	std	Y+45, r24	; 0x2d
		_delay_us(2);
		if(ADS_DRDY_IF_HI) data |= 1;
    37ae:	86 e0       	ldi	r24, 0x06	; 6
    37b0:	91 e0       	ldi	r25, 0x01	; 1
    37b2:	fc 01       	movw	r30, r24
    37b4:	80 81       	ld	r24, Z
    37b6:	88 2f       	mov	r24, r24
    37b8:	90 e0       	ldi	r25, 0x00	; 0
    37ba:	80 71       	andi	r24, 0x10	; 16
    37bc:	99 27       	eor	r25, r25
    37be:	89 2b       	or	r24, r25
    37c0:	49 f0       	breq	.+18     	; 0x37d4 <make_tensometer_measure+0x260>
    37c2:	89 81       	ldd	r24, Y+1	; 0x01
    37c4:	9a 81       	ldd	r25, Y+2	; 0x02
    37c6:	ab 81       	ldd	r26, Y+3	; 0x03
    37c8:	bc 81       	ldd	r27, Y+4	; 0x04
    37ca:	81 60       	ori	r24, 0x01	; 1
    37cc:	89 83       	std	Y+1, r24	; 0x01
    37ce:	9a 83       	std	Y+2, r25	; 0x02
    37d0:	ab 83       	std	Y+3, r26	; 0x03
    37d2:	bc 83       	std	Y+4, r27	; 0x04
		ADS_SCLK_LOW;
    37d4:	88 e0       	ldi	r24, 0x08	; 8
    37d6:	91 e0       	ldi	r25, 0x01	; 1
    37d8:	28 e0       	ldi	r18, 0x08	; 8
    37da:	31 e0       	ldi	r19, 0x01	; 1
    37dc:	f9 01       	movw	r30, r18
    37de:	20 81       	ld	r18, Z
    37e0:	27 7f       	andi	r18, 0xF7	; 247
    37e2:	fc 01       	movw	r30, r24
    37e4:	20 83       	st	Z, r18
    37e6:	80 e0       	ldi	r24, 0x00	; 0
    37e8:	90 e0       	ldi	r25, 0x00	; 0
    37ea:	a0 e0       	ldi	r26, 0x00	; 0
    37ec:	b0 e4       	ldi	r27, 0x40	; 64
    37ee:	8f a7       	std	Y+47, r24	; 0x2f
    37f0:	98 ab       	std	Y+48, r25	; 0x30
    37f2:	a9 ab       	std	Y+49, r26	; 0x31
    37f4:	ba ab       	std	Y+50, r27	; 0x32
	__builtin_avr_delay_cycles(__ticks_dc);

#else
	uint8_t __ticks;
	double __tmp2 ;
	__tmp = ((F_CPU) / 3e6) * __us;
    37f6:	2b ea       	ldi	r18, 0xAB	; 171
    37f8:	3a ea       	ldi	r19, 0xAA	; 170
    37fa:	4a ea       	ldi	r20, 0xAA	; 170
    37fc:	50 e4       	ldi	r21, 0x40	; 64
    37fe:	6f a5       	ldd	r22, Y+47	; 0x2f
    3800:	78 a9       	ldd	r23, Y+48	; 0x30
    3802:	89 a9       	ldd	r24, Y+49	; 0x31
    3804:	9a a9       	ldd	r25, Y+50	; 0x32
    3806:	68 d7       	rcall	.+3792   	; 0x46d8 <__mulsf3>
    3808:	dc 01       	movw	r26, r24
    380a:	cb 01       	movw	r24, r22
    380c:	8b ab       	std	Y+51, r24	; 0x33
    380e:	9c ab       	std	Y+52, r25	; 0x34
    3810:	ad ab       	std	Y+53, r26	; 0x35
    3812:	be ab       	std	Y+54, r27	; 0x36
	__tmp2 = ((F_CPU) / 4e6) * __us;
    3814:	20 e0       	ldi	r18, 0x00	; 0
    3816:	30 e0       	ldi	r19, 0x00	; 0
    3818:	40 e8       	ldi	r20, 0x80	; 128
    381a:	50 e4       	ldi	r21, 0x40	; 64
    381c:	6f a5       	ldd	r22, Y+47	; 0x2f
    381e:	78 a9       	ldd	r23, Y+48	; 0x30
    3820:	89 a9       	ldd	r24, Y+49	; 0x31
    3822:	9a a9       	ldd	r25, Y+50	; 0x32
    3824:	59 d7       	rcall	.+3762   	; 0x46d8 <__mulsf3>
    3826:	dc 01       	movw	r26, r24
    3828:	cb 01       	movw	r24, r22
    382a:	8f ab       	std	Y+55, r24	; 0x37
    382c:	98 af       	std	Y+56, r25	; 0x38
    382e:	a9 af       	std	Y+57, r26	; 0x39
    3830:	ba af       	std	Y+58, r27	; 0x3a
	if (__tmp < 1.0)
    3832:	20 e0       	ldi	r18, 0x00	; 0
    3834:	30 e0       	ldi	r19, 0x00	; 0
    3836:	40 e8       	ldi	r20, 0x80	; 128
    3838:	5f e3       	ldi	r21, 0x3F	; 63
    383a:	6b a9       	ldd	r22, Y+51	; 0x33
    383c:	7c a9       	ldd	r23, Y+52	; 0x34
    383e:	8d a9       	ldd	r24, Y+53	; 0x35
    3840:	9e a9       	ldd	r25, Y+54	; 0x36
    3842:	f7 d5       	rcall	.+3054   	; 0x4432 <__cmpsf2>
    3844:	88 23       	and	r24, r24
    3846:	1c f4       	brge	.+6      	; 0x384e <make_tensometer_measure+0x2da>
		__ticks = 1;
    3848:	81 e0       	ldi	r24, 0x01	; 1
    384a:	8b af       	std	Y+59, r24	; 0x3b
    384c:	0d c1       	rjmp	.+538    	; 0x3a68 <make_tensometer_measure+0x4f4>
	else if (__tmp2 > 65535)
    384e:	20 e0       	ldi	r18, 0x00	; 0
    3850:	3f ef       	ldi	r19, 0xFF	; 255
    3852:	4f e7       	ldi	r20, 0x7F	; 127
    3854:	57 e4       	ldi	r21, 0x47	; 71
    3856:	6f a9       	ldd	r22, Y+55	; 0x37
    3858:	78 ad       	ldd	r23, Y+56	; 0x38
    385a:	89 ad       	ldd	r24, Y+57	; 0x39
    385c:	9a ad       	ldd	r25, Y+58	; 0x3a
    385e:	38 d7       	rcall	.+3696   	; 0x46d0 <__gesf2>
    3860:	18 16       	cp	r1, r24
    3862:	0c f0       	brlt	.+2      	; 0x3866 <make_tensometer_measure+0x2f2>
    3864:	c6 c0       	rjmp	.+396    	; 0x39f2 <make_tensometer_measure+0x47e>
	{
		_delay_ms(__us / 1000.0);
    3866:	20 e0       	ldi	r18, 0x00	; 0
    3868:	30 e0       	ldi	r19, 0x00	; 0
    386a:	4a e7       	ldi	r20, 0x7A	; 122
    386c:	54 e4       	ldi	r21, 0x44	; 68
    386e:	6f a5       	ldd	r22, Y+47	; 0x2f
    3870:	78 a9       	ldd	r23, Y+48	; 0x30
    3872:	89 a9       	ldd	r24, Y+49	; 0x31
    3874:	9a a9       	ldd	r25, Y+50	; 0x32
    3876:	e1 d5       	rcall	.+3010   	; 0x443a <__divsf3>
    3878:	dc 01       	movw	r26, r24
    387a:	cb 01       	movw	r24, r22
    387c:	8c af       	std	Y+60, r24	; 0x3c
    387e:	9d af       	std	Y+61, r25	; 0x3d
    3880:	ae af       	std	Y+62, r26	; 0x3e
    3882:	bf af       	std	Y+63, r27	; 0x3f

	__builtin_avr_delay_cycles(__ticks_dc);

#else
	uint16_t __ticks;
	__tmp = ((F_CPU) / 4e3) * __ms;
    3884:	8e 01       	movw	r16, r28
    3886:	00 5c       	subi	r16, 0xC0	; 192
    3888:	1f 4f       	sbci	r17, 0xFF	; 255
    388a:	20 e0       	ldi	r18, 0x00	; 0
    388c:	30 e0       	ldi	r19, 0x00	; 0
    388e:	4a e7       	ldi	r20, 0x7A	; 122
    3890:	55 e4       	ldi	r21, 0x45	; 69
    3892:	6c ad       	ldd	r22, Y+60	; 0x3c
    3894:	7d ad       	ldd	r23, Y+61	; 0x3d
    3896:	8e ad       	ldd	r24, Y+62	; 0x3e
    3898:	9f ad       	ldd	r25, Y+63	; 0x3f
    389a:	1e d7       	rcall	.+3644   	; 0x46d8 <__mulsf3>
    389c:	dc 01       	movw	r26, r24
    389e:	cb 01       	movw	r24, r22
    38a0:	f8 01       	movw	r30, r16
    38a2:	80 83       	st	Z, r24
    38a4:	91 83       	std	Z+1, r25	; 0x01
    38a6:	a2 83       	std	Z+2, r26	; 0x02
    38a8:	b3 83       	std	Z+3, r27	; 0x03
	if (__tmp < 1.0)
    38aa:	ce 01       	movw	r24, r28
    38ac:	80 5c       	subi	r24, 0xC0	; 192
    38ae:	9f 4f       	sbci	r25, 0xFF	; 255
    38b0:	20 e0       	ldi	r18, 0x00	; 0
    38b2:	30 e0       	ldi	r19, 0x00	; 0
    38b4:	40 e8       	ldi	r20, 0x80	; 128
    38b6:	5f e3       	ldi	r21, 0x3F	; 63
    38b8:	fc 01       	movw	r30, r24
    38ba:	60 81       	ld	r22, Z
    38bc:	71 81       	ldd	r23, Z+1	; 0x01
    38be:	82 81       	ldd	r24, Z+2	; 0x02
    38c0:	93 81       	ldd	r25, Z+3	; 0x03
    38c2:	b7 d5       	rcall	.+2926   	; 0x4432 <__cmpsf2>
    38c4:	88 23       	and	r24, r24
    38c6:	4c f4       	brge	.+18     	; 0x38da <make_tensometer_measure+0x366>
		__ticks = 1;
    38c8:	ce 01       	movw	r24, r28
    38ca:	8c 5b       	subi	r24, 0xBC	; 188
    38cc:	9f 4f       	sbci	r25, 0xFF	; 255
    38ce:	21 e0       	ldi	r18, 0x01	; 1
    38d0:	30 e0       	ldi	r19, 0x00	; 0
    38d2:	fc 01       	movw	r30, r24
    38d4:	31 83       	std	Z+1, r19	; 0x01
    38d6:	20 83       	st	Z, r18
    38d8:	6b c0       	rjmp	.+214    	; 0x39b0 <make_tensometer_measure+0x43c>
	else if (__tmp > 65535)
    38da:	ce 01       	movw	r24, r28
    38dc:	80 5c       	subi	r24, 0xC0	; 192
    38de:	9f 4f       	sbci	r25, 0xFF	; 255
    38e0:	20 e0       	ldi	r18, 0x00	; 0
    38e2:	3f ef       	ldi	r19, 0xFF	; 255
    38e4:	4f e7       	ldi	r20, 0x7F	; 127
    38e6:	57 e4       	ldi	r21, 0x47	; 71
    38e8:	fc 01       	movw	r30, r24
    38ea:	60 81       	ld	r22, Z
    38ec:	71 81       	ldd	r23, Z+1	; 0x01
    38ee:	82 81       	ldd	r24, Z+2	; 0x02
    38f0:	93 81       	ldd	r25, Z+3	; 0x03
    38f2:	ee d6       	rcall	.+3548   	; 0x46d0 <__gesf2>
    38f4:	18 16       	cp	r1, r24
    38f6:	0c f0       	brlt	.+2      	; 0x38fa <make_tensometer_measure+0x386>
    38f8:	4a c0       	rjmp	.+148    	; 0x398e <make_tensometer_measure+0x41a>
	{
		//	__ticks = requested delay in 1/10 ms
		__ticks = (uint16_t) (__ms * 10.0);
    38fa:	20 e0       	ldi	r18, 0x00	; 0
    38fc:	30 e0       	ldi	r19, 0x00	; 0
    38fe:	40 e2       	ldi	r20, 0x20	; 32
    3900:	51 e4       	ldi	r21, 0x41	; 65
    3902:	6c ad       	ldd	r22, Y+60	; 0x3c
    3904:	7d ad       	ldd	r23, Y+61	; 0x3d
    3906:	8e ad       	ldd	r24, Y+62	; 0x3e
    3908:	9f ad       	ldd	r25, Y+63	; 0x3f
    390a:	e6 d6       	rcall	.+3532   	; 0x46d8 <__mulsf3>
    390c:	dc 01       	movw	r26, r24
    390e:	cb 01       	movw	r24, r22
    3910:	8e 01       	movw	r16, r28
    3912:	0c 5b       	subi	r16, 0xBC	; 188
    3914:	1f 4f       	sbci	r17, 0xFF	; 255
    3916:	bc 01       	movw	r22, r24
    3918:	cd 01       	movw	r24, r26
    391a:	fc d5       	rcall	.+3064   	; 0x4514 <__fixunssfsi>
    391c:	dc 01       	movw	r26, r24
    391e:	cb 01       	movw	r24, r22
    3920:	f8 01       	movw	r30, r16
    3922:	91 83       	std	Z+1, r25	; 0x01
    3924:	80 83       	st	Z, r24
    3926:	24 c0       	rjmp	.+72     	; 0x3970 <make_tensometer_measure+0x3fc>
    3928:	ce 01       	movw	r24, r28
    392a:	8a 5b       	subi	r24, 0xBA	; 186
    392c:	9f 4f       	sbci	r25, 0xFF	; 255
    392e:	20 e9       	ldi	r18, 0x90	; 144
    3930:	31 e0       	ldi	r19, 0x01	; 1
    3932:	fc 01       	movw	r30, r24
    3934:	31 83       	std	Z+1, r19	; 0x01
    3936:	20 83       	st	Z, r18
    milliseconds can be achieved.
 */
void
_delay_loop_2(uint16_t __count)
{
	__asm__ volatile (
    3938:	ce 01       	movw	r24, r28
    393a:	8a 5b       	subi	r24, 0xBA	; 186
    393c:	9f 4f       	sbci	r25, 0xFF	; 255
    393e:	fc 01       	movw	r30, r24
    3940:	80 81       	ld	r24, Z
    3942:	91 81       	ldd	r25, Z+1	; 0x01
    3944:	01 97       	sbiw	r24, 0x01	; 1
    3946:	f1 f7       	brne	.-4      	; 0x3944 <make_tensometer_measure+0x3d0>
    3948:	9e 01       	movw	r18, r28
    394a:	2a 5b       	subi	r18, 0xBA	; 186
    394c:	3f 4f       	sbci	r19, 0xFF	; 255
    394e:	f9 01       	movw	r30, r18
    3950:	91 83       	std	Z+1, r25	; 0x01
    3952:	80 83       	st	Z, r24
		while(__ticks)
		{
			// wait 1/10 ms
			_delay_loop_2(((F_CPU) / 4e3) / 10);
			__ticks --;
    3954:	ce 01       	movw	r24, r28
    3956:	8c 5b       	subi	r24, 0xBC	; 188
    3958:	9f 4f       	sbci	r25, 0xFF	; 255
    395a:	9e 01       	movw	r18, r28
    395c:	2c 5b       	subi	r18, 0xBC	; 188
    395e:	3f 4f       	sbci	r19, 0xFF	; 255
    3960:	f9 01       	movw	r30, r18
    3962:	20 81       	ld	r18, Z
    3964:	31 81       	ldd	r19, Z+1	; 0x01
    3966:	21 50       	subi	r18, 0x01	; 1
    3968:	31 09       	sbc	r19, r1
    396a:	fc 01       	movw	r30, r24
    396c:	31 83       	std	Z+1, r19	; 0x01
    396e:	20 83       	st	Z, r18
		__ticks = 1;
	else if (__tmp > 65535)
	{
		//	__ticks = requested delay in 1/10 ms
		__ticks = (uint16_t) (__ms * 10.0);
		while(__ticks)
    3970:	ce 01       	movw	r24, r28
    3972:	8c 5b       	subi	r24, 0xBC	; 188
    3974:	9f 4f       	sbci	r25, 0xFF	; 255
    3976:	fc 01       	movw	r30, r24
    3978:	80 81       	ld	r24, Z
    397a:	91 81       	ldd	r25, Z+1	; 0x01
    397c:	89 2b       	or	r24, r25
    397e:	a1 f6       	brne	.-88     	; 0x3928 <make_tensometer_measure+0x3b4>
    3980:	ce 01       	movw	r24, r28
    3982:	81 5b       	subi	r24, 0xB1	; 177
    3984:	9f 4f       	sbci	r25, 0xFF	; 255
    3986:	fc 01       	movw	r30, r24
    3988:	80 81       	ld	r24, Z
    398a:	8b af       	std	Y+59, r24	; 0x3b
    398c:	6d c0       	rjmp	.+218    	; 0x3a68 <make_tensometer_measure+0x4f4>
			__ticks --;
		}
		return;
	}
	else
		__ticks = (uint16_t)__tmp;
    398e:	8e 01       	movw	r16, r28
    3990:	0c 5b       	subi	r16, 0xBC	; 188
    3992:	1f 4f       	sbci	r17, 0xFF	; 255
    3994:	ce 01       	movw	r24, r28
    3996:	80 5c       	subi	r24, 0xC0	; 192
    3998:	9f 4f       	sbci	r25, 0xFF	; 255
    399a:	fc 01       	movw	r30, r24
    399c:	60 81       	ld	r22, Z
    399e:	71 81       	ldd	r23, Z+1	; 0x01
    39a0:	82 81       	ldd	r24, Z+2	; 0x02
    39a2:	93 81       	ldd	r25, Z+3	; 0x03
    39a4:	b7 d5       	rcall	.+2926   	; 0x4514 <__fixunssfsi>
    39a6:	dc 01       	movw	r26, r24
    39a8:	cb 01       	movw	r24, r22
    39aa:	f8 01       	movw	r30, r16
    39ac:	91 83       	std	Z+1, r25	; 0x01
    39ae:	80 83       	st	Z, r24
    39b0:	ce 01       	movw	r24, r28
    39b2:	88 5b       	subi	r24, 0xB8	; 184
    39b4:	9f 4f       	sbci	r25, 0xFF	; 255
    39b6:	9e 01       	movw	r18, r28
    39b8:	2c 5b       	subi	r18, 0xBC	; 188
    39ba:	3f 4f       	sbci	r19, 0xFF	; 255
    39bc:	f9 01       	movw	r30, r18
    39be:	20 81       	ld	r18, Z
    39c0:	31 81       	ldd	r19, Z+1	; 0x01
    39c2:	fc 01       	movw	r30, r24
    39c4:	31 83       	std	Z+1, r19	; 0x01
    39c6:	20 83       	st	Z, r18
    39c8:	ce 01       	movw	r24, r28
    39ca:	88 5b       	subi	r24, 0xB8	; 184
    39cc:	9f 4f       	sbci	r25, 0xFF	; 255
    39ce:	fc 01       	movw	r30, r24
    39d0:	80 81       	ld	r24, Z
    39d2:	91 81       	ldd	r25, Z+1	; 0x01
    39d4:	01 97       	sbiw	r24, 0x01	; 1
    39d6:	f1 f7       	brne	.-4      	; 0x39d4 <make_tensometer_measure+0x460>
    39d8:	9e 01       	movw	r18, r28
    39da:	28 5b       	subi	r18, 0xB8	; 184
    39dc:	3f 4f       	sbci	r19, 0xFF	; 255
    39de:	f9 01       	movw	r30, r18
    39e0:	91 83       	std	Z+1, r25	; 0x01
    39e2:	80 83       	st	Z, r24
    39e4:	ce 01       	movw	r24, r28
    39e6:	81 5b       	subi	r24, 0xB1	; 177
    39e8:	9f 4f       	sbci	r25, 0xFF	; 255
    39ea:	fc 01       	movw	r30, r24
    39ec:	80 81       	ld	r24, Z
    39ee:	8b af       	std	Y+59, r24	; 0x3b
    39f0:	3b c0       	rjmp	.+118    	; 0x3a68 <make_tensometer_measure+0x4f4>
		__ticks = 1;
	else if (__tmp2 > 65535)
	{
		_delay_ms(__us / 1000.0);
	}
	else if (__tmp > 255)
    39f2:	20 e0       	ldi	r18, 0x00	; 0
    39f4:	30 e0       	ldi	r19, 0x00	; 0
    39f6:	4f e7       	ldi	r20, 0x7F	; 127
    39f8:	53 e4       	ldi	r21, 0x43	; 67
    39fa:	6b a9       	ldd	r22, Y+51	; 0x33
    39fc:	7c a9       	ldd	r23, Y+52	; 0x34
    39fe:	8d a9       	ldd	r24, Y+53	; 0x35
    3a00:	9e a9       	ldd	r25, Y+54	; 0x36
    3a02:	66 d6       	rcall	.+3276   	; 0x46d0 <__gesf2>
    3a04:	18 16       	cp	r1, r24
    3a06:	44 f5       	brge	.+80     	; 0x3a58 <make_tensometer_measure+0x4e4>
	{
		uint16_t __ticks=(uint16_t)__tmp2;
    3a08:	8e 01       	movw	r16, r28
    3a0a:	06 5b       	subi	r16, 0xB6	; 182
    3a0c:	1f 4f       	sbci	r17, 0xFF	; 255
    3a0e:	6f a9       	ldd	r22, Y+55	; 0x37
    3a10:	78 ad       	ldd	r23, Y+56	; 0x38
    3a12:	89 ad       	ldd	r24, Y+57	; 0x39
    3a14:	9a ad       	ldd	r25, Y+58	; 0x3a
    3a16:	7e d5       	rcall	.+2812   	; 0x4514 <__fixunssfsi>
    3a18:	dc 01       	movw	r26, r24
    3a1a:	cb 01       	movw	r24, r22
    3a1c:	f8 01       	movw	r30, r16
    3a1e:	91 83       	std	Z+1, r25	; 0x01
    3a20:	80 83       	st	Z, r24
    3a22:	ce 01       	movw	r24, r28
    3a24:	84 5b       	subi	r24, 0xB4	; 180
    3a26:	9f 4f       	sbci	r25, 0xFF	; 255
    3a28:	9e 01       	movw	r18, r28
    3a2a:	26 5b       	subi	r18, 0xB6	; 182
    3a2c:	3f 4f       	sbci	r19, 0xFF	; 255
    3a2e:	f9 01       	movw	r30, r18
    3a30:	20 81       	ld	r18, Z
    3a32:	31 81       	ldd	r19, Z+1	; 0x01
    3a34:	fc 01       	movw	r30, r24
    3a36:	31 83       	std	Z+1, r19	; 0x01
    3a38:	20 83       	st	Z, r18
    3a3a:	ce 01       	movw	r24, r28
    3a3c:	84 5b       	subi	r24, 0xB4	; 180
    3a3e:	9f 4f       	sbci	r25, 0xFF	; 255
    3a40:	fc 01       	movw	r30, r24
    3a42:	80 81       	ld	r24, Z
    3a44:	91 81       	ldd	r25, Z+1	; 0x01
    3a46:	01 97       	sbiw	r24, 0x01	; 1
    3a48:	f1 f7       	brne	.-4      	; 0x3a46 <make_tensometer_measure+0x4d2>
    3a4a:	9e 01       	movw	r18, r28
    3a4c:	24 5b       	subi	r18, 0xB4	; 180
    3a4e:	3f 4f       	sbci	r19, 0xFF	; 255
    3a50:	f9 01       	movw	r30, r18
    3a52:	91 83       	std	Z+1, r25	; 0x01
    3a54:	80 83       	st	Z, r24
    3a56:	1b c0       	rjmp	.+54     	; 0x3a8e <make_tensometer_measure+0x51a>
		_delay_loop_2(__ticks);
		return;
	}
	else
		__ticks = (uint8_t)__tmp;
    3a58:	6b a9       	ldd	r22, Y+51	; 0x33
    3a5a:	7c a9       	ldd	r23, Y+52	; 0x34
    3a5c:	8d a9       	ldd	r24, Y+53	; 0x35
    3a5e:	9e a9       	ldd	r25, Y+54	; 0x36
    3a60:	59 d5       	rcall	.+2738   	; 0x4514 <__fixunssfsi>
    3a62:	dc 01       	movw	r26, r24
    3a64:	cb 01       	movw	r24, r22
    3a66:	8b af       	std	Y+59, r24	; 0x3b
    3a68:	ce 01       	movw	r24, r28
    3a6a:	82 5b       	subi	r24, 0xB2	; 178
    3a6c:	9f 4f       	sbci	r25, 0xFF	; 255
    3a6e:	2b ad       	ldd	r18, Y+59	; 0x3b
    3a70:	fc 01       	movw	r30, r24
    3a72:	20 83       	st	Z, r18
    can be achieved.
*/
void
_delay_loop_1(uint8_t __count)
{
	__asm__ volatile (
    3a74:	ce 01       	movw	r24, r28
    3a76:	82 5b       	subi	r24, 0xB2	; 178
    3a78:	9f 4f       	sbci	r25, 0xFF	; 255
    3a7a:	fc 01       	movw	r30, r24
    3a7c:	80 81       	ld	r24, Z
    3a7e:	28 2f       	mov	r18, r24
    3a80:	2a 95       	dec	r18
    3a82:	f1 f7       	brne	.-4      	; 0x3a80 <make_tensometer_measure+0x50c>
    3a84:	ce 01       	movw	r24, r28
    3a86:	82 5b       	subi	r24, 0xB2	; 178
    3a88:	9f 4f       	sbci	r25, 0xFF	; 255
    3a8a:	fc 01       	movw	r30, r24
    3a8c:	20 83       	st	Z, r18
	
	
	int32_t data=0; 		
	while (ADS_DRDY_IF_HI);	// Czekamy na koniec przetwarzania
			
	for(uint8_t i=0; i<24; i++)
    3a8e:	8d 81       	ldd	r24, Y+5	; 0x05
    3a90:	8f 5f       	subi	r24, 0xFF	; 255
    3a92:	8d 83       	std	Y+5, r24	; 0x05
    3a94:	8d 81       	ldd	r24, Y+5	; 0x05
    3a96:	88 31       	cpi	r24, 0x18	; 24
    3a98:	08 f4       	brcc	.+2      	; 0x3a9c <make_tensometer_measure+0x528>
    3a9a:	8a cd       	rjmp	.-1260   	; 0x35b0 <make_tensometer_measure+0x3c>
		if(ADS_DRDY_IF_HI) data |= 1;
		ADS_SCLK_LOW;
		_delay_us(2);
	}
			
	ADS_SCLK_HIGH;
    3a9c:	88 e0       	ldi	r24, 0x08	; 8
    3a9e:	91 e0       	ldi	r25, 0x01	; 1
    3aa0:	28 e0       	ldi	r18, 0x08	; 8
    3aa2:	31 e0       	ldi	r19, 0x01	; 1
    3aa4:	f9 01       	movw	r30, r18
    3aa6:	20 81       	ld	r18, Z
    3aa8:	28 60       	ori	r18, 0x08	; 8
    3aaa:	fc 01       	movw	r30, r24
    3aac:	20 83       	st	Z, r18
    3aae:	9e 01       	movw	r18, r28
    3ab0:	20 5b       	subi	r18, 0xB0	; 176
    3ab2:	3f 4f       	sbci	r19, 0xFF	; 255
    3ab4:	80 e0       	ldi	r24, 0x00	; 0
    3ab6:	90 e0       	ldi	r25, 0x00	; 0
    3ab8:	a0 e0       	ldi	r26, 0x00	; 0
    3aba:	b0 e4       	ldi	r27, 0x40	; 64
    3abc:	f9 01       	movw	r30, r18
    3abe:	80 83       	st	Z, r24
    3ac0:	91 83       	std	Z+1, r25	; 0x01
    3ac2:	a2 83       	std	Z+2, r26	; 0x02
    3ac4:	b3 83       	std	Z+3, r27	; 0x03
	__builtin_avr_delay_cycles(__ticks_dc);

#else
	uint8_t __ticks;
	double __tmp2 ;
	__tmp = ((F_CPU) / 3e6) * __us;
    3ac6:	8e 01       	movw	r16, r28
    3ac8:	0c 5a       	subi	r16, 0xAC	; 172
    3aca:	1f 4f       	sbci	r17, 0xFF	; 255
    3acc:	ce 01       	movw	r24, r28
    3ace:	80 5b       	subi	r24, 0xB0	; 176
    3ad0:	9f 4f       	sbci	r25, 0xFF	; 255
    3ad2:	2b ea       	ldi	r18, 0xAB	; 171
    3ad4:	3a ea       	ldi	r19, 0xAA	; 170
    3ad6:	4a ea       	ldi	r20, 0xAA	; 170
    3ad8:	50 e4       	ldi	r21, 0x40	; 64
    3ada:	fc 01       	movw	r30, r24
    3adc:	60 81       	ld	r22, Z
    3ade:	71 81       	ldd	r23, Z+1	; 0x01
    3ae0:	82 81       	ldd	r24, Z+2	; 0x02
    3ae2:	93 81       	ldd	r25, Z+3	; 0x03
    3ae4:	f9 d5       	rcall	.+3058   	; 0x46d8 <__mulsf3>
    3ae6:	dc 01       	movw	r26, r24
    3ae8:	cb 01       	movw	r24, r22
    3aea:	f8 01       	movw	r30, r16
    3aec:	80 83       	st	Z, r24
    3aee:	91 83       	std	Z+1, r25	; 0x01
    3af0:	a2 83       	std	Z+2, r26	; 0x02
    3af2:	b3 83       	std	Z+3, r27	; 0x03
	__tmp2 = ((F_CPU) / 4e6) * __us;
    3af4:	8e 01       	movw	r16, r28
    3af6:	08 5a       	subi	r16, 0xA8	; 168
    3af8:	1f 4f       	sbci	r17, 0xFF	; 255
    3afa:	ce 01       	movw	r24, r28
    3afc:	80 5b       	subi	r24, 0xB0	; 176
    3afe:	9f 4f       	sbci	r25, 0xFF	; 255
    3b00:	20 e0       	ldi	r18, 0x00	; 0
    3b02:	30 e0       	ldi	r19, 0x00	; 0
    3b04:	40 e8       	ldi	r20, 0x80	; 128
    3b06:	50 e4       	ldi	r21, 0x40	; 64
    3b08:	fc 01       	movw	r30, r24
    3b0a:	60 81       	ld	r22, Z
    3b0c:	71 81       	ldd	r23, Z+1	; 0x01
    3b0e:	82 81       	ldd	r24, Z+2	; 0x02
    3b10:	93 81       	ldd	r25, Z+3	; 0x03
    3b12:	e2 d5       	rcall	.+3012   	; 0x46d8 <__mulsf3>
    3b14:	dc 01       	movw	r26, r24
    3b16:	cb 01       	movw	r24, r22
    3b18:	f8 01       	movw	r30, r16
    3b1a:	80 83       	st	Z, r24
    3b1c:	91 83       	std	Z+1, r25	; 0x01
    3b1e:	a2 83       	std	Z+2, r26	; 0x02
    3b20:	b3 83       	std	Z+3, r27	; 0x03
	if (__tmp < 1.0)
    3b22:	ce 01       	movw	r24, r28
    3b24:	8c 5a       	subi	r24, 0xAC	; 172
    3b26:	9f 4f       	sbci	r25, 0xFF	; 255
    3b28:	20 e0       	ldi	r18, 0x00	; 0
    3b2a:	30 e0       	ldi	r19, 0x00	; 0
    3b2c:	40 e8       	ldi	r20, 0x80	; 128
    3b2e:	5f e3       	ldi	r21, 0x3F	; 63
    3b30:	fc 01       	movw	r30, r24
    3b32:	60 81       	ld	r22, Z
    3b34:	71 81       	ldd	r23, Z+1	; 0x01
    3b36:	82 81       	ldd	r24, Z+2	; 0x02
    3b38:	93 81       	ldd	r25, Z+3	; 0x03
    3b3a:	7b d4       	rcall	.+2294   	; 0x4432 <__cmpsf2>
    3b3c:	88 23       	and	r24, r24
    3b3e:	3c f4       	brge	.+14     	; 0x3b4e <make_tensometer_measure+0x5da>
		__ticks = 1;
    3b40:	ce 01       	movw	r24, r28
    3b42:	84 5a       	subi	r24, 0xA4	; 164
    3b44:	9f 4f       	sbci	r25, 0xFF	; 255
    3b46:	21 e0       	ldi	r18, 0x01	; 1
    3b48:	fc 01       	movw	r30, r24
    3b4a:	20 83       	st	Z, r18
    3b4c:	25 c1       	rjmp	.+586    	; 0x3d98 <make_tensometer_measure+0x824>
	else if (__tmp2 > 65535)
    3b4e:	ce 01       	movw	r24, r28
    3b50:	88 5a       	subi	r24, 0xA8	; 168
    3b52:	9f 4f       	sbci	r25, 0xFF	; 255
    3b54:	20 e0       	ldi	r18, 0x00	; 0
    3b56:	3f ef       	ldi	r19, 0xFF	; 255
    3b58:	4f e7       	ldi	r20, 0x7F	; 127
    3b5a:	57 e4       	ldi	r21, 0x47	; 71
    3b5c:	fc 01       	movw	r30, r24
    3b5e:	60 81       	ld	r22, Z
    3b60:	71 81       	ldd	r23, Z+1	; 0x01
    3b62:	82 81       	ldd	r24, Z+2	; 0x02
    3b64:	93 81       	ldd	r25, Z+3	; 0x03
    3b66:	b4 d5       	rcall	.+2920   	; 0x46d0 <__gesf2>
    3b68:	18 16       	cp	r1, r24
    3b6a:	0c f0       	brlt	.+2      	; 0x3b6e <make_tensometer_measure+0x5fa>
    3b6c:	ca c0       	rjmp	.+404    	; 0x3d02 <make_tensometer_measure+0x78e>
	{
		_delay_ms(__us / 1000.0);
    3b6e:	ce 01       	movw	r24, r28
    3b70:	80 5b       	subi	r24, 0xB0	; 176
    3b72:	9f 4f       	sbci	r25, 0xFF	; 255
    3b74:	20 e0       	ldi	r18, 0x00	; 0
    3b76:	30 e0       	ldi	r19, 0x00	; 0
    3b78:	4a e7       	ldi	r20, 0x7A	; 122
    3b7a:	54 e4       	ldi	r21, 0x44	; 68
    3b7c:	fc 01       	movw	r30, r24
    3b7e:	60 81       	ld	r22, Z
    3b80:	71 81       	ldd	r23, Z+1	; 0x01
    3b82:	82 81       	ldd	r24, Z+2	; 0x02
    3b84:	93 81       	ldd	r25, Z+3	; 0x03
    3b86:	59 d4       	rcall	.+2226   	; 0x443a <__divsf3>
    3b88:	dc 01       	movw	r26, r24
    3b8a:	cb 01       	movw	r24, r22
    3b8c:	9e 01       	movw	r18, r28
    3b8e:	23 5a       	subi	r18, 0xA3	; 163
    3b90:	3f 4f       	sbci	r19, 0xFF	; 255
    3b92:	f9 01       	movw	r30, r18
    3b94:	80 83       	st	Z, r24
    3b96:	91 83       	std	Z+1, r25	; 0x01
    3b98:	a2 83       	std	Z+2, r26	; 0x02
    3b9a:	b3 83       	std	Z+3, r27	; 0x03

	__builtin_avr_delay_cycles(__ticks_dc);

#else
	uint16_t __ticks;
	__tmp = ((F_CPU) / 4e3) * __ms;
    3b9c:	8e 01       	movw	r16, r28
    3b9e:	0f 59       	subi	r16, 0x9F	; 159
    3ba0:	1f 4f       	sbci	r17, 0xFF	; 255
    3ba2:	ce 01       	movw	r24, r28
    3ba4:	83 5a       	subi	r24, 0xA3	; 163
    3ba6:	9f 4f       	sbci	r25, 0xFF	; 255
    3ba8:	20 e0       	ldi	r18, 0x00	; 0
    3baa:	30 e0       	ldi	r19, 0x00	; 0
    3bac:	4a e7       	ldi	r20, 0x7A	; 122
    3bae:	55 e4       	ldi	r21, 0x45	; 69
    3bb0:	fc 01       	movw	r30, r24
    3bb2:	60 81       	ld	r22, Z
    3bb4:	71 81       	ldd	r23, Z+1	; 0x01
    3bb6:	82 81       	ldd	r24, Z+2	; 0x02
    3bb8:	93 81       	ldd	r25, Z+3	; 0x03
    3bba:	8e d5       	rcall	.+2844   	; 0x46d8 <__mulsf3>
    3bbc:	dc 01       	movw	r26, r24
    3bbe:	cb 01       	movw	r24, r22
    3bc0:	f8 01       	movw	r30, r16
    3bc2:	80 83       	st	Z, r24
    3bc4:	91 83       	std	Z+1, r25	; 0x01
    3bc6:	a2 83       	std	Z+2, r26	; 0x02
    3bc8:	b3 83       	std	Z+3, r27	; 0x03
	if (__tmp < 1.0)
    3bca:	ce 01       	movw	r24, r28
    3bcc:	8f 59       	subi	r24, 0x9F	; 159
    3bce:	9f 4f       	sbci	r25, 0xFF	; 255
    3bd0:	20 e0       	ldi	r18, 0x00	; 0
    3bd2:	30 e0       	ldi	r19, 0x00	; 0
    3bd4:	40 e8       	ldi	r20, 0x80	; 128
    3bd6:	5f e3       	ldi	r21, 0x3F	; 63
    3bd8:	fc 01       	movw	r30, r24
    3bda:	60 81       	ld	r22, Z
    3bdc:	71 81       	ldd	r23, Z+1	; 0x01
    3bde:	82 81       	ldd	r24, Z+2	; 0x02
    3be0:	93 81       	ldd	r25, Z+3	; 0x03
    3be2:	27 d4       	rcall	.+2126   	; 0x4432 <__cmpsf2>
    3be4:	88 23       	and	r24, r24
    3be6:	4c f4       	brge	.+18     	; 0x3bfa <make_tensometer_measure+0x686>
		__ticks = 1;
    3be8:	ce 01       	movw	r24, r28
    3bea:	8b 59       	subi	r24, 0x9B	; 155
    3bec:	9f 4f       	sbci	r25, 0xFF	; 255
    3bee:	21 e0       	ldi	r18, 0x01	; 1
    3bf0:	30 e0       	ldi	r19, 0x00	; 0
    3bf2:	fc 01       	movw	r30, r24
    3bf4:	31 83       	std	Z+1, r19	; 0x01
    3bf6:	20 83       	st	Z, r18
    3bf8:	69 c0       	rjmp	.+210    	; 0x3ccc <make_tensometer_measure+0x758>
	else if (__tmp > 65535)
    3bfa:	ce 01       	movw	r24, r28
    3bfc:	8f 59       	subi	r24, 0x9F	; 159
    3bfe:	9f 4f       	sbci	r25, 0xFF	; 255
    3c00:	20 e0       	ldi	r18, 0x00	; 0
    3c02:	3f ef       	ldi	r19, 0xFF	; 255
    3c04:	4f e7       	ldi	r20, 0x7F	; 127
    3c06:	57 e4       	ldi	r21, 0x47	; 71
    3c08:	fc 01       	movw	r30, r24
    3c0a:	60 81       	ld	r22, Z
    3c0c:	71 81       	ldd	r23, Z+1	; 0x01
    3c0e:	82 81       	ldd	r24, Z+2	; 0x02
    3c10:	93 81       	ldd	r25, Z+3	; 0x03
    3c12:	5e d5       	rcall	.+2748   	; 0x46d0 <__gesf2>
    3c14:	18 16       	cp	r1, r24
    3c16:	0c f0       	brlt	.+2      	; 0x3c1a <make_tensometer_measure+0x6a6>
    3c18:	48 c0       	rjmp	.+144    	; 0x3caa <make_tensometer_measure+0x736>
	{
		//	__ticks = requested delay in 1/10 ms
		__ticks = (uint16_t) (__ms * 10.0);
    3c1a:	ce 01       	movw	r24, r28
    3c1c:	83 5a       	subi	r24, 0xA3	; 163
    3c1e:	9f 4f       	sbci	r25, 0xFF	; 255
    3c20:	20 e0       	ldi	r18, 0x00	; 0
    3c22:	30 e0       	ldi	r19, 0x00	; 0
    3c24:	40 e2       	ldi	r20, 0x20	; 32
    3c26:	51 e4       	ldi	r21, 0x41	; 65
    3c28:	fc 01       	movw	r30, r24
    3c2a:	60 81       	ld	r22, Z
    3c2c:	71 81       	ldd	r23, Z+1	; 0x01
    3c2e:	82 81       	ldd	r24, Z+2	; 0x02
    3c30:	93 81       	ldd	r25, Z+3	; 0x03
    3c32:	52 d5       	rcall	.+2724   	; 0x46d8 <__mulsf3>
    3c34:	dc 01       	movw	r26, r24
    3c36:	cb 01       	movw	r24, r22
    3c38:	8e 01       	movw	r16, r28
    3c3a:	0b 59       	subi	r16, 0x9B	; 155
    3c3c:	1f 4f       	sbci	r17, 0xFF	; 255
    3c3e:	bc 01       	movw	r22, r24
    3c40:	cd 01       	movw	r24, r26
    3c42:	68 d4       	rcall	.+2256   	; 0x4514 <__fixunssfsi>
    3c44:	dc 01       	movw	r26, r24
    3c46:	cb 01       	movw	r24, r22
    3c48:	f8 01       	movw	r30, r16
    3c4a:	91 83       	std	Z+1, r25	; 0x01
    3c4c:	80 83       	st	Z, r24
    3c4e:	24 c0       	rjmp	.+72     	; 0x3c98 <make_tensometer_measure+0x724>
    3c50:	ce 01       	movw	r24, r28
    3c52:	89 59       	subi	r24, 0x99	; 153
    3c54:	9f 4f       	sbci	r25, 0xFF	; 255
    3c56:	20 e9       	ldi	r18, 0x90	; 144
    3c58:	31 e0       	ldi	r19, 0x01	; 1
    3c5a:	fc 01       	movw	r30, r24
    3c5c:	31 83       	std	Z+1, r19	; 0x01
    3c5e:	20 83       	st	Z, r18
    milliseconds can be achieved.
 */
void
_delay_loop_2(uint16_t __count)
{
	__asm__ volatile (
    3c60:	ce 01       	movw	r24, r28
    3c62:	89 59       	subi	r24, 0x99	; 153
    3c64:	9f 4f       	sbci	r25, 0xFF	; 255
    3c66:	fc 01       	movw	r30, r24
    3c68:	80 81       	ld	r24, Z
    3c6a:	91 81       	ldd	r25, Z+1	; 0x01
    3c6c:	01 97       	sbiw	r24, 0x01	; 1
    3c6e:	f1 f7       	brne	.-4      	; 0x3c6c <make_tensometer_measure+0x6f8>
    3c70:	9e 01       	movw	r18, r28
    3c72:	29 59       	subi	r18, 0x99	; 153
    3c74:	3f 4f       	sbci	r19, 0xFF	; 255
    3c76:	f9 01       	movw	r30, r18
    3c78:	91 83       	std	Z+1, r25	; 0x01
    3c7a:	80 83       	st	Z, r24
		while(__ticks)
		{
			// wait 1/10 ms
			_delay_loop_2(((F_CPU) / 4e3) / 10);
			__ticks --;
    3c7c:	ce 01       	movw	r24, r28
    3c7e:	8b 59       	subi	r24, 0x9B	; 155
    3c80:	9f 4f       	sbci	r25, 0xFF	; 255
    3c82:	9e 01       	movw	r18, r28
    3c84:	2b 59       	subi	r18, 0x9B	; 155
    3c86:	3f 4f       	sbci	r19, 0xFF	; 255
    3c88:	f9 01       	movw	r30, r18
    3c8a:	20 81       	ld	r18, Z
    3c8c:	31 81       	ldd	r19, Z+1	; 0x01
    3c8e:	21 50       	subi	r18, 0x01	; 1
    3c90:	31 09       	sbc	r19, r1
    3c92:	fc 01       	movw	r30, r24
    3c94:	31 83       	std	Z+1, r19	; 0x01
    3c96:	20 83       	st	Z, r18
		__ticks = 1;
	else if (__tmp > 65535)
	{
		//	__ticks = requested delay in 1/10 ms
		__ticks = (uint16_t) (__ms * 10.0);
		while(__ticks)
    3c98:	ce 01       	movw	r24, r28
    3c9a:	8b 59       	subi	r24, 0x9B	; 155
    3c9c:	9f 4f       	sbci	r25, 0xFF	; 255
    3c9e:	fc 01       	movw	r30, r24
    3ca0:	80 81       	ld	r24, Z
    3ca2:	91 81       	ldd	r25, Z+1	; 0x01
    3ca4:	89 2b       	or	r24, r25
    3ca6:	a1 f6       	brne	.-88     	; 0x3c50 <make_tensometer_measure+0x6dc>
    3ca8:	77 c0       	rjmp	.+238    	; 0x3d98 <make_tensometer_measure+0x824>
			__ticks --;
		}
		return;
	}
	else
		__ticks = (uint16_t)__tmp;
    3caa:	8e 01       	movw	r16, r28
    3cac:	0b 59       	subi	r16, 0x9B	; 155
    3cae:	1f 4f       	sbci	r17, 0xFF	; 255
    3cb0:	ce 01       	movw	r24, r28
    3cb2:	8f 59       	subi	r24, 0x9F	; 159
    3cb4:	9f 4f       	sbci	r25, 0xFF	; 255
    3cb6:	fc 01       	movw	r30, r24
    3cb8:	60 81       	ld	r22, Z
    3cba:	71 81       	ldd	r23, Z+1	; 0x01
    3cbc:	82 81       	ldd	r24, Z+2	; 0x02
    3cbe:	93 81       	ldd	r25, Z+3	; 0x03
    3cc0:	29 d4       	rcall	.+2130   	; 0x4514 <__fixunssfsi>
    3cc2:	dc 01       	movw	r26, r24
    3cc4:	cb 01       	movw	r24, r22
    3cc6:	f8 01       	movw	r30, r16
    3cc8:	91 83       	std	Z+1, r25	; 0x01
    3cca:	80 83       	st	Z, r24
    3ccc:	ce 01       	movw	r24, r28
    3cce:	87 59       	subi	r24, 0x97	; 151
    3cd0:	9f 4f       	sbci	r25, 0xFF	; 255
    3cd2:	9e 01       	movw	r18, r28
    3cd4:	2b 59       	subi	r18, 0x9B	; 155
    3cd6:	3f 4f       	sbci	r19, 0xFF	; 255
    3cd8:	f9 01       	movw	r30, r18
    3cda:	20 81       	ld	r18, Z
    3cdc:	31 81       	ldd	r19, Z+1	; 0x01
    3cde:	fc 01       	movw	r30, r24
    3ce0:	31 83       	std	Z+1, r19	; 0x01
    3ce2:	20 83       	st	Z, r18
    3ce4:	ce 01       	movw	r24, r28
    3ce6:	87 59       	subi	r24, 0x97	; 151
    3ce8:	9f 4f       	sbci	r25, 0xFF	; 255
    3cea:	fc 01       	movw	r30, r24
    3cec:	80 81       	ld	r24, Z
    3cee:	91 81       	ldd	r25, Z+1	; 0x01
    3cf0:	01 97       	sbiw	r24, 0x01	; 1
    3cf2:	f1 f7       	brne	.-4      	; 0x3cf0 <make_tensometer_measure+0x77c>
    3cf4:	9e 01       	movw	r18, r28
    3cf6:	27 59       	subi	r18, 0x97	; 151
    3cf8:	3f 4f       	sbci	r19, 0xFF	; 255
    3cfa:	f9 01       	movw	r30, r18
    3cfc:	91 83       	std	Z+1, r25	; 0x01
    3cfe:	80 83       	st	Z, r24
    3d00:	4b c0       	rjmp	.+150    	; 0x3d98 <make_tensometer_measure+0x824>
		__ticks = 1;
	else if (__tmp2 > 65535)
	{
		_delay_ms(__us / 1000.0);
	}
	else if (__tmp > 255)
    3d02:	ce 01       	movw	r24, r28
    3d04:	8c 5a       	subi	r24, 0xAC	; 172
    3d06:	9f 4f       	sbci	r25, 0xFF	; 255
    3d08:	20 e0       	ldi	r18, 0x00	; 0
    3d0a:	30 e0       	ldi	r19, 0x00	; 0
    3d0c:	4f e7       	ldi	r20, 0x7F	; 127
    3d0e:	53 e4       	ldi	r21, 0x43	; 67
    3d10:	fc 01       	movw	r30, r24
    3d12:	60 81       	ld	r22, Z
    3d14:	71 81       	ldd	r23, Z+1	; 0x01
    3d16:	82 81       	ldd	r24, Z+2	; 0x02
    3d18:	93 81       	ldd	r25, Z+3	; 0x03
    3d1a:	da d4       	rcall	.+2484   	; 0x46d0 <__gesf2>
    3d1c:	18 16       	cp	r1, r24
    3d1e:	64 f5       	brge	.+88     	; 0x3d78 <make_tensometer_measure+0x804>
	{
		uint16_t __ticks=(uint16_t)__tmp2;
    3d20:	8e 01       	movw	r16, r28
    3d22:	05 59       	subi	r16, 0x95	; 149
    3d24:	1f 4f       	sbci	r17, 0xFF	; 255
    3d26:	ce 01       	movw	r24, r28
    3d28:	88 5a       	subi	r24, 0xA8	; 168
    3d2a:	9f 4f       	sbci	r25, 0xFF	; 255
    3d2c:	fc 01       	movw	r30, r24
    3d2e:	60 81       	ld	r22, Z
    3d30:	71 81       	ldd	r23, Z+1	; 0x01
    3d32:	82 81       	ldd	r24, Z+2	; 0x02
    3d34:	93 81       	ldd	r25, Z+3	; 0x03
    3d36:	ee d3       	rcall	.+2012   	; 0x4514 <__fixunssfsi>
    3d38:	dc 01       	movw	r26, r24
    3d3a:	cb 01       	movw	r24, r22
    3d3c:	f8 01       	movw	r30, r16
    3d3e:	91 83       	std	Z+1, r25	; 0x01
    3d40:	80 83       	st	Z, r24
    3d42:	ce 01       	movw	r24, r28
    3d44:	83 59       	subi	r24, 0x93	; 147
    3d46:	9f 4f       	sbci	r25, 0xFF	; 255
    3d48:	9e 01       	movw	r18, r28
    3d4a:	25 59       	subi	r18, 0x95	; 149
    3d4c:	3f 4f       	sbci	r19, 0xFF	; 255
    3d4e:	f9 01       	movw	r30, r18
    3d50:	20 81       	ld	r18, Z
    3d52:	31 81       	ldd	r19, Z+1	; 0x01
    3d54:	fc 01       	movw	r30, r24
    3d56:	31 83       	std	Z+1, r19	; 0x01
    3d58:	20 83       	st	Z, r18
    3d5a:	ce 01       	movw	r24, r28
    3d5c:	83 59       	subi	r24, 0x93	; 147
    3d5e:	9f 4f       	sbci	r25, 0xFF	; 255
    3d60:	fc 01       	movw	r30, r24
    3d62:	80 81       	ld	r24, Z
    3d64:	91 81       	ldd	r25, Z+1	; 0x01
    3d66:	01 97       	sbiw	r24, 0x01	; 1
    3d68:	f1 f7       	brne	.-4      	; 0x3d66 <make_tensometer_measure+0x7f2>
    3d6a:	9e 01       	movw	r18, r28
    3d6c:	23 59       	subi	r18, 0x93	; 147
    3d6e:	3f 4f       	sbci	r19, 0xFF	; 255
    3d70:	f9 01       	movw	r30, r18
    3d72:	91 83       	std	Z+1, r25	; 0x01
    3d74:	80 83       	st	Z, r24
    3d76:	27 c0       	rjmp	.+78     	; 0x3dc6 <make_tensometer_measure+0x852>
		_delay_loop_2(__ticks);
		return;
	}
	else
		__ticks = (uint8_t)__tmp;
    3d78:	8e 01       	movw	r16, r28
    3d7a:	04 5a       	subi	r16, 0xA4	; 164
    3d7c:	1f 4f       	sbci	r17, 0xFF	; 255
    3d7e:	ce 01       	movw	r24, r28
    3d80:	8c 5a       	subi	r24, 0xAC	; 172
    3d82:	9f 4f       	sbci	r25, 0xFF	; 255
    3d84:	fc 01       	movw	r30, r24
    3d86:	60 81       	ld	r22, Z
    3d88:	71 81       	ldd	r23, Z+1	; 0x01
    3d8a:	82 81       	ldd	r24, Z+2	; 0x02
    3d8c:	93 81       	ldd	r25, Z+3	; 0x03
    3d8e:	c2 d3       	rcall	.+1924   	; 0x4514 <__fixunssfsi>
    3d90:	dc 01       	movw	r26, r24
    3d92:	cb 01       	movw	r24, r22
    3d94:	f8 01       	movw	r30, r16
    3d96:	80 83       	st	Z, r24
    3d98:	ce 01       	movw	r24, r28
    3d9a:	81 59       	subi	r24, 0x91	; 145
    3d9c:	9f 4f       	sbci	r25, 0xFF	; 255
    3d9e:	9e 01       	movw	r18, r28
    3da0:	24 5a       	subi	r18, 0xA4	; 164
    3da2:	3f 4f       	sbci	r19, 0xFF	; 255
    3da4:	f9 01       	movw	r30, r18
    3da6:	20 81       	ld	r18, Z
    3da8:	fc 01       	movw	r30, r24
    3daa:	20 83       	st	Z, r18
    can be achieved.
*/
void
_delay_loop_1(uint8_t __count)
{
	__asm__ volatile (
    3dac:	ce 01       	movw	r24, r28
    3dae:	81 59       	subi	r24, 0x91	; 145
    3db0:	9f 4f       	sbci	r25, 0xFF	; 255
    3db2:	fc 01       	movw	r30, r24
    3db4:	80 81       	ld	r24, Z
    3db6:	28 2f       	mov	r18, r24
    3db8:	2a 95       	dec	r18
    3dba:	f1 f7       	brne	.-4      	; 0x3db8 <make_tensometer_measure+0x844>
    3dbc:	ce 01       	movw	r24, r28
    3dbe:	81 59       	subi	r24, 0x91	; 145
    3dc0:	9f 4f       	sbci	r25, 0xFF	; 255
    3dc2:	fc 01       	movw	r30, r24
    3dc4:	20 83       	st	Z, r18
	_delay_us(2);
	ADS_SCLK_LOW;
    3dc6:	88 e0       	ldi	r24, 0x08	; 8
    3dc8:	91 e0       	ldi	r25, 0x01	; 1
    3dca:	28 e0       	ldi	r18, 0x08	; 8
    3dcc:	31 e0       	ldi	r19, 0x01	; 1
    3dce:	f9 01       	movw	r30, r18
    3dd0:	20 81       	ld	r18, Z
    3dd2:	27 7f       	andi	r18, 0xF7	; 247
    3dd4:	fc 01       	movw	r30, r24
    3dd6:	20 83       	st	Z, r18
    3dd8:	9e 01       	movw	r18, r28
    3dda:	20 59       	subi	r18, 0x90	; 144
    3ddc:	3f 4f       	sbci	r19, 0xFF	; 255
    3dde:	80 e0       	ldi	r24, 0x00	; 0
    3de0:	90 e0       	ldi	r25, 0x00	; 0
    3de2:	a0 e0       	ldi	r26, 0x00	; 0
    3de4:	b0 e4       	ldi	r27, 0x40	; 64
    3de6:	f9 01       	movw	r30, r18
    3de8:	80 83       	st	Z, r24
    3dea:	91 83       	std	Z+1, r25	; 0x01
    3dec:	a2 83       	std	Z+2, r26	; 0x02
    3dee:	b3 83       	std	Z+3, r27	; 0x03
	__builtin_avr_delay_cycles(__ticks_dc);

#else
	uint8_t __ticks;
	double __tmp2 ;
	__tmp = ((F_CPU) / 3e6) * __us;
    3df0:	8e 01       	movw	r16, r28
    3df2:	0c 58       	subi	r16, 0x8C	; 140
    3df4:	1f 4f       	sbci	r17, 0xFF	; 255
    3df6:	ce 01       	movw	r24, r28
    3df8:	80 59       	subi	r24, 0x90	; 144
    3dfa:	9f 4f       	sbci	r25, 0xFF	; 255
    3dfc:	2b ea       	ldi	r18, 0xAB	; 171
    3dfe:	3a ea       	ldi	r19, 0xAA	; 170
    3e00:	4a ea       	ldi	r20, 0xAA	; 170
    3e02:	50 e4       	ldi	r21, 0x40	; 64
    3e04:	fc 01       	movw	r30, r24
    3e06:	60 81       	ld	r22, Z
    3e08:	71 81       	ldd	r23, Z+1	; 0x01
    3e0a:	82 81       	ldd	r24, Z+2	; 0x02
    3e0c:	93 81       	ldd	r25, Z+3	; 0x03
    3e0e:	64 d4       	rcall	.+2248   	; 0x46d8 <__mulsf3>
    3e10:	dc 01       	movw	r26, r24
    3e12:	cb 01       	movw	r24, r22
    3e14:	f8 01       	movw	r30, r16
    3e16:	80 83       	st	Z, r24
    3e18:	91 83       	std	Z+1, r25	; 0x01
    3e1a:	a2 83       	std	Z+2, r26	; 0x02
    3e1c:	b3 83       	std	Z+3, r27	; 0x03
	__tmp2 = ((F_CPU) / 4e6) * __us;
    3e1e:	8e 01       	movw	r16, r28
    3e20:	08 58       	subi	r16, 0x88	; 136
    3e22:	1f 4f       	sbci	r17, 0xFF	; 255
    3e24:	ce 01       	movw	r24, r28
    3e26:	80 59       	subi	r24, 0x90	; 144
    3e28:	9f 4f       	sbci	r25, 0xFF	; 255
    3e2a:	20 e0       	ldi	r18, 0x00	; 0
    3e2c:	30 e0       	ldi	r19, 0x00	; 0
    3e2e:	40 e8       	ldi	r20, 0x80	; 128
    3e30:	50 e4       	ldi	r21, 0x40	; 64
    3e32:	fc 01       	movw	r30, r24
    3e34:	60 81       	ld	r22, Z
    3e36:	71 81       	ldd	r23, Z+1	; 0x01
    3e38:	82 81       	ldd	r24, Z+2	; 0x02
    3e3a:	93 81       	ldd	r25, Z+3	; 0x03
    3e3c:	4d d4       	rcall	.+2202   	; 0x46d8 <__mulsf3>
    3e3e:	dc 01       	movw	r26, r24
    3e40:	cb 01       	movw	r24, r22
    3e42:	f8 01       	movw	r30, r16
    3e44:	80 83       	st	Z, r24
    3e46:	91 83       	std	Z+1, r25	; 0x01
    3e48:	a2 83       	std	Z+2, r26	; 0x02
    3e4a:	b3 83       	std	Z+3, r27	; 0x03
	if (__tmp < 1.0)
    3e4c:	ce 01       	movw	r24, r28
    3e4e:	8c 58       	subi	r24, 0x8C	; 140
    3e50:	9f 4f       	sbci	r25, 0xFF	; 255
    3e52:	20 e0       	ldi	r18, 0x00	; 0
    3e54:	30 e0       	ldi	r19, 0x00	; 0
    3e56:	40 e8       	ldi	r20, 0x80	; 128
    3e58:	5f e3       	ldi	r21, 0x3F	; 63
    3e5a:	fc 01       	movw	r30, r24
    3e5c:	60 81       	ld	r22, Z
    3e5e:	71 81       	ldd	r23, Z+1	; 0x01
    3e60:	82 81       	ldd	r24, Z+2	; 0x02
    3e62:	93 81       	ldd	r25, Z+3	; 0x03
    3e64:	e6 d2       	rcall	.+1484   	; 0x4432 <__cmpsf2>
    3e66:	88 23       	and	r24, r24
    3e68:	3c f4       	brge	.+14     	; 0x3e78 <make_tensometer_measure+0x904>
		__ticks = 1;
    3e6a:	ce 01       	movw	r24, r28
    3e6c:	84 58       	subi	r24, 0x84	; 132
    3e6e:	9f 4f       	sbci	r25, 0xFF	; 255
    3e70:	21 e0       	ldi	r18, 0x01	; 1
    3e72:	fc 01       	movw	r30, r24
    3e74:	20 83       	st	Z, r18
    3e76:	25 c1       	rjmp	.+586    	; 0x40c2 <make_tensometer_measure+0xb4e>
	else if (__tmp2 > 65535)
    3e78:	ce 01       	movw	r24, r28
    3e7a:	88 58       	subi	r24, 0x88	; 136
    3e7c:	9f 4f       	sbci	r25, 0xFF	; 255
    3e7e:	20 e0       	ldi	r18, 0x00	; 0
    3e80:	3f ef       	ldi	r19, 0xFF	; 255
    3e82:	4f e7       	ldi	r20, 0x7F	; 127
    3e84:	57 e4       	ldi	r21, 0x47	; 71
    3e86:	fc 01       	movw	r30, r24
    3e88:	60 81       	ld	r22, Z
    3e8a:	71 81       	ldd	r23, Z+1	; 0x01
    3e8c:	82 81       	ldd	r24, Z+2	; 0x02
    3e8e:	93 81       	ldd	r25, Z+3	; 0x03
    3e90:	1f d4       	rcall	.+2110   	; 0x46d0 <__gesf2>
    3e92:	18 16       	cp	r1, r24
    3e94:	0c f0       	brlt	.+2      	; 0x3e98 <make_tensometer_measure+0x924>
    3e96:	ca c0       	rjmp	.+404    	; 0x402c <make_tensometer_measure+0xab8>
	{
		_delay_ms(__us / 1000.0);
    3e98:	ce 01       	movw	r24, r28
    3e9a:	80 59       	subi	r24, 0x90	; 144
    3e9c:	9f 4f       	sbci	r25, 0xFF	; 255
    3e9e:	20 e0       	ldi	r18, 0x00	; 0
    3ea0:	30 e0       	ldi	r19, 0x00	; 0
    3ea2:	4a e7       	ldi	r20, 0x7A	; 122
    3ea4:	54 e4       	ldi	r21, 0x44	; 68
    3ea6:	fc 01       	movw	r30, r24
    3ea8:	60 81       	ld	r22, Z
    3eaa:	71 81       	ldd	r23, Z+1	; 0x01
    3eac:	82 81       	ldd	r24, Z+2	; 0x02
    3eae:	93 81       	ldd	r25, Z+3	; 0x03
    3eb0:	c4 d2       	rcall	.+1416   	; 0x443a <__divsf3>
    3eb2:	dc 01       	movw	r26, r24
    3eb4:	cb 01       	movw	r24, r22
    3eb6:	9e 01       	movw	r18, r28
    3eb8:	23 58       	subi	r18, 0x83	; 131
    3eba:	3f 4f       	sbci	r19, 0xFF	; 255
    3ebc:	f9 01       	movw	r30, r18
    3ebe:	80 83       	st	Z, r24
    3ec0:	91 83       	std	Z+1, r25	; 0x01
    3ec2:	a2 83       	std	Z+2, r26	; 0x02
    3ec4:	b3 83       	std	Z+3, r27	; 0x03

	__builtin_avr_delay_cycles(__ticks_dc);

#else
	uint16_t __ticks;
	__tmp = ((F_CPU) / 4e3) * __ms;
    3ec6:	8e 01       	movw	r16, r28
    3ec8:	0f 57       	subi	r16, 0x7F	; 127
    3eca:	1f 4f       	sbci	r17, 0xFF	; 255
    3ecc:	ce 01       	movw	r24, r28
    3ece:	83 58       	subi	r24, 0x83	; 131
    3ed0:	9f 4f       	sbci	r25, 0xFF	; 255
    3ed2:	20 e0       	ldi	r18, 0x00	; 0
    3ed4:	30 e0       	ldi	r19, 0x00	; 0
    3ed6:	4a e7       	ldi	r20, 0x7A	; 122
    3ed8:	55 e4       	ldi	r21, 0x45	; 69
    3eda:	fc 01       	movw	r30, r24
    3edc:	60 81       	ld	r22, Z
    3ede:	71 81       	ldd	r23, Z+1	; 0x01
    3ee0:	82 81       	ldd	r24, Z+2	; 0x02
    3ee2:	93 81       	ldd	r25, Z+3	; 0x03
    3ee4:	f9 d3       	rcall	.+2034   	; 0x46d8 <__mulsf3>
    3ee6:	dc 01       	movw	r26, r24
    3ee8:	cb 01       	movw	r24, r22
    3eea:	f8 01       	movw	r30, r16
    3eec:	80 83       	st	Z, r24
    3eee:	91 83       	std	Z+1, r25	; 0x01
    3ef0:	a2 83       	std	Z+2, r26	; 0x02
    3ef2:	b3 83       	std	Z+3, r27	; 0x03
	if (__tmp < 1.0)
    3ef4:	ce 01       	movw	r24, r28
    3ef6:	8f 57       	subi	r24, 0x7F	; 127
    3ef8:	9f 4f       	sbci	r25, 0xFF	; 255
    3efa:	20 e0       	ldi	r18, 0x00	; 0
    3efc:	30 e0       	ldi	r19, 0x00	; 0
    3efe:	40 e8       	ldi	r20, 0x80	; 128
    3f00:	5f e3       	ldi	r21, 0x3F	; 63
    3f02:	fc 01       	movw	r30, r24
    3f04:	60 81       	ld	r22, Z
    3f06:	71 81       	ldd	r23, Z+1	; 0x01
    3f08:	82 81       	ldd	r24, Z+2	; 0x02
    3f0a:	93 81       	ldd	r25, Z+3	; 0x03
    3f0c:	92 d2       	rcall	.+1316   	; 0x4432 <__cmpsf2>
    3f0e:	88 23       	and	r24, r24
    3f10:	4c f4       	brge	.+18     	; 0x3f24 <make_tensometer_measure+0x9b0>
		__ticks = 1;
    3f12:	ce 01       	movw	r24, r28
    3f14:	8b 57       	subi	r24, 0x7B	; 123
    3f16:	9f 4f       	sbci	r25, 0xFF	; 255
    3f18:	21 e0       	ldi	r18, 0x01	; 1
    3f1a:	30 e0       	ldi	r19, 0x00	; 0
    3f1c:	fc 01       	movw	r30, r24
    3f1e:	31 83       	std	Z+1, r19	; 0x01
    3f20:	20 83       	st	Z, r18
    3f22:	69 c0       	rjmp	.+210    	; 0x3ff6 <make_tensometer_measure+0xa82>
	else if (__tmp > 65535)
    3f24:	ce 01       	movw	r24, r28
    3f26:	8f 57       	subi	r24, 0x7F	; 127
    3f28:	9f 4f       	sbci	r25, 0xFF	; 255
    3f2a:	20 e0       	ldi	r18, 0x00	; 0
    3f2c:	3f ef       	ldi	r19, 0xFF	; 255
    3f2e:	4f e7       	ldi	r20, 0x7F	; 127
    3f30:	57 e4       	ldi	r21, 0x47	; 71
    3f32:	fc 01       	movw	r30, r24
    3f34:	60 81       	ld	r22, Z
    3f36:	71 81       	ldd	r23, Z+1	; 0x01
    3f38:	82 81       	ldd	r24, Z+2	; 0x02
    3f3a:	93 81       	ldd	r25, Z+3	; 0x03
    3f3c:	c9 d3       	rcall	.+1938   	; 0x46d0 <__gesf2>
    3f3e:	18 16       	cp	r1, r24
    3f40:	0c f0       	brlt	.+2      	; 0x3f44 <make_tensometer_measure+0x9d0>
    3f42:	48 c0       	rjmp	.+144    	; 0x3fd4 <make_tensometer_measure+0xa60>
	{
		//	__ticks = requested delay in 1/10 ms
		__ticks = (uint16_t) (__ms * 10.0);
    3f44:	ce 01       	movw	r24, r28
    3f46:	83 58       	subi	r24, 0x83	; 131
    3f48:	9f 4f       	sbci	r25, 0xFF	; 255
    3f4a:	20 e0       	ldi	r18, 0x00	; 0
    3f4c:	30 e0       	ldi	r19, 0x00	; 0
    3f4e:	40 e2       	ldi	r20, 0x20	; 32
    3f50:	51 e4       	ldi	r21, 0x41	; 65
    3f52:	fc 01       	movw	r30, r24
    3f54:	60 81       	ld	r22, Z
    3f56:	71 81       	ldd	r23, Z+1	; 0x01
    3f58:	82 81       	ldd	r24, Z+2	; 0x02
    3f5a:	93 81       	ldd	r25, Z+3	; 0x03
    3f5c:	bd d3       	rcall	.+1914   	; 0x46d8 <__mulsf3>
    3f5e:	dc 01       	movw	r26, r24
    3f60:	cb 01       	movw	r24, r22
    3f62:	8e 01       	movw	r16, r28
    3f64:	0b 57       	subi	r16, 0x7B	; 123
    3f66:	1f 4f       	sbci	r17, 0xFF	; 255
    3f68:	bc 01       	movw	r22, r24
    3f6a:	cd 01       	movw	r24, r26
    3f6c:	d3 d2       	rcall	.+1446   	; 0x4514 <__fixunssfsi>
    3f6e:	dc 01       	movw	r26, r24
    3f70:	cb 01       	movw	r24, r22
    3f72:	f8 01       	movw	r30, r16
    3f74:	91 83       	std	Z+1, r25	; 0x01
    3f76:	80 83       	st	Z, r24
    3f78:	24 c0       	rjmp	.+72     	; 0x3fc2 <make_tensometer_measure+0xa4e>
    3f7a:	ce 01       	movw	r24, r28
    3f7c:	89 57       	subi	r24, 0x79	; 121
    3f7e:	9f 4f       	sbci	r25, 0xFF	; 255
    3f80:	20 e9       	ldi	r18, 0x90	; 144
    3f82:	31 e0       	ldi	r19, 0x01	; 1
    3f84:	fc 01       	movw	r30, r24
    3f86:	31 83       	std	Z+1, r19	; 0x01
    3f88:	20 83       	st	Z, r18
    milliseconds can be achieved.
 */
void
_delay_loop_2(uint16_t __count)
{
	__asm__ volatile (
    3f8a:	ce 01       	movw	r24, r28
    3f8c:	89 57       	subi	r24, 0x79	; 121
    3f8e:	9f 4f       	sbci	r25, 0xFF	; 255
    3f90:	fc 01       	movw	r30, r24
    3f92:	80 81       	ld	r24, Z
    3f94:	91 81       	ldd	r25, Z+1	; 0x01
    3f96:	01 97       	sbiw	r24, 0x01	; 1
    3f98:	f1 f7       	brne	.-4      	; 0x3f96 <make_tensometer_measure+0xa22>
    3f9a:	9e 01       	movw	r18, r28
    3f9c:	29 57       	subi	r18, 0x79	; 121
    3f9e:	3f 4f       	sbci	r19, 0xFF	; 255
    3fa0:	f9 01       	movw	r30, r18
    3fa2:	91 83       	std	Z+1, r25	; 0x01
    3fa4:	80 83       	st	Z, r24
		while(__ticks)
		{
			// wait 1/10 ms
			_delay_loop_2(((F_CPU) / 4e3) / 10);
			__ticks --;
    3fa6:	ce 01       	movw	r24, r28
    3fa8:	8b 57       	subi	r24, 0x7B	; 123
    3faa:	9f 4f       	sbci	r25, 0xFF	; 255
    3fac:	9e 01       	movw	r18, r28
    3fae:	2b 57       	subi	r18, 0x7B	; 123
    3fb0:	3f 4f       	sbci	r19, 0xFF	; 255
    3fb2:	f9 01       	movw	r30, r18
    3fb4:	20 81       	ld	r18, Z
    3fb6:	31 81       	ldd	r19, Z+1	; 0x01
    3fb8:	21 50       	subi	r18, 0x01	; 1
    3fba:	31 09       	sbc	r19, r1
    3fbc:	fc 01       	movw	r30, r24
    3fbe:	31 83       	std	Z+1, r19	; 0x01
    3fc0:	20 83       	st	Z, r18
		__ticks = 1;
	else if (__tmp > 65535)
	{
		//	__ticks = requested delay in 1/10 ms
		__ticks = (uint16_t) (__ms * 10.0);
		while(__ticks)
    3fc2:	ce 01       	movw	r24, r28
    3fc4:	8b 57       	subi	r24, 0x7B	; 123
    3fc6:	9f 4f       	sbci	r25, 0xFF	; 255
    3fc8:	fc 01       	movw	r30, r24
    3fca:	80 81       	ld	r24, Z
    3fcc:	91 81       	ldd	r25, Z+1	; 0x01
    3fce:	89 2b       	or	r24, r25
    3fd0:	a1 f6       	brne	.-88     	; 0x3f7a <make_tensometer_measure+0xa06>
    3fd2:	77 c0       	rjmp	.+238    	; 0x40c2 <make_tensometer_measure+0xb4e>
			__ticks --;
		}
		return;
	}
	else
		__ticks = (uint16_t)__tmp;
    3fd4:	8e 01       	movw	r16, r28
    3fd6:	0b 57       	subi	r16, 0x7B	; 123
    3fd8:	1f 4f       	sbci	r17, 0xFF	; 255
    3fda:	ce 01       	movw	r24, r28
    3fdc:	8f 57       	subi	r24, 0x7F	; 127
    3fde:	9f 4f       	sbci	r25, 0xFF	; 255
    3fe0:	fc 01       	movw	r30, r24
    3fe2:	60 81       	ld	r22, Z
    3fe4:	71 81       	ldd	r23, Z+1	; 0x01
    3fe6:	82 81       	ldd	r24, Z+2	; 0x02
    3fe8:	93 81       	ldd	r25, Z+3	; 0x03
    3fea:	94 d2       	rcall	.+1320   	; 0x4514 <__fixunssfsi>
    3fec:	dc 01       	movw	r26, r24
    3fee:	cb 01       	movw	r24, r22
    3ff0:	f8 01       	movw	r30, r16
    3ff2:	91 83       	std	Z+1, r25	; 0x01
    3ff4:	80 83       	st	Z, r24
    3ff6:	ce 01       	movw	r24, r28
    3ff8:	87 57       	subi	r24, 0x77	; 119
    3ffa:	9f 4f       	sbci	r25, 0xFF	; 255
    3ffc:	9e 01       	movw	r18, r28
    3ffe:	2b 57       	subi	r18, 0x7B	; 123
    4000:	3f 4f       	sbci	r19, 0xFF	; 255
    4002:	f9 01       	movw	r30, r18
    4004:	20 81       	ld	r18, Z
    4006:	31 81       	ldd	r19, Z+1	; 0x01
    4008:	fc 01       	movw	r30, r24
    400a:	31 83       	std	Z+1, r19	; 0x01
    400c:	20 83       	st	Z, r18
    400e:	ce 01       	movw	r24, r28
    4010:	87 57       	subi	r24, 0x77	; 119
    4012:	9f 4f       	sbci	r25, 0xFF	; 255
    4014:	fc 01       	movw	r30, r24
    4016:	80 81       	ld	r24, Z
    4018:	91 81       	ldd	r25, Z+1	; 0x01
    401a:	01 97       	sbiw	r24, 0x01	; 1
    401c:	f1 f7       	brne	.-4      	; 0x401a <make_tensometer_measure+0xaa6>
    401e:	9e 01       	movw	r18, r28
    4020:	27 57       	subi	r18, 0x77	; 119
    4022:	3f 4f       	sbci	r19, 0xFF	; 255
    4024:	f9 01       	movw	r30, r18
    4026:	91 83       	std	Z+1, r25	; 0x01
    4028:	80 83       	st	Z, r24
    402a:	4b c0       	rjmp	.+150    	; 0x40c2 <make_tensometer_measure+0xb4e>
		__ticks = 1;
	else if (__tmp2 > 65535)
	{
		_delay_ms(__us / 1000.0);
	}
	else if (__tmp > 255)
    402c:	ce 01       	movw	r24, r28
    402e:	8c 58       	subi	r24, 0x8C	; 140
    4030:	9f 4f       	sbci	r25, 0xFF	; 255
    4032:	20 e0       	ldi	r18, 0x00	; 0
    4034:	30 e0       	ldi	r19, 0x00	; 0
    4036:	4f e7       	ldi	r20, 0x7F	; 127
    4038:	53 e4       	ldi	r21, 0x43	; 67
    403a:	fc 01       	movw	r30, r24
    403c:	60 81       	ld	r22, Z
    403e:	71 81       	ldd	r23, Z+1	; 0x01
    4040:	82 81       	ldd	r24, Z+2	; 0x02
    4042:	93 81       	ldd	r25, Z+3	; 0x03
    4044:	45 d3       	rcall	.+1674   	; 0x46d0 <__gesf2>
    4046:	18 16       	cp	r1, r24
    4048:	64 f5       	brge	.+88     	; 0x40a2 <make_tensometer_measure+0xb2e>
	{
		uint16_t __ticks=(uint16_t)__tmp2;
    404a:	8e 01       	movw	r16, r28
    404c:	05 57       	subi	r16, 0x75	; 117
    404e:	1f 4f       	sbci	r17, 0xFF	; 255
    4050:	ce 01       	movw	r24, r28
    4052:	88 58       	subi	r24, 0x88	; 136
    4054:	9f 4f       	sbci	r25, 0xFF	; 255
    4056:	fc 01       	movw	r30, r24
    4058:	60 81       	ld	r22, Z
    405a:	71 81       	ldd	r23, Z+1	; 0x01
    405c:	82 81       	ldd	r24, Z+2	; 0x02
    405e:	93 81       	ldd	r25, Z+3	; 0x03
    4060:	59 d2       	rcall	.+1202   	; 0x4514 <__fixunssfsi>
    4062:	dc 01       	movw	r26, r24
    4064:	cb 01       	movw	r24, r22
    4066:	f8 01       	movw	r30, r16
    4068:	91 83       	std	Z+1, r25	; 0x01
    406a:	80 83       	st	Z, r24
    406c:	ce 01       	movw	r24, r28
    406e:	83 57       	subi	r24, 0x73	; 115
    4070:	9f 4f       	sbci	r25, 0xFF	; 255
    4072:	9e 01       	movw	r18, r28
    4074:	25 57       	subi	r18, 0x75	; 117
    4076:	3f 4f       	sbci	r19, 0xFF	; 255
    4078:	f9 01       	movw	r30, r18
    407a:	20 81       	ld	r18, Z
    407c:	31 81       	ldd	r19, Z+1	; 0x01
    407e:	fc 01       	movw	r30, r24
    4080:	31 83       	std	Z+1, r19	; 0x01
    4082:	20 83       	st	Z, r18
    4084:	ce 01       	movw	r24, r28
    4086:	83 57       	subi	r24, 0x73	; 115
    4088:	9f 4f       	sbci	r25, 0xFF	; 255
    408a:	fc 01       	movw	r30, r24
    408c:	80 81       	ld	r24, Z
    408e:	91 81       	ldd	r25, Z+1	; 0x01
    4090:	01 97       	sbiw	r24, 0x01	; 1
    4092:	f1 f7       	brne	.-4      	; 0x4090 <make_tensometer_measure+0xb1c>
    4094:	9e 01       	movw	r18, r28
    4096:	23 57       	subi	r18, 0x73	; 115
    4098:	3f 4f       	sbci	r19, 0xFF	; 255
    409a:	f9 01       	movw	r30, r18
    409c:	91 83       	std	Z+1, r25	; 0x01
    409e:	80 83       	st	Z, r24
    40a0:	27 c0       	rjmp	.+78     	; 0x40f0 <make_tensometer_measure+0xb7c>
		_delay_loop_2(__ticks);
		return;
	}
	else
		__ticks = (uint8_t)__tmp;
    40a2:	8e 01       	movw	r16, r28
    40a4:	04 58       	subi	r16, 0x84	; 132
    40a6:	1f 4f       	sbci	r17, 0xFF	; 255
    40a8:	ce 01       	movw	r24, r28
    40aa:	8c 58       	subi	r24, 0x8C	; 140
    40ac:	9f 4f       	sbci	r25, 0xFF	; 255
    40ae:	fc 01       	movw	r30, r24
    40b0:	60 81       	ld	r22, Z
    40b2:	71 81       	ldd	r23, Z+1	; 0x01
    40b4:	82 81       	ldd	r24, Z+2	; 0x02
    40b6:	93 81       	ldd	r25, Z+3	; 0x03
    40b8:	2d d2       	rcall	.+1114   	; 0x4514 <__fixunssfsi>
    40ba:	dc 01       	movw	r26, r24
    40bc:	cb 01       	movw	r24, r22
    40be:	f8 01       	movw	r30, r16
    40c0:	80 83       	st	Z, r24
    40c2:	ce 01       	movw	r24, r28
    40c4:	81 57       	subi	r24, 0x71	; 113
    40c6:	9f 4f       	sbci	r25, 0xFF	; 255
    40c8:	9e 01       	movw	r18, r28
    40ca:	24 58       	subi	r18, 0x84	; 132
    40cc:	3f 4f       	sbci	r19, 0xFF	; 255
    40ce:	f9 01       	movw	r30, r18
    40d0:	20 81       	ld	r18, Z
    40d2:	fc 01       	movw	r30, r24
    40d4:	20 83       	st	Z, r18
    can be achieved.
*/
void
_delay_loop_1(uint8_t __count)
{
	__asm__ volatile (
    40d6:	ce 01       	movw	r24, r28
    40d8:	81 57       	subi	r24, 0x71	; 113
    40da:	9f 4f       	sbci	r25, 0xFF	; 255
    40dc:	fc 01       	movw	r30, r24
    40de:	80 81       	ld	r24, Z
    40e0:	28 2f       	mov	r18, r24
    40e2:	2a 95       	dec	r18
    40e4:	f1 f7       	brne	.-4      	; 0x40e2 <make_tensometer_measure+0xb6e>
    40e6:	ce 01       	movw	r24, r28
    40e8:	81 57       	subi	r24, 0x71	; 113
    40ea:	9f 4f       	sbci	r25, 0xFF	; 255
    40ec:	fc 01       	movw	r30, r24
    40ee:	20 83       	st	Z, r18
	_delay_us(2);
		
	tensometer[input_mux].tempPreCalculateMeasure = data>>8;  //>>8
    40f0:	80 91 5d 08 	lds	r24, 0x085D	; 0x80085d <input_mux.1878>
    40f4:	48 2f       	mov	r20, r24
    40f6:	50 e0       	ldi	r21, 0x00	; 0
    40f8:	89 81       	ldd	r24, Y+1	; 0x01
    40fa:	9a 81       	ldd	r25, Y+2	; 0x02
    40fc:	ab 81       	ldd	r26, Y+3	; 0x03
    40fe:	bc 81       	ldd	r27, Y+4	; 0x04
    4100:	89 2f       	mov	r24, r25
    4102:	9a 2f       	mov	r25, r26
    4104:	ab 2f       	mov	r26, r27
    4106:	bb 27       	eor	r27, r27
    4108:	a7 fd       	sbrc	r26, 7
    410a:	ba 95       	dec	r27
    410c:	67 e1       	ldi	r22, 0x17	; 23
    410e:	64 9f       	mul	r22, r20
    4110:	90 01       	movw	r18, r0
    4112:	65 9f       	mul	r22, r21
    4114:	30 0d       	add	r19, r0
    4116:	11 24       	eor	r1, r1
    4118:	25 5f       	subi	r18, 0xF5	; 245
    411a:	33 4f       	sbci	r19, 0xF3	; 243
    411c:	f9 01       	movw	r30, r18
    411e:	80 83       	st	Z, r24
    4120:	91 83       	std	Z+1, r25	; 0x01
    4122:	a2 83       	std	Z+2, r26	; 0x02
    4124:	b3 83       	std	Z+3, r27	; 0x03
	if (tensometer[input_mux].tempPreCalculateMeasure & 0x8000)
    4126:	80 91 5d 08 	lds	r24, 0x085D	; 0x80085d <input_mux.1878>
    412a:	28 2f       	mov	r18, r24
    412c:	30 e0       	ldi	r19, 0x00	; 0
    412e:	47 e1       	ldi	r20, 0x17	; 23
    4130:	42 9f       	mul	r20, r18
    4132:	c0 01       	movw	r24, r0
    4134:	43 9f       	mul	r20, r19
    4136:	90 0d       	add	r25, r0
    4138:	11 24       	eor	r1, r1
    413a:	85 5f       	subi	r24, 0xF5	; 245
    413c:	93 4f       	sbci	r25, 0xF3	; 243
    413e:	fc 01       	movw	r30, r24
    4140:	80 81       	ld	r24, Z
    4142:	91 81       	ldd	r25, Z+1	; 0x01
    4144:	a2 81       	ldd	r26, Z+2	; 0x02
    4146:	b3 81       	ldd	r27, Z+3	; 0x03
    4148:	88 27       	eor	r24, r24
    414a:	90 78       	andi	r25, 0x80	; 128
    414c:	aa 27       	eor	r26, r26
    414e:	bb 27       	eor	r27, r27
    4150:	89 2b       	or	r24, r25
    4152:	8a 2b       	or	r24, r26
    4154:	8b 2b       	or	r24, r27
    4156:	21 f1       	breq	.+72     	; 0x41a0 <make_tensometer_measure+0xc2c>
		tensometer[input_mux].tempPreCalculateMeasure |= 0xffff0000;
    4158:	80 91 5d 08 	lds	r24, 0x085D	; 0x80085d <input_mux.1878>
    415c:	48 2f       	mov	r20, r24
    415e:	50 e0       	ldi	r21, 0x00	; 0
    4160:	80 91 5d 08 	lds	r24, 0x085D	; 0x80085d <input_mux.1878>
    4164:	28 2f       	mov	r18, r24
    4166:	30 e0       	ldi	r19, 0x00	; 0
    4168:	67 e1       	ldi	r22, 0x17	; 23
    416a:	62 9f       	mul	r22, r18
    416c:	c0 01       	movw	r24, r0
    416e:	63 9f       	mul	r22, r19
    4170:	90 0d       	add	r25, r0
    4172:	11 24       	eor	r1, r1
    4174:	85 5f       	subi	r24, 0xF5	; 245
    4176:	93 4f       	sbci	r25, 0xF3	; 243
    4178:	fc 01       	movw	r30, r24
    417a:	80 81       	ld	r24, Z
    417c:	91 81       	ldd	r25, Z+1	; 0x01
    417e:	a2 81       	ldd	r26, Z+2	; 0x02
    4180:	b3 81       	ldd	r27, Z+3	; 0x03
    4182:	af 6f       	ori	r26, 0xFF	; 255
    4184:	bf 6f       	ori	r27, 0xFF	; 255
    4186:	67 e1       	ldi	r22, 0x17	; 23
    4188:	64 9f       	mul	r22, r20
    418a:	90 01       	movw	r18, r0
    418c:	65 9f       	mul	r22, r21
    418e:	30 0d       	add	r19, r0
    4190:	11 24       	eor	r1, r1
    4192:	25 5f       	subi	r18, 0xF5	; 245
    4194:	33 4f       	sbci	r19, 0xF3	; 243
    4196:	f9 01       	movw	r30, r18
    4198:	80 83       	st	Z, r24
    419a:	91 83       	std	Z+1, r25	; 0x01
    419c:	a2 83       	std	Z+2, r26	; 0x02
    419e:	b3 83       	std	Z+3, r27	; 0x03
	
	tensometer[input_mux].RAW_Value = tensometer[input_mux].tempPreCalculateMeasure;
    41a0:	80 91 5d 08 	lds	r24, 0x085D	; 0x80085d <input_mux.1878>
    41a4:	28 2f       	mov	r18, r24
    41a6:	30 e0       	ldi	r19, 0x00	; 0
    41a8:	80 91 5d 08 	lds	r24, 0x085D	; 0x80085d <input_mux.1878>
    41ac:	48 2f       	mov	r20, r24
    41ae:	50 e0       	ldi	r21, 0x00	; 0
    41b0:	67 e1       	ldi	r22, 0x17	; 23
    41b2:	64 9f       	mul	r22, r20
    41b4:	c0 01       	movw	r24, r0
    41b6:	65 9f       	mul	r22, r21
    41b8:	90 0d       	add	r25, r0
    41ba:	11 24       	eor	r1, r1
    41bc:	85 5f       	subi	r24, 0xF5	; 245
    41be:	93 4f       	sbci	r25, 0xF3	; 243
    41c0:	fc 01       	movw	r30, r24
    41c2:	80 81       	ld	r24, Z
    41c4:	91 81       	ldd	r25, Z+1	; 0x01
    41c6:	a2 81       	ldd	r26, Z+2	; 0x02
    41c8:	b3 81       	ldd	r27, Z+3	; 0x03
    41ca:	ac 01       	movw	r20, r24
    41cc:	67 e1       	ldi	r22, 0x17	; 23
    41ce:	62 9f       	mul	r22, r18
    41d0:	c0 01       	movw	r24, r0
    41d2:	63 9f       	mul	r22, r19
    41d4:	90 0d       	add	r25, r0
    41d6:	11 24       	eor	r1, r1
    41d8:	80 50       	subi	r24, 0x00	; 0
    41da:	94 4f       	sbci	r25, 0xF4	; 244
    41dc:	fc 01       	movw	r30, r24
    41de:	51 83       	std	Z+1, r21	; 0x01
    41e0:	40 83       	st	Z, r20
	tensometer[input_mux].numberConversion=0;
    41e2:	80 91 5d 08 	lds	r24, 0x085D	; 0x80085d <input_mux.1878>
    41e6:	28 2f       	mov	r18, r24
    41e8:	30 e0       	ldi	r19, 0x00	; 0
    41ea:	47 e1       	ldi	r20, 0x17	; 23
    41ec:	42 9f       	mul	r20, r18
    41ee:	c0 01       	movw	r24, r0
    41f0:	43 9f       	mul	r20, r19
    41f2:	90 0d       	add	r25, r0
    41f4:	11 24       	eor	r1, r1
    41f6:	86 5f       	subi	r24, 0xF6	; 246
    41f8:	93 4f       	sbci	r25, 0xF3	; 243
    41fa:	fc 01       	movw	r30, r24
    41fc:	10 82       	st	Z, r1
	tensometer[input_mux].tempPreCalculateMeasure=0;
    41fe:	80 91 5d 08 	lds	r24, 0x085D	; 0x80085d <input_mux.1878>
    4202:	28 2f       	mov	r18, r24
    4204:	30 e0       	ldi	r19, 0x00	; 0
    4206:	47 e1       	ldi	r20, 0x17	; 23
    4208:	42 9f       	mul	r20, r18
    420a:	c0 01       	movw	r24, r0
    420c:	43 9f       	mul	r20, r19
    420e:	90 0d       	add	r25, r0
    4210:	11 24       	eor	r1, r1
    4212:	85 5f       	subi	r24, 0xF5	; 245
    4214:	93 4f       	sbci	r25, 0xF3	; 243
    4216:	fc 01       	movw	r30, r24
    4218:	10 82       	st	Z, r1
    421a:	11 82       	std	Z+1, r1	; 0x01
    421c:	12 82       	std	Z+2, r1	; 0x02
    421e:	13 82       	std	Z+3, r1	; 0x03
	
	int32_t weight = tensometer[input_mux].constantCalibrationValue;
    4220:	80 91 5d 08 	lds	r24, 0x085D	; 0x80085d <input_mux.1878>
    4224:	28 2f       	mov	r18, r24
    4226:	30 e0       	ldi	r19, 0x00	; 0
    4228:	47 e1       	ldi	r20, 0x17	; 23
    422a:	42 9f       	mul	r20, r18
    422c:	c0 01       	movw	r24, r0
    422e:	43 9f       	mul	r20, r19
    4230:	90 0d       	add	r25, r0
    4232:	11 24       	eor	r1, r1
    4234:	81 5f       	subi	r24, 0xF1	; 241
    4236:	93 4f       	sbci	r25, 0xF3	; 243
    4238:	fc 01       	movw	r30, r24
    423a:	80 81       	ld	r24, Z
    423c:	91 81       	ldd	r25, Z+1	; 0x01
    423e:	cc 01       	movw	r24, r24
    4240:	a0 e0       	ldi	r26, 0x00	; 0
    4242:	b0 e0       	ldi	r27, 0x00	; 0
    4244:	8e 83       	std	Y+6, r24	; 0x06
    4246:	9f 83       	std	Y+7, r25	; 0x07
    4248:	a8 87       	std	Y+8, r26	; 0x08
    424a:	b9 87       	std	Y+9, r27	; 0x09
	int32_t RAW_Value = tensometer[input_mux].RAW_Value;
    424c:	80 91 5d 08 	lds	r24, 0x085D	; 0x80085d <input_mux.1878>
    4250:	28 2f       	mov	r18, r24
    4252:	30 e0       	ldi	r19, 0x00	; 0
    4254:	47 e1       	ldi	r20, 0x17	; 23
    4256:	42 9f       	mul	r20, r18
    4258:	c0 01       	movw	r24, r0
    425a:	43 9f       	mul	r20, r19
    425c:	90 0d       	add	r25, r0
    425e:	11 24       	eor	r1, r1
    4260:	80 50       	subi	r24, 0x00	; 0
    4262:	94 4f       	sbci	r25, 0xF4	; 244
    4264:	fc 01       	movw	r30, r24
    4266:	80 81       	ld	r24, Z
    4268:	91 81       	ldd	r25, Z+1	; 0x01
    426a:	cc 01       	movw	r24, r24
    426c:	a0 e0       	ldi	r26, 0x00	; 0
    426e:	b0 e0       	ldi	r27, 0x00	; 0
    4270:	8a 87       	std	Y+10, r24	; 0x0a
    4272:	9b 87       	std	Y+11, r25	; 0x0b
    4274:	ac 87       	std	Y+12, r26	; 0x0c
    4276:	bd 87       	std	Y+13, r27	; 0x0d
	weight *= RAW_Value;
    4278:	2e 81       	ldd	r18, Y+6	; 0x06
    427a:	3f 81       	ldd	r19, Y+7	; 0x07
    427c:	48 85       	ldd	r20, Y+8	; 0x08
    427e:	59 85       	ldd	r21, Y+9	; 0x09
    4280:	8a 85       	ldd	r24, Y+10	; 0x0a
    4282:	9b 85       	ldd	r25, Y+11	; 0x0b
    4284:	ac 85       	ldd	r26, Y+12	; 0x0c
    4286:	bd 85       	ldd	r27, Y+13	; 0x0d
    4288:	bc 01       	movw	r22, r24
    428a:	cd 01       	movw	r24, r26
    428c:	88 d2       	rcall	.+1296   	; 0x479e <__mulsi3>
    428e:	dc 01       	movw	r26, r24
    4290:	cb 01       	movw	r24, r22
    4292:	8e 83       	std	Y+6, r24	; 0x06
    4294:	9f 83       	std	Y+7, r25	; 0x07
    4296:	a8 87       	std	Y+8, r26	; 0x08
    4298:	b9 87       	std	Y+9, r27	; 0x09
	weight += tensometer[input_mux].zeroScaleMass;
    429a:	80 91 5d 08 	lds	r24, 0x085D	; 0x80085d <input_mux.1878>
    429e:	28 2f       	mov	r18, r24
    42a0:	30 e0       	ldi	r19, 0x00	; 0
    42a2:	47 e1       	ldi	r20, 0x17	; 23
    42a4:	42 9f       	mul	r20, r18
    42a6:	c0 01       	movw	r24, r0
    42a8:	43 9f       	mul	r20, r19
    42aa:	90 0d       	add	r25, r0
    42ac:	11 24       	eor	r1, r1
    42ae:	8f 5e       	subi	r24, 0xEF	; 239
    42b0:	93 4f       	sbci	r25, 0xF3	; 243
    42b2:	fc 01       	movw	r30, r24
    42b4:	80 81       	ld	r24, Z
    42b6:	91 81       	ldd	r25, Z+1	; 0x01
    42b8:	a2 81       	ldd	r26, Z+2	; 0x02
    42ba:	b3 81       	ldd	r27, Z+3	; 0x03
    42bc:	2e 81       	ldd	r18, Y+6	; 0x06
    42be:	3f 81       	ldd	r19, Y+7	; 0x07
    42c0:	48 85       	ldd	r20, Y+8	; 0x08
    42c2:	59 85       	ldd	r21, Y+9	; 0x09
    42c4:	82 0f       	add	r24, r18
    42c6:	93 1f       	adc	r25, r19
    42c8:	a4 1f       	adc	r26, r20
    42ca:	b5 1f       	adc	r27, r21
    42cc:	8e 83       	std	Y+6, r24	; 0x06
    42ce:	9f 83       	std	Y+7, r25	; 0x07
    42d0:	a8 87       	std	Y+8, r26	; 0x08
    42d2:	b9 87       	std	Y+9, r27	; 0x09
	weight = weight/1000;
    42d4:	8e 81       	ldd	r24, Y+6	; 0x06
    42d6:	9f 81       	ldd	r25, Y+7	; 0x07
    42d8:	a8 85       	ldd	r26, Y+8	; 0x08
    42da:	b9 85       	ldd	r27, Y+9	; 0x09
    42dc:	28 ee       	ldi	r18, 0xE8	; 232
    42de:	33 e0       	ldi	r19, 0x03	; 3
    42e0:	40 e0       	ldi	r20, 0x00	; 0
    42e2:	50 e0       	ldi	r21, 0x00	; 0
    42e4:	bc 01       	movw	r22, r24
    42e6:	cd 01       	movw	r24, r26
    42e8:	8b d2       	rcall	.+1302   	; 0x4800 <__divmodsi4>
    42ea:	da 01       	movw	r26, r20
    42ec:	c9 01       	movw	r24, r18
    42ee:	8e 83       	std	Y+6, r24	; 0x06
    42f0:	9f 83       	std	Y+7, r25	; 0x07
    42f2:	a8 87       	std	Y+8, r26	; 0x08
    42f4:	b9 87       	std	Y+9, r27	; 0x09
	tensometer[input_mux].weight = (uint16_t)weight;
    42f6:	80 91 5d 08 	lds	r24, 0x085D	; 0x80085d <input_mux.1878>
    42fa:	48 2f       	mov	r20, r24
    42fc:	50 e0       	ldi	r21, 0x00	; 0
    42fe:	2e 81       	ldd	r18, Y+6	; 0x06
    4300:	3f 81       	ldd	r19, Y+7	; 0x07
    4302:	67 e1       	ldi	r22, 0x17	; 23
    4304:	64 9f       	mul	r22, r20
    4306:	c0 01       	movw	r24, r0
    4308:	65 9f       	mul	r22, r21
    430a:	90 0d       	add	r25, r0
    430c:	11 24       	eor	r1, r1
    430e:	8e 5f       	subi	r24, 0xFE	; 254
    4310:	93 4f       	sbci	r25, 0xF3	; 243
    4312:	fc 01       	movw	r30, r24
    4314:	31 83       	std	Z+1, r19	; 0x01
    4316:	20 83       	st	Z, r18
	tensometer[input_mux].filamentWeight = tensometer[input_mux].weight - tensometer[input_mux].rollWeight;	
    4318:	80 91 5d 08 	lds	r24, 0x085D	; 0x80085d <input_mux.1878>
    431c:	48 2f       	mov	r20, r24
    431e:	50 e0       	ldi	r21, 0x00	; 0
    4320:	80 91 5d 08 	lds	r24, 0x085D	; 0x80085d <input_mux.1878>
    4324:	28 2f       	mov	r18, r24
    4326:	30 e0       	ldi	r19, 0x00	; 0
    4328:	67 e1       	ldi	r22, 0x17	; 23
    432a:	62 9f       	mul	r22, r18
    432c:	c0 01       	movw	r24, r0
    432e:	63 9f       	mul	r22, r19
    4330:	90 0d       	add	r25, r0
    4332:	11 24       	eor	r1, r1
    4334:	8e 5f       	subi	r24, 0xFE	; 254
    4336:	93 4f       	sbci	r25, 0xF3	; 243
    4338:	fc 01       	movw	r30, r24
    433a:	20 81       	ld	r18, Z
    433c:	31 81       	ldd	r19, Z+1	; 0x01
    433e:	80 91 5d 08 	lds	r24, 0x085D	; 0x80085d <input_mux.1878>
    4342:	68 2f       	mov	r22, r24
    4344:	70 e0       	ldi	r23, 0x00	; 0
    4346:	e7 e1       	ldi	r30, 0x17	; 23
    4348:	e6 9f       	mul	r30, r22
    434a:	c0 01       	movw	r24, r0
    434c:	e7 9f       	mul	r30, r23
    434e:	90 0d       	add	r25, r0
    4350:	11 24       	eor	r1, r1
    4352:	8c 5f       	subi	r24, 0xFC	; 252
    4354:	93 4f       	sbci	r25, 0xF3	; 243
    4356:	fc 01       	movw	r30, r24
    4358:	80 81       	ld	r24, Z
    435a:	91 81       	ldd	r25, Z+1	; 0x01
    435c:	28 1b       	sub	r18, r24
    435e:	39 0b       	sbc	r19, r25
    4360:	67 e1       	ldi	r22, 0x17	; 23
    4362:	64 9f       	mul	r22, r20
    4364:	c0 01       	movw	r24, r0
    4366:	65 9f       	mul	r22, r21
    4368:	90 0d       	add	r25, r0
    436a:	11 24       	eor	r1, r1
    436c:	8a 5f       	subi	r24, 0xFA	; 250
    436e:	93 4f       	sbci	r25, 0xF3	; 243
    4370:	fc 01       	movw	r30, r24
    4372:	31 83       	std	Z+1, r19	; 0x01
    4374:	20 83       	st	Z, r18

	
	/*modbus_puts_var_int(PSTR(" imput mux =  "),input_mux);
	modbus_puts_var_int(PSTR(" weight: "),tensometer[input_mux].weight);*/
	
	if (input_mux)
    4376:	80 91 5d 08 	lds	r24, 0x085D	; 0x80085d <input_mux.1878>
    437a:	88 23       	and	r24, r24
    437c:	61 f0       	breq	.+24     	; 0x4396 <make_tensometer_measure+0xe22>
	{
		ADS_A0_HIGH;
    437e:	88 e0       	ldi	r24, 0x08	; 8
    4380:	91 e0       	ldi	r25, 0x01	; 1
    4382:	28 e0       	ldi	r18, 0x08	; 8
    4384:	31 e0       	ldi	r19, 0x01	; 1
    4386:	f9 01       	movw	r30, r18
    4388:	20 81       	ld	r18, Z
    438a:	20 62       	ori	r18, 0x20	; 32
    438c:	fc 01       	movw	r30, r24
    438e:	20 83       	st	Z, r18
		input_mux=0;
    4390:	10 92 5d 08 	sts	0x085D, r1	; 0x80085d <input_mux.1878>
    4394:	0c c0       	rjmp	.+24     	; 0x43ae <make_tensometer_measure+0xe3a>
	}
	else
	{
		ADS_A0_LOW;
    4396:	88 e0       	ldi	r24, 0x08	; 8
    4398:	91 e0       	ldi	r25, 0x01	; 1
    439a:	28 e0       	ldi	r18, 0x08	; 8
    439c:	31 e0       	ldi	r19, 0x01	; 1
    439e:	f9 01       	movw	r30, r18
    43a0:	20 81       	ld	r18, Z
    43a2:	2f 7d       	andi	r18, 0xDF	; 223
    43a4:	fc 01       	movw	r30, r24
    43a6:	20 83       	st	Z, r18
		input_mux=1;
    43a8:	81 e0       	ldi	r24, 0x01	; 1
    43aa:	80 93 5d 08 	sts	0x085D, r24	; 0x80085d <input_mux.1878>
	}
}
    43ae:	cd 56       	subi	r28, 0x6D	; 109
    43b0:	df 4f       	sbci	r29, 0xFF	; 255
    43b2:	0f b6       	in	r0, 0x3f	; 63
    43b4:	f8 94       	cli
    43b6:	de bf       	out	0x3e, r29	; 62
    43b8:	0f be       	out	0x3f, r0	; 63
    43ba:	cd bf       	out	0x3d, r28	; 61
    43bc:	df 91       	pop	r29
    43be:	cf 91       	pop	r28
    43c0:	1f 91       	pop	r17
    43c2:	0f 91       	pop	r16
    43c4:	08 95       	ret

000043c6 <get_roll_weight>:
// 	uint16_t preCalculateMeasure = tensometer[input_mux].preCalculateMeasure;	
// 	tensometer[input_mux].weight =	TENSOMETER_ACCURACY*preCalculateMeasure;	
// 	tensometer[input_mux].filamentWeight = tensometer[input_mux].weight - tensometer[input_mux].rollWeight;
// }

void get_roll_weight(uint8_t input_mux){
    43c6:	cf 93       	push	r28
    43c8:	df 93       	push	r29
    43ca:	1f 92       	push	r1
    43cc:	cd b7       	in	r28, 0x3d	; 61
    43ce:	de b7       	in	r29, 0x3e	; 62
    43d0:	89 83       	std	Y+1, r24	; 0x01
	tensometer[input_mux].rollWeight = DEFAULT_ROLL_WEIGHT;
    43d2:	89 81       	ldd	r24, Y+1	; 0x01
    43d4:	28 2f       	mov	r18, r24
    43d6:	30 e0       	ldi	r19, 0x00	; 0
    43d8:	47 e1       	ldi	r20, 0x17	; 23
    43da:	42 9f       	mul	r20, r18
    43dc:	c0 01       	movw	r24, r0
    43de:	43 9f       	mul	r20, r19
    43e0:	90 0d       	add	r25, r0
    43e2:	11 24       	eor	r1, r1
    43e4:	8c 5f       	subi	r24, 0xFC	; 252
    43e6:	93 4f       	sbci	r25, 0xF3	; 243
    43e8:	24 e6       	ldi	r18, 0x64	; 100
    43ea:	30 e0       	ldi	r19, 0x00	; 0
    43ec:	fc 01       	movw	r30, r24
    43ee:	31 83       	std	Z+1, r19	; 0x01
    43f0:	20 83       	st	Z, r18
}
    43f2:	0f 90       	pop	r0
    43f4:	df 91       	pop	r29
    43f6:	cf 91       	pop	r28
    43f8:	08 95       	ret

000043fa <manageTensometer>:

void manageTensometer(){
    43fa:	cf 93       	push	r28
    43fc:	df 93       	push	r29
    43fe:	cd b7       	in	r28, 0x3d	; 61
    4400:	de b7       	in	r29, 0x3e	; 62
	if (!Filament_measure_timer)	// wstawic Filament_measure_timer
    4402:	80 91 48 08 	lds	r24, 0x0848	; 0x800848 <Filament_measure_timer>
    4406:	90 91 49 08 	lds	r25, 0x0849	; 0x800849 <Filament_measure_timer+0x1>
    440a:	89 2b       	or	r24, r25
    440c:	39 f4       	brne	.+14     	; 0x441c <manageTensometer+0x22>
	{
		make_tensometer_measure();
    440e:	b2 d8       	rcall	.-3740   	; 0x3574 <make_tensometer_measure>
		
		Filament_measure_timer = TENSOMETER_MEASURE_INTERVAL;
    4410:	88 ee       	ldi	r24, 0xE8	; 232
    4412:	93 e0       	ldi	r25, 0x03	; 3
    4414:	90 93 49 08 	sts	0x0849, r25	; 0x800849 <Filament_measure_timer+0x1>
    4418:	80 93 48 08 	sts	0x0848, r24	; 0x800848 <Filament_measure_timer>
	}
	if (calibration){
    441c:	80 91 59 08 	lds	r24, 0x0859	; 0x800859 <calibration>
    4420:	88 23       	and	r24, r24
    4422:	21 f0       	breq	.+8      	; 0x442c <manageTensometer+0x32>
		calibration_sequence();
    4424:	0e 94 e4 14 	call	0x29c8	; 0x29c8 <calibration_sequence>
		calibration = 0;
    4428:	10 92 59 08 	sts	0x0859, r1	; 0x800859 <calibration>
	}
    442c:	df 91       	pop	r29
    442e:	cf 91       	pop	r28
    4430:	08 95       	ret

00004432 <__cmpsf2>:
    4432:	d9 d0       	rcall	.+434    	; 0x45e6 <__fp_cmp>
    4434:	08 f4       	brcc	.+2      	; 0x4438 <__cmpsf2+0x6>
    4436:	81 e0       	ldi	r24, 0x01	; 1
    4438:	08 95       	ret

0000443a <__divsf3>:
    443a:	0c d0       	rcall	.+24     	; 0x4454 <__divsf3x>
    443c:	0f c1       	rjmp	.+542    	; 0x465c <__fp_round>
    443e:	07 d1       	rcall	.+526    	; 0x464e <__fp_pscB>
    4440:	40 f0       	brcs	.+16     	; 0x4452 <__divsf3+0x18>
    4442:	fe d0       	rcall	.+508    	; 0x4640 <__fp_pscA>
    4444:	30 f0       	brcs	.+12     	; 0x4452 <__divsf3+0x18>
    4446:	21 f4       	brne	.+8      	; 0x4450 <__divsf3+0x16>
    4448:	5f 3f       	cpi	r21, 0xFF	; 255
    444a:	19 f0       	breq	.+6      	; 0x4452 <__divsf3+0x18>
    444c:	f0 c0       	rjmp	.+480    	; 0x462e <__fp_inf>
    444e:	51 11       	cpse	r21, r1
    4450:	39 c1       	rjmp	.+626    	; 0x46c4 <__fp_szero>
    4452:	f3 c0       	rjmp	.+486    	; 0x463a <__fp_nan>

00004454 <__divsf3x>:
    4454:	14 d1       	rcall	.+552    	; 0x467e <__fp_split3>
    4456:	98 f3       	brcs	.-26     	; 0x443e <__divsf3+0x4>

00004458 <__divsf3_pse>:
    4458:	99 23       	and	r25, r25
    445a:	c9 f3       	breq	.-14     	; 0x444e <__divsf3+0x14>
    445c:	55 23       	and	r21, r21
    445e:	b1 f3       	breq	.-20     	; 0x444c <__divsf3+0x12>
    4460:	95 1b       	sub	r25, r21
    4462:	55 0b       	sbc	r21, r21
    4464:	bb 27       	eor	r27, r27
    4466:	aa 27       	eor	r26, r26
    4468:	62 17       	cp	r22, r18
    446a:	73 07       	cpc	r23, r19
    446c:	84 07       	cpc	r24, r20
    446e:	38 f0       	brcs	.+14     	; 0x447e <__divsf3_pse+0x26>
    4470:	9f 5f       	subi	r25, 0xFF	; 255
    4472:	5f 4f       	sbci	r21, 0xFF	; 255
    4474:	22 0f       	add	r18, r18
    4476:	33 1f       	adc	r19, r19
    4478:	44 1f       	adc	r20, r20
    447a:	aa 1f       	adc	r26, r26
    447c:	a9 f3       	breq	.-22     	; 0x4468 <__divsf3_pse+0x10>
    447e:	33 d0       	rcall	.+102    	; 0x44e6 <__divsf3_pse+0x8e>
    4480:	0e 2e       	mov	r0, r30
    4482:	3a f0       	brmi	.+14     	; 0x4492 <__divsf3_pse+0x3a>
    4484:	e0 e8       	ldi	r30, 0x80	; 128
    4486:	30 d0       	rcall	.+96     	; 0x44e8 <__divsf3_pse+0x90>
    4488:	91 50       	subi	r25, 0x01	; 1
    448a:	50 40       	sbci	r21, 0x00	; 0
    448c:	e6 95       	lsr	r30
    448e:	00 1c       	adc	r0, r0
    4490:	ca f7       	brpl	.-14     	; 0x4484 <__divsf3_pse+0x2c>
    4492:	29 d0       	rcall	.+82     	; 0x44e6 <__divsf3_pse+0x8e>
    4494:	fe 2f       	mov	r31, r30
    4496:	27 d0       	rcall	.+78     	; 0x44e6 <__divsf3_pse+0x8e>
    4498:	66 0f       	add	r22, r22
    449a:	77 1f       	adc	r23, r23
    449c:	88 1f       	adc	r24, r24
    449e:	bb 1f       	adc	r27, r27
    44a0:	26 17       	cp	r18, r22
    44a2:	37 07       	cpc	r19, r23
    44a4:	48 07       	cpc	r20, r24
    44a6:	ab 07       	cpc	r26, r27
    44a8:	b0 e8       	ldi	r27, 0x80	; 128
    44aa:	09 f0       	breq	.+2      	; 0x44ae <__divsf3_pse+0x56>
    44ac:	bb 0b       	sbc	r27, r27
    44ae:	80 2d       	mov	r24, r0
    44b0:	bf 01       	movw	r22, r30
    44b2:	ff 27       	eor	r31, r31
    44b4:	93 58       	subi	r25, 0x83	; 131
    44b6:	5f 4f       	sbci	r21, 0xFF	; 255
    44b8:	2a f0       	brmi	.+10     	; 0x44c4 <__divsf3_pse+0x6c>
    44ba:	9e 3f       	cpi	r25, 0xFE	; 254
    44bc:	51 05       	cpc	r21, r1
    44be:	68 f0       	brcs	.+26     	; 0x44da <__divsf3_pse+0x82>
    44c0:	b6 c0       	rjmp	.+364    	; 0x462e <__fp_inf>
    44c2:	00 c1       	rjmp	.+512    	; 0x46c4 <__fp_szero>
    44c4:	5f 3f       	cpi	r21, 0xFF	; 255
    44c6:	ec f3       	brlt	.-6      	; 0x44c2 <__divsf3_pse+0x6a>
    44c8:	98 3e       	cpi	r25, 0xE8	; 232
    44ca:	dc f3       	brlt	.-10     	; 0x44c2 <__divsf3_pse+0x6a>
    44cc:	86 95       	lsr	r24
    44ce:	77 95       	ror	r23
    44d0:	67 95       	ror	r22
    44d2:	b7 95       	ror	r27
    44d4:	f7 95       	ror	r31
    44d6:	9f 5f       	subi	r25, 0xFF	; 255
    44d8:	c9 f7       	brne	.-14     	; 0x44cc <__divsf3_pse+0x74>
    44da:	88 0f       	add	r24, r24
    44dc:	91 1d       	adc	r25, r1
    44de:	96 95       	lsr	r25
    44e0:	87 95       	ror	r24
    44e2:	97 f9       	bld	r25, 7
    44e4:	08 95       	ret
    44e6:	e1 e0       	ldi	r30, 0x01	; 1
    44e8:	66 0f       	add	r22, r22
    44ea:	77 1f       	adc	r23, r23
    44ec:	88 1f       	adc	r24, r24
    44ee:	bb 1f       	adc	r27, r27
    44f0:	62 17       	cp	r22, r18
    44f2:	73 07       	cpc	r23, r19
    44f4:	84 07       	cpc	r24, r20
    44f6:	ba 07       	cpc	r27, r26
    44f8:	20 f0       	brcs	.+8      	; 0x4502 <__divsf3_pse+0xaa>
    44fa:	62 1b       	sub	r22, r18
    44fc:	73 0b       	sbc	r23, r19
    44fe:	84 0b       	sbc	r24, r20
    4500:	ba 0b       	sbc	r27, r26
    4502:	ee 1f       	adc	r30, r30
    4504:	88 f7       	brcc	.-30     	; 0x44e8 <__divsf3_pse+0x90>
    4506:	e0 95       	com	r30
    4508:	08 95       	ret

0000450a <__fixsfsi>:
    450a:	04 d0       	rcall	.+8      	; 0x4514 <__fixunssfsi>
    450c:	68 94       	set
    450e:	b1 11       	cpse	r27, r1
    4510:	d9 c0       	rjmp	.+434    	; 0x46c4 <__fp_szero>
    4512:	08 95       	ret

00004514 <__fixunssfsi>:
    4514:	bc d0       	rcall	.+376    	; 0x468e <__fp_splitA>
    4516:	88 f0       	brcs	.+34     	; 0x453a <__fixunssfsi+0x26>
    4518:	9f 57       	subi	r25, 0x7F	; 127
    451a:	90 f0       	brcs	.+36     	; 0x4540 <__fixunssfsi+0x2c>
    451c:	b9 2f       	mov	r27, r25
    451e:	99 27       	eor	r25, r25
    4520:	b7 51       	subi	r27, 0x17	; 23
    4522:	a0 f0       	brcs	.+40     	; 0x454c <__fixunssfsi+0x38>
    4524:	d1 f0       	breq	.+52     	; 0x455a <__fixunssfsi+0x46>
    4526:	66 0f       	add	r22, r22
    4528:	77 1f       	adc	r23, r23
    452a:	88 1f       	adc	r24, r24
    452c:	99 1f       	adc	r25, r25
    452e:	1a f0       	brmi	.+6      	; 0x4536 <__fixunssfsi+0x22>
    4530:	ba 95       	dec	r27
    4532:	c9 f7       	brne	.-14     	; 0x4526 <__fixunssfsi+0x12>
    4534:	12 c0       	rjmp	.+36     	; 0x455a <__fixunssfsi+0x46>
    4536:	b1 30       	cpi	r27, 0x01	; 1
    4538:	81 f0       	breq	.+32     	; 0x455a <__fixunssfsi+0x46>
    453a:	c3 d0       	rcall	.+390    	; 0x46c2 <__fp_zero>
    453c:	b1 e0       	ldi	r27, 0x01	; 1
    453e:	08 95       	ret
    4540:	c0 c0       	rjmp	.+384    	; 0x46c2 <__fp_zero>
    4542:	67 2f       	mov	r22, r23
    4544:	78 2f       	mov	r23, r24
    4546:	88 27       	eor	r24, r24
    4548:	b8 5f       	subi	r27, 0xF8	; 248
    454a:	39 f0       	breq	.+14     	; 0x455a <__fixunssfsi+0x46>
    454c:	b9 3f       	cpi	r27, 0xF9	; 249
    454e:	cc f3       	brlt	.-14     	; 0x4542 <__fixunssfsi+0x2e>
    4550:	86 95       	lsr	r24
    4552:	77 95       	ror	r23
    4554:	67 95       	ror	r22
    4556:	b3 95       	inc	r27
    4558:	d9 f7       	brne	.-10     	; 0x4550 <__fixunssfsi+0x3c>
    455a:	3e f4       	brtc	.+14     	; 0x456a <__fixunssfsi+0x56>
    455c:	90 95       	com	r25
    455e:	80 95       	com	r24
    4560:	70 95       	com	r23
    4562:	61 95       	neg	r22
    4564:	7f 4f       	sbci	r23, 0xFF	; 255
    4566:	8f 4f       	sbci	r24, 0xFF	; 255
    4568:	9f 4f       	sbci	r25, 0xFF	; 255
    456a:	08 95       	ret

0000456c <__floatunsisf>:
    456c:	e8 94       	clt
    456e:	09 c0       	rjmp	.+18     	; 0x4582 <__floatsisf+0x12>

00004570 <__floatsisf>:
    4570:	97 fb       	bst	r25, 7
    4572:	3e f4       	brtc	.+14     	; 0x4582 <__floatsisf+0x12>
    4574:	90 95       	com	r25
    4576:	80 95       	com	r24
    4578:	70 95       	com	r23
    457a:	61 95       	neg	r22
    457c:	7f 4f       	sbci	r23, 0xFF	; 255
    457e:	8f 4f       	sbci	r24, 0xFF	; 255
    4580:	9f 4f       	sbci	r25, 0xFF	; 255
    4582:	99 23       	and	r25, r25
    4584:	a9 f0       	breq	.+42     	; 0x45b0 <__floatsisf+0x40>
    4586:	f9 2f       	mov	r31, r25
    4588:	96 e9       	ldi	r25, 0x96	; 150
    458a:	bb 27       	eor	r27, r27
    458c:	93 95       	inc	r25
    458e:	f6 95       	lsr	r31
    4590:	87 95       	ror	r24
    4592:	77 95       	ror	r23
    4594:	67 95       	ror	r22
    4596:	b7 95       	ror	r27
    4598:	f1 11       	cpse	r31, r1
    459a:	f8 cf       	rjmp	.-16     	; 0x458c <__floatsisf+0x1c>
    459c:	fa f4       	brpl	.+62     	; 0x45dc <__floatsisf+0x6c>
    459e:	bb 0f       	add	r27, r27
    45a0:	11 f4       	brne	.+4      	; 0x45a6 <__floatsisf+0x36>
    45a2:	60 ff       	sbrs	r22, 0
    45a4:	1b c0       	rjmp	.+54     	; 0x45dc <__floatsisf+0x6c>
    45a6:	6f 5f       	subi	r22, 0xFF	; 255
    45a8:	7f 4f       	sbci	r23, 0xFF	; 255
    45aa:	8f 4f       	sbci	r24, 0xFF	; 255
    45ac:	9f 4f       	sbci	r25, 0xFF	; 255
    45ae:	16 c0       	rjmp	.+44     	; 0x45dc <__floatsisf+0x6c>
    45b0:	88 23       	and	r24, r24
    45b2:	11 f0       	breq	.+4      	; 0x45b8 <__floatsisf+0x48>
    45b4:	96 e9       	ldi	r25, 0x96	; 150
    45b6:	11 c0       	rjmp	.+34     	; 0x45da <__floatsisf+0x6a>
    45b8:	77 23       	and	r23, r23
    45ba:	21 f0       	breq	.+8      	; 0x45c4 <__floatsisf+0x54>
    45bc:	9e e8       	ldi	r25, 0x8E	; 142
    45be:	87 2f       	mov	r24, r23
    45c0:	76 2f       	mov	r23, r22
    45c2:	05 c0       	rjmp	.+10     	; 0x45ce <__floatsisf+0x5e>
    45c4:	66 23       	and	r22, r22
    45c6:	71 f0       	breq	.+28     	; 0x45e4 <__floatsisf+0x74>
    45c8:	96 e8       	ldi	r25, 0x86	; 134
    45ca:	86 2f       	mov	r24, r22
    45cc:	70 e0       	ldi	r23, 0x00	; 0
    45ce:	60 e0       	ldi	r22, 0x00	; 0
    45d0:	2a f0       	brmi	.+10     	; 0x45dc <__floatsisf+0x6c>
    45d2:	9a 95       	dec	r25
    45d4:	66 0f       	add	r22, r22
    45d6:	77 1f       	adc	r23, r23
    45d8:	88 1f       	adc	r24, r24
    45da:	da f7       	brpl	.-10     	; 0x45d2 <__floatsisf+0x62>
    45dc:	88 0f       	add	r24, r24
    45de:	96 95       	lsr	r25
    45e0:	87 95       	ror	r24
    45e2:	97 f9       	bld	r25, 7
    45e4:	08 95       	ret

000045e6 <__fp_cmp>:
    45e6:	99 0f       	add	r25, r25
    45e8:	00 08       	sbc	r0, r0
    45ea:	55 0f       	add	r21, r21
    45ec:	aa 0b       	sbc	r26, r26
    45ee:	e0 e8       	ldi	r30, 0x80	; 128
    45f0:	fe ef       	ldi	r31, 0xFE	; 254
    45f2:	16 16       	cp	r1, r22
    45f4:	17 06       	cpc	r1, r23
    45f6:	e8 07       	cpc	r30, r24
    45f8:	f9 07       	cpc	r31, r25
    45fa:	c0 f0       	brcs	.+48     	; 0x462c <__fp_cmp+0x46>
    45fc:	12 16       	cp	r1, r18
    45fe:	13 06       	cpc	r1, r19
    4600:	e4 07       	cpc	r30, r20
    4602:	f5 07       	cpc	r31, r21
    4604:	98 f0       	brcs	.+38     	; 0x462c <__fp_cmp+0x46>
    4606:	62 1b       	sub	r22, r18
    4608:	73 0b       	sbc	r23, r19
    460a:	84 0b       	sbc	r24, r20
    460c:	95 0b       	sbc	r25, r21
    460e:	39 f4       	brne	.+14     	; 0x461e <__fp_cmp+0x38>
    4610:	0a 26       	eor	r0, r26
    4612:	61 f0       	breq	.+24     	; 0x462c <__fp_cmp+0x46>
    4614:	23 2b       	or	r18, r19
    4616:	24 2b       	or	r18, r20
    4618:	25 2b       	or	r18, r21
    461a:	21 f4       	brne	.+8      	; 0x4624 <__fp_cmp+0x3e>
    461c:	08 95       	ret
    461e:	0a 26       	eor	r0, r26
    4620:	09 f4       	brne	.+2      	; 0x4624 <__fp_cmp+0x3e>
    4622:	a1 40       	sbci	r26, 0x01	; 1
    4624:	a6 95       	lsr	r26
    4626:	8f ef       	ldi	r24, 0xFF	; 255
    4628:	81 1d       	adc	r24, r1
    462a:	81 1d       	adc	r24, r1
    462c:	08 95       	ret

0000462e <__fp_inf>:
    462e:	97 f9       	bld	r25, 7
    4630:	9f 67       	ori	r25, 0x7F	; 127
    4632:	80 e8       	ldi	r24, 0x80	; 128
    4634:	70 e0       	ldi	r23, 0x00	; 0
    4636:	60 e0       	ldi	r22, 0x00	; 0
    4638:	08 95       	ret

0000463a <__fp_nan>:
    463a:	9f ef       	ldi	r25, 0xFF	; 255
    463c:	80 ec       	ldi	r24, 0xC0	; 192
    463e:	08 95       	ret

00004640 <__fp_pscA>:
    4640:	00 24       	eor	r0, r0
    4642:	0a 94       	dec	r0
    4644:	16 16       	cp	r1, r22
    4646:	17 06       	cpc	r1, r23
    4648:	18 06       	cpc	r1, r24
    464a:	09 06       	cpc	r0, r25
    464c:	08 95       	ret

0000464e <__fp_pscB>:
    464e:	00 24       	eor	r0, r0
    4650:	0a 94       	dec	r0
    4652:	12 16       	cp	r1, r18
    4654:	13 06       	cpc	r1, r19
    4656:	14 06       	cpc	r1, r20
    4658:	05 06       	cpc	r0, r21
    465a:	08 95       	ret

0000465c <__fp_round>:
    465c:	09 2e       	mov	r0, r25
    465e:	03 94       	inc	r0
    4660:	00 0c       	add	r0, r0
    4662:	11 f4       	brne	.+4      	; 0x4668 <__fp_round+0xc>
    4664:	88 23       	and	r24, r24
    4666:	52 f0       	brmi	.+20     	; 0x467c <__fp_round+0x20>
    4668:	bb 0f       	add	r27, r27
    466a:	40 f4       	brcc	.+16     	; 0x467c <__fp_round+0x20>
    466c:	bf 2b       	or	r27, r31
    466e:	11 f4       	brne	.+4      	; 0x4674 <__fp_round+0x18>
    4670:	60 ff       	sbrs	r22, 0
    4672:	04 c0       	rjmp	.+8      	; 0x467c <__fp_round+0x20>
    4674:	6f 5f       	subi	r22, 0xFF	; 255
    4676:	7f 4f       	sbci	r23, 0xFF	; 255
    4678:	8f 4f       	sbci	r24, 0xFF	; 255
    467a:	9f 4f       	sbci	r25, 0xFF	; 255
    467c:	08 95       	ret

0000467e <__fp_split3>:
    467e:	57 fd       	sbrc	r21, 7
    4680:	90 58       	subi	r25, 0x80	; 128
    4682:	44 0f       	add	r20, r20
    4684:	55 1f       	adc	r21, r21
    4686:	59 f0       	breq	.+22     	; 0x469e <__fp_splitA+0x10>
    4688:	5f 3f       	cpi	r21, 0xFF	; 255
    468a:	71 f0       	breq	.+28     	; 0x46a8 <__fp_splitA+0x1a>
    468c:	47 95       	ror	r20

0000468e <__fp_splitA>:
    468e:	88 0f       	add	r24, r24
    4690:	97 fb       	bst	r25, 7
    4692:	99 1f       	adc	r25, r25
    4694:	61 f0       	breq	.+24     	; 0x46ae <__fp_splitA+0x20>
    4696:	9f 3f       	cpi	r25, 0xFF	; 255
    4698:	79 f0       	breq	.+30     	; 0x46b8 <__fp_splitA+0x2a>
    469a:	87 95       	ror	r24
    469c:	08 95       	ret
    469e:	12 16       	cp	r1, r18
    46a0:	13 06       	cpc	r1, r19
    46a2:	14 06       	cpc	r1, r20
    46a4:	55 1f       	adc	r21, r21
    46a6:	f2 cf       	rjmp	.-28     	; 0x468c <__fp_split3+0xe>
    46a8:	46 95       	lsr	r20
    46aa:	f1 df       	rcall	.-30     	; 0x468e <__fp_splitA>
    46ac:	08 c0       	rjmp	.+16     	; 0x46be <__fp_splitA+0x30>
    46ae:	16 16       	cp	r1, r22
    46b0:	17 06       	cpc	r1, r23
    46b2:	18 06       	cpc	r1, r24
    46b4:	99 1f       	adc	r25, r25
    46b6:	f1 cf       	rjmp	.-30     	; 0x469a <__fp_splitA+0xc>
    46b8:	86 95       	lsr	r24
    46ba:	71 05       	cpc	r23, r1
    46bc:	61 05       	cpc	r22, r1
    46be:	08 94       	sec
    46c0:	08 95       	ret

000046c2 <__fp_zero>:
    46c2:	e8 94       	clt

000046c4 <__fp_szero>:
    46c4:	bb 27       	eor	r27, r27
    46c6:	66 27       	eor	r22, r22
    46c8:	77 27       	eor	r23, r23
    46ca:	cb 01       	movw	r24, r22
    46cc:	97 f9       	bld	r25, 7
    46ce:	08 95       	ret

000046d0 <__gesf2>:
    46d0:	8a df       	rcall	.-236    	; 0x45e6 <__fp_cmp>
    46d2:	08 f4       	brcc	.+2      	; 0x46d6 <__gesf2+0x6>
    46d4:	8f ef       	ldi	r24, 0xFF	; 255
    46d6:	08 95       	ret

000046d8 <__mulsf3>:
    46d8:	0b d0       	rcall	.+22     	; 0x46f0 <__mulsf3x>
    46da:	c0 cf       	rjmp	.-128    	; 0x465c <__fp_round>
    46dc:	b1 df       	rcall	.-158    	; 0x4640 <__fp_pscA>
    46de:	28 f0       	brcs	.+10     	; 0x46ea <__mulsf3+0x12>
    46e0:	b6 df       	rcall	.-148    	; 0x464e <__fp_pscB>
    46e2:	18 f0       	brcs	.+6      	; 0x46ea <__mulsf3+0x12>
    46e4:	95 23       	and	r25, r21
    46e6:	09 f0       	breq	.+2      	; 0x46ea <__mulsf3+0x12>
    46e8:	a2 cf       	rjmp	.-188    	; 0x462e <__fp_inf>
    46ea:	a7 cf       	rjmp	.-178    	; 0x463a <__fp_nan>
    46ec:	11 24       	eor	r1, r1
    46ee:	ea cf       	rjmp	.-44     	; 0x46c4 <__fp_szero>

000046f0 <__mulsf3x>:
    46f0:	c6 df       	rcall	.-116    	; 0x467e <__fp_split3>
    46f2:	a0 f3       	brcs	.-24     	; 0x46dc <__mulsf3+0x4>

000046f4 <__mulsf3_pse>:
    46f4:	95 9f       	mul	r25, r21
    46f6:	d1 f3       	breq	.-12     	; 0x46ec <__mulsf3+0x14>
    46f8:	95 0f       	add	r25, r21
    46fa:	50 e0       	ldi	r21, 0x00	; 0
    46fc:	55 1f       	adc	r21, r21
    46fe:	62 9f       	mul	r22, r18
    4700:	f0 01       	movw	r30, r0
    4702:	72 9f       	mul	r23, r18
    4704:	bb 27       	eor	r27, r27
    4706:	f0 0d       	add	r31, r0
    4708:	b1 1d       	adc	r27, r1
    470a:	63 9f       	mul	r22, r19
    470c:	aa 27       	eor	r26, r26
    470e:	f0 0d       	add	r31, r0
    4710:	b1 1d       	adc	r27, r1
    4712:	aa 1f       	adc	r26, r26
    4714:	64 9f       	mul	r22, r20
    4716:	66 27       	eor	r22, r22
    4718:	b0 0d       	add	r27, r0
    471a:	a1 1d       	adc	r26, r1
    471c:	66 1f       	adc	r22, r22
    471e:	82 9f       	mul	r24, r18
    4720:	22 27       	eor	r18, r18
    4722:	b0 0d       	add	r27, r0
    4724:	a1 1d       	adc	r26, r1
    4726:	62 1f       	adc	r22, r18
    4728:	73 9f       	mul	r23, r19
    472a:	b0 0d       	add	r27, r0
    472c:	a1 1d       	adc	r26, r1
    472e:	62 1f       	adc	r22, r18
    4730:	83 9f       	mul	r24, r19
    4732:	a0 0d       	add	r26, r0
    4734:	61 1d       	adc	r22, r1
    4736:	22 1f       	adc	r18, r18
    4738:	74 9f       	mul	r23, r20
    473a:	33 27       	eor	r19, r19
    473c:	a0 0d       	add	r26, r0
    473e:	61 1d       	adc	r22, r1
    4740:	23 1f       	adc	r18, r19
    4742:	84 9f       	mul	r24, r20
    4744:	60 0d       	add	r22, r0
    4746:	21 1d       	adc	r18, r1
    4748:	82 2f       	mov	r24, r18
    474a:	76 2f       	mov	r23, r22
    474c:	6a 2f       	mov	r22, r26
    474e:	11 24       	eor	r1, r1
    4750:	9f 57       	subi	r25, 0x7F	; 127
    4752:	50 40       	sbci	r21, 0x00	; 0
    4754:	8a f0       	brmi	.+34     	; 0x4778 <__mulsf3_pse+0x84>
    4756:	e1 f0       	breq	.+56     	; 0x4790 <__mulsf3_pse+0x9c>
    4758:	88 23       	and	r24, r24
    475a:	4a f0       	brmi	.+18     	; 0x476e <__mulsf3_pse+0x7a>
    475c:	ee 0f       	add	r30, r30
    475e:	ff 1f       	adc	r31, r31
    4760:	bb 1f       	adc	r27, r27
    4762:	66 1f       	adc	r22, r22
    4764:	77 1f       	adc	r23, r23
    4766:	88 1f       	adc	r24, r24
    4768:	91 50       	subi	r25, 0x01	; 1
    476a:	50 40       	sbci	r21, 0x00	; 0
    476c:	a9 f7       	brne	.-22     	; 0x4758 <__mulsf3_pse+0x64>
    476e:	9e 3f       	cpi	r25, 0xFE	; 254
    4770:	51 05       	cpc	r21, r1
    4772:	70 f0       	brcs	.+28     	; 0x4790 <__mulsf3_pse+0x9c>
    4774:	5c cf       	rjmp	.-328    	; 0x462e <__fp_inf>
    4776:	a6 cf       	rjmp	.-180    	; 0x46c4 <__fp_szero>
    4778:	5f 3f       	cpi	r21, 0xFF	; 255
    477a:	ec f3       	brlt	.-6      	; 0x4776 <__mulsf3_pse+0x82>
    477c:	98 3e       	cpi	r25, 0xE8	; 232
    477e:	dc f3       	brlt	.-10     	; 0x4776 <__mulsf3_pse+0x82>
    4780:	86 95       	lsr	r24
    4782:	77 95       	ror	r23
    4784:	67 95       	ror	r22
    4786:	b7 95       	ror	r27
    4788:	f7 95       	ror	r31
    478a:	e7 95       	ror	r30
    478c:	9f 5f       	subi	r25, 0xFF	; 255
    478e:	c1 f7       	brne	.-16     	; 0x4780 <__mulsf3_pse+0x8c>
    4790:	fe 2b       	or	r31, r30
    4792:	88 0f       	add	r24, r24
    4794:	91 1d       	adc	r25, r1
    4796:	96 95       	lsr	r25
    4798:	87 95       	ror	r24
    479a:	97 f9       	bld	r25, 7
    479c:	08 95       	ret

0000479e <__mulsi3>:
    479e:	db 01       	movw	r26, r22
    47a0:	8f 93       	push	r24
    47a2:	9f 93       	push	r25
    47a4:	51 d0       	rcall	.+162    	; 0x4848 <__muluhisi3>
    47a6:	bf 91       	pop	r27
    47a8:	af 91       	pop	r26
    47aa:	a2 9f       	mul	r26, r18
    47ac:	80 0d       	add	r24, r0
    47ae:	91 1d       	adc	r25, r1
    47b0:	a3 9f       	mul	r26, r19
    47b2:	90 0d       	add	r25, r0
    47b4:	b2 9f       	mul	r27, r18
    47b6:	90 0d       	add	r25, r0
    47b8:	11 24       	eor	r1, r1
    47ba:	08 95       	ret

000047bc <__udivmodsi4>:
    47bc:	a1 e2       	ldi	r26, 0x21	; 33
    47be:	1a 2e       	mov	r1, r26
    47c0:	aa 1b       	sub	r26, r26
    47c2:	bb 1b       	sub	r27, r27
    47c4:	fd 01       	movw	r30, r26
    47c6:	0d c0       	rjmp	.+26     	; 0x47e2 <__udivmodsi4_ep>

000047c8 <__udivmodsi4_loop>:
    47c8:	aa 1f       	adc	r26, r26
    47ca:	bb 1f       	adc	r27, r27
    47cc:	ee 1f       	adc	r30, r30
    47ce:	ff 1f       	adc	r31, r31
    47d0:	a2 17       	cp	r26, r18
    47d2:	b3 07       	cpc	r27, r19
    47d4:	e4 07       	cpc	r30, r20
    47d6:	f5 07       	cpc	r31, r21
    47d8:	20 f0       	brcs	.+8      	; 0x47e2 <__udivmodsi4_ep>
    47da:	a2 1b       	sub	r26, r18
    47dc:	b3 0b       	sbc	r27, r19
    47de:	e4 0b       	sbc	r30, r20
    47e0:	f5 0b       	sbc	r31, r21

000047e2 <__udivmodsi4_ep>:
    47e2:	66 1f       	adc	r22, r22
    47e4:	77 1f       	adc	r23, r23
    47e6:	88 1f       	adc	r24, r24
    47e8:	99 1f       	adc	r25, r25
    47ea:	1a 94       	dec	r1
    47ec:	69 f7       	brne	.-38     	; 0x47c8 <__udivmodsi4_loop>
    47ee:	60 95       	com	r22
    47f0:	70 95       	com	r23
    47f2:	80 95       	com	r24
    47f4:	90 95       	com	r25
    47f6:	9b 01       	movw	r18, r22
    47f8:	ac 01       	movw	r20, r24
    47fa:	bd 01       	movw	r22, r26
    47fc:	cf 01       	movw	r24, r30
    47fe:	08 95       	ret

00004800 <__divmodsi4>:
    4800:	05 2e       	mov	r0, r21
    4802:	97 fb       	bst	r25, 7
    4804:	16 f4       	brtc	.+4      	; 0x480a <__divmodsi4+0xa>
    4806:	00 94       	com	r0
    4808:	0f d0       	rcall	.+30     	; 0x4828 <__negsi2>
    480a:	57 fd       	sbrc	r21, 7
    480c:	05 d0       	rcall	.+10     	; 0x4818 <__divmodsi4_neg2>
    480e:	d6 df       	rcall	.-84     	; 0x47bc <__udivmodsi4>
    4810:	07 fc       	sbrc	r0, 7
    4812:	02 d0       	rcall	.+4      	; 0x4818 <__divmodsi4_neg2>
    4814:	46 f4       	brtc	.+16     	; 0x4826 <__divmodsi4_exit>
    4816:	08 c0       	rjmp	.+16     	; 0x4828 <__negsi2>

00004818 <__divmodsi4_neg2>:
    4818:	50 95       	com	r21
    481a:	40 95       	com	r20
    481c:	30 95       	com	r19
    481e:	21 95       	neg	r18
    4820:	3f 4f       	sbci	r19, 0xFF	; 255
    4822:	4f 4f       	sbci	r20, 0xFF	; 255
    4824:	5f 4f       	sbci	r21, 0xFF	; 255

00004826 <__divmodsi4_exit>:
    4826:	08 95       	ret

00004828 <__negsi2>:
    4828:	90 95       	com	r25
    482a:	80 95       	com	r24
    482c:	70 95       	com	r23
    482e:	61 95       	neg	r22
    4830:	7f 4f       	sbci	r23, 0xFF	; 255
    4832:	8f 4f       	sbci	r24, 0xFF	; 255
    4834:	9f 4f       	sbci	r25, 0xFF	; 255
    4836:	08 95       	ret

00004838 <__tablejump2__>:
    4838:	ee 0f       	add	r30, r30
    483a:	ff 1f       	adc	r31, r31
    483c:	88 1f       	adc	r24, r24
    483e:	8b bf       	out	0x3b, r24	; 59
    4840:	07 90       	elpm	r0, Z+
    4842:	f6 91       	elpm	r31, Z
    4844:	e0 2d       	mov	r30, r0
    4846:	19 94       	eijmp

00004848 <__muluhisi3>:
    4848:	09 d0       	rcall	.+18     	; 0x485c <__umulhisi3>
    484a:	a5 9f       	mul	r26, r21
    484c:	90 0d       	add	r25, r0
    484e:	b4 9f       	mul	r27, r20
    4850:	90 0d       	add	r25, r0
    4852:	a4 9f       	mul	r26, r20
    4854:	80 0d       	add	r24, r0
    4856:	91 1d       	adc	r25, r1
    4858:	11 24       	eor	r1, r1
    485a:	08 95       	ret

0000485c <__umulhisi3>:
    485c:	a2 9f       	mul	r26, r18
    485e:	b0 01       	movw	r22, r0
    4860:	b3 9f       	mul	r27, r19
    4862:	c0 01       	movw	r24, r0
    4864:	a3 9f       	mul	r26, r19
    4866:	70 0d       	add	r23, r0
    4868:	81 1d       	adc	r24, r1
    486a:	11 24       	eor	r1, r1
    486c:	91 1d       	adc	r25, r1
    486e:	b2 9f       	mul	r27, r18
    4870:	70 0d       	add	r23, r0
    4872:	81 1d       	adc	r24, r1
    4874:	11 24       	eor	r1, r1
    4876:	91 1d       	adc	r25, r1
    4878:	08 95       	ret

0000487a <itoa>:
    487a:	45 32       	cpi	r20, 0x25	; 37
    487c:	51 05       	cpc	r21, r1
    487e:	18 f4       	brcc	.+6      	; 0x4886 <itoa+0xc>
    4880:	42 30       	cpi	r20, 0x02	; 2
    4882:	08 f0       	brcs	.+2      	; 0x4886 <itoa+0xc>
    4884:	04 c0       	rjmp	.+8      	; 0x488e <__itoa_ncheck>
    4886:	fb 01       	movw	r30, r22
    4888:	10 82       	st	Z, r1
    488a:	cb 01       	movw	r24, r22
    488c:	08 95       	ret

0000488e <__itoa_ncheck>:
    488e:	bb 27       	eor	r27, r27
    4890:	4a 30       	cpi	r20, 0x0A	; 10
    4892:	31 f4       	brne	.+12     	; 0x48a0 <__itoa_ncheck+0x12>
    4894:	99 23       	and	r25, r25
    4896:	22 f4       	brpl	.+8      	; 0x48a0 <__itoa_ncheck+0x12>
    4898:	bd e2       	ldi	r27, 0x2D	; 45
    489a:	90 95       	com	r25
    489c:	81 95       	neg	r24
    489e:	9f 4f       	sbci	r25, 0xFF	; 255
    48a0:	01 c0       	rjmp	.+2      	; 0x48a4 <__utoa_common>

000048a2 <__utoa_ncheck>:
    48a2:	bb 27       	eor	r27, r27

000048a4 <__utoa_common>:
    48a4:	fb 01       	movw	r30, r22
    48a6:	55 27       	eor	r21, r21
    48a8:	aa 27       	eor	r26, r26
    48aa:	88 0f       	add	r24, r24
    48ac:	99 1f       	adc	r25, r25
    48ae:	aa 1f       	adc	r26, r26
    48b0:	a4 17       	cp	r26, r20
    48b2:	10 f0       	brcs	.+4      	; 0x48b8 <__utoa_common+0x14>
    48b4:	a4 1b       	sub	r26, r20
    48b6:	83 95       	inc	r24
    48b8:	50 51       	subi	r21, 0x10	; 16
    48ba:	b9 f7       	brne	.-18     	; 0x48aa <__utoa_common+0x6>
    48bc:	a0 5d       	subi	r26, 0xD0	; 208
    48be:	aa 33       	cpi	r26, 0x3A	; 58
    48c0:	08 f0       	brcs	.+2      	; 0x48c4 <__utoa_common+0x20>
    48c2:	a9 5d       	subi	r26, 0xD9	; 217
    48c4:	a1 93       	st	Z+, r26
    48c6:	00 97       	sbiw	r24, 0x00	; 0
    48c8:	79 f7       	brne	.-34     	; 0x48a8 <__utoa_common+0x4>
    48ca:	b1 11       	cpse	r27, r1
    48cc:	b1 93       	st	Z+, r27
    48ce:	11 92       	st	Z+, r1
    48d0:	cb 01       	movw	r24, r22
    48d2:	00 c0       	rjmp	.+0      	; 0x48d4 <strrev>

000048d4 <strrev>:
    48d4:	dc 01       	movw	r26, r24
    48d6:	fc 01       	movw	r30, r24
    48d8:	67 2f       	mov	r22, r23
    48da:	71 91       	ld	r23, Z+
    48dc:	77 23       	and	r23, r23
    48de:	e1 f7       	brne	.-8      	; 0x48d8 <strrev+0x4>
    48e0:	32 97       	sbiw	r30, 0x02	; 2
    48e2:	04 c0       	rjmp	.+8      	; 0x48ec <strrev+0x18>
    48e4:	7c 91       	ld	r23, X
    48e6:	6d 93       	st	X+, r22
    48e8:	70 83       	st	Z, r23
    48ea:	62 91       	ld	r22, -Z
    48ec:	ae 17       	cp	r26, r30
    48ee:	bf 07       	cpc	r27, r31
    48f0:	c8 f3       	brcs	.-14     	; 0x48e4 <strrev+0x10>
    48f2:	08 95       	ret

000048f4 <eeprom_read_block>:
    48f4:	dc 01       	movw	r26, r24
    48f6:	cb 01       	movw	r24, r22

000048f8 <eeprom_read_blraw>:
    48f8:	fc 01       	movw	r30, r24
    48fa:	f9 99       	sbic	0x1f, 1	; 31
    48fc:	fe cf       	rjmp	.-4      	; 0x48fa <eeprom_read_blraw+0x2>
    48fe:	06 c0       	rjmp	.+12     	; 0x490c <eeprom_read_blraw+0x14>
    4900:	f2 bd       	out	0x22, r31	; 34
    4902:	e1 bd       	out	0x21, r30	; 33
    4904:	f8 9a       	sbi	0x1f, 0	; 31
    4906:	31 96       	adiw	r30, 0x01	; 1
    4908:	00 b4       	in	r0, 0x20	; 32
    490a:	0d 92       	st	X+, r0
    490c:	41 50       	subi	r20, 0x01	; 1
    490e:	50 40       	sbci	r21, 0x00	; 0
    4910:	b8 f7       	brcc	.-18     	; 0x4900 <eeprom_read_blraw+0x8>
    4912:	08 95       	ret

00004914 <eeprom_read_byte>:
    4914:	f9 99       	sbic	0x1f, 1	; 31
    4916:	fe cf       	rjmp	.-4      	; 0x4914 <eeprom_read_byte>
    4918:	92 bd       	out	0x22, r25	; 34
    491a:	81 bd       	out	0x21, r24	; 33
    491c:	f8 9a       	sbi	0x1f, 0	; 31
    491e:	99 27       	eor	r25, r25
    4920:	80 b5       	in	r24, 0x20	; 32
    4922:	08 95       	ret

00004924 <eeprom_read_dword>:
    4924:	a6 e1       	ldi	r26, 0x16	; 22
    4926:	b0 e0       	ldi	r27, 0x00	; 0
    4928:	44 e0       	ldi	r20, 0x04	; 4
    492a:	50 e0       	ldi	r21, 0x00	; 0
    492c:	e5 cf       	rjmp	.-54     	; 0x48f8 <eeprom_read_blraw>

0000492e <eeprom_read_word>:
    492e:	a8 e1       	ldi	r26, 0x18	; 24
    4930:	b0 e0       	ldi	r27, 0x00	; 0
    4932:	42 e0       	ldi	r20, 0x02	; 2
    4934:	50 e0       	ldi	r21, 0x00	; 0
    4936:	e0 cf       	rjmp	.-64     	; 0x48f8 <eeprom_read_blraw>

00004938 <eeprom_write_byte>:
    4938:	26 2f       	mov	r18, r22

0000493a <eeprom_write_r18>:
    493a:	f9 99       	sbic	0x1f, 1	; 31
    493c:	fe cf       	rjmp	.-4      	; 0x493a <eeprom_write_r18>
    493e:	1f ba       	out	0x1f, r1	; 31
    4940:	92 bd       	out	0x22, r25	; 34
    4942:	81 bd       	out	0x21, r24	; 33
    4944:	20 bd       	out	0x20, r18	; 32
    4946:	0f b6       	in	r0, 0x3f	; 63
    4948:	f8 94       	cli
    494a:	fa 9a       	sbi	0x1f, 2	; 31
    494c:	f9 9a       	sbi	0x1f, 1	; 31
    494e:	0f be       	out	0x3f, r0	; 63
    4950:	01 96       	adiw	r24, 0x01	; 1
    4952:	08 95       	ret

00004954 <eeprom_write_dword>:
    4954:	24 2f       	mov	r18, r20
    4956:	f1 df       	rcall	.-30     	; 0x493a <eeprom_write_r18>
    4958:	25 2f       	mov	r18, r21
    495a:	ef df       	rcall	.-34     	; 0x493a <eeprom_write_r18>
    495c:	00 c0       	rjmp	.+0      	; 0x495e <eeprom_write_word>

0000495e <eeprom_write_word>:
    495e:	ec df       	rcall	.-40     	; 0x4938 <eeprom_write_byte>
    4960:	27 2f       	mov	r18, r23
    4962:	eb cf       	rjmp	.-42     	; 0x493a <eeprom_write_r18>

00004964 <_exit>:
    4964:	f8 94       	cli

00004966 <__stop_program>:
    4966:	ff cf       	rjmp	.-2      	; 0x4966 <__stop_program>
